

Microchip MPLAB XC8 Assembler V3.10 build 20250813170317 
                                                                                               Wed Nov 19 16:55:23 2025

Microchip MPLAB XC8 C Compiler v3.10 (Free license) build 20250813170317 Og1 
     1                           	processor	16F887
     2                           	pagewidth 120
     3                           	opt	flic
     4                           	psect	idataBANK1,global,class=CODE,space=0,delta=2,noexec
     5                           	psect	idataBANK3,global,class=CODE,space=0,delta=2,noexec
     6                           	psect	strings,global,class=STRING,space=0,delta=2,noexec
     7                           	psect	cinit,global,class=CODE,space=0,merge=1,delta=2
     8                           	psect	bssBANK1,global,class=BANK1,space=1,delta=1,noexec
     9                           	psect	dataBANK1,global,class=BANK1,space=1,delta=1,noexec
    10                           	psect	bssBANK3,global,class=BANK3,space=1,delta=1,noexec
    11                           	psect	dataBANK3,global,class=BANK3,space=1,delta=1,noexec
    12                           	psect	clrtext,global,class=CODE,space=0,delta=2
    13                           	psect	cstackBANK1,global,class=BANK1,space=1,delta=1,noexec
    14                           	psect	cstackCOMMON,global,class=COMMON,space=1,delta=1,noexec
    15                           	psect	cstackBANK0,global,class=BANK0,space=1,delta=1,noexec
    16                           	psect	maintext,global,class=CODE,space=0,split=1,delta=2
    17                           	psect	text1,local,class=CODE,space=0,merge=1,delta=2
    18                           	psect	text2,local,class=CODE,space=0,merge=1,delta=2
    19                           	psect	text3,local,class=CODE,space=0,merge=1,delta=2
    20                           	psect	text4,local,class=CODE,space=0,merge=1,delta=2
    21                           	psect	text5,local,class=CODE,space=0,merge=1,delta=2
    22                           	psect	text6,local,class=CODE,space=0,merge=1,delta=2
    23                           	psect	text7,local,class=CODE,space=0,merge=1,delta=2
    24                           	psect	text8,local,class=CODE,space=0,merge=1,delta=2
    25                           	psect	text9,local,class=CODE,space=0,merge=1,delta=2,group=1
    26                           	psect	text10,local,class=CODE,space=0,merge=1,delta=2
    27                           	psect	text11,local,class=CODE,space=0,merge=1,delta=2
    28                           	psect	text12,local,class=CODE,space=0,merge=1,inline,delta=2
    29                           	psect	text13,local,class=CODE,space=0,merge=1,inline,delta=2
    30                           	psect	text14,local,class=CODE,space=0,merge=1,delta=2
    31                           	psect	text15,local,class=CODE,space=0,merge=1,delta=2
    32                           	psect	text16,local,class=CODE,space=0,merge=1,inline,delta=2
    33                           	psect	text17,local,class=CODE,space=0,merge=1,inline,delta=2
    34                           	psect	text18,local,class=CODE,space=0,merge=1,delta=2
    35                           	psect	text19,local,class=CODE,space=0,merge=1,delta=2
    36                           	psect	text20,local,class=CODE,space=0,merge=1,delta=2
    37                           	psect	text21,local,class=CODE,space=0,merge=1,delta=2
    38                           	psect	text22,local,class=CODE,space=0,merge=1,delta=2
    39                           	psect	text23,local,class=CODE,space=0,merge=1,delta=2
    40                           	psect	text24,local,class=CODE,space=0,merge=1,delta=2
    41                           	psect	text25,local,class=CODE,space=0,merge=1,delta=2
    42                           	psect	text26,local,class=CODE,space=0,merge=1,delta=2,group=1
    43                           	psect	text27,local,class=CODE,space=0,merge=1,delta=2,group=1
    44                           	psect	text28,local,class=CODE,space=0,merge=1,delta=2,group=1
    45                           	psect	text29,local,class=CODE,space=0,merge=1,delta=2,group=1
    46                           	psect	text30,local,class=CODE,space=0,merge=1,delta=2,group=1
    47                           	psect	text31,local,class=CODE,space=0,merge=1,delta=2
    48                           	psect	text32,local,class=CODE,space=0,merge=1,delta=2,group=1
    49                           	psect	text33,local,class=CODE,space=0,merge=1,delta=2,group=1
    50                           	psect	text34,local,class=CODE,space=0,merge=1,delta=2
    51                           	psect	text35,local,class=CODE,space=0,merge=1,delta=2
    52                           	psect	text36,local,class=CODE,space=0,merge=1,delta=2
    53                           	psect	text37,local,class=CODE,space=0,merge=1,delta=2
    54                           	psect	text38,local,class=CODE,space=0,merge=1,delta=2
    55                           	psect	text39,local,class=CODE,space=0,merge=1,delta=2
    56                           	psect	text40,local,class=CODE,space=0,merge=1,delta=2
    57                           	psect	text41,local,class=CODE,space=0,merge=1,delta=2,group=1
    58                           	psect	text42,local,class=CODE,space=0,merge=1,delta=2,group=1
    59                           	psect	text43,local,class=CODE,space=0,merge=1,delta=2,group=1
    60                           	psect	text44,local,class=CODE,space=0,merge=1,delta=2,group=1
    61                           	psect	text45,local,class=CODE,space=0,merge=1,delta=2
    62                           	psect	text46,local,class=CODE,space=0,merge=1,delta=2
    63                           	psect	text47,local,class=CODE,space=0,merge=1,delta=2
    64                           	psect	text48,local,class=CODE,space=0,merge=1,delta=2
    65                           	psect	text49,local,class=CODE,space=0,merge=1,delta=2
    66                           	psect	config,global,abs,ovrld,class=CONFIG,space=4,delta=2,noexec
    67                           	dabs	1,0x7E,2
    68     0000                     
    69                           ; Generated 12/10/2023 GMT
    70                           ; 
    71                           ; Copyright © 2023, Microchip Technology Inc. and its subsidiaries ("Microchip")
    72                           ; All rights reserved.
    73                           ; 
    74                           ; This software is developed by Microchip Technology Inc. and its subsidiaries ("Microch
      +                          ip").
    75                           ; 
    76                           ; Redistribution and use in source and binary forms, with or without modification, are
    77                           ; permitted provided that the following conditions are met:
    78                           ; 
    79                           ;     1. Redistributions of source code must retain the above copyright notice, this lis
      +                          t of
    80                           ;        conditions and the following disclaimer.
    81                           ; 
    82                           ;     2. Redistributions in binary form must reproduce the above copyright notice, this 
      +                          list
    83                           ;        of conditions and the following disclaimer in the documentation and/or other
    84                           ;        materials provided with the distribution. Publication is not required when
    85                           ;        this file is used in an embedded application.
    86                           ; 
    87                           ;     3. Microchip's name may not be used to endorse or promote products derived from th
      +                          is
    88                           ;        software without specific prior written permission.
    89                           ; 
    90                           ; THIS SOFTWARE IS PROVIDED BY MICROCHIP "AS IS" AND ANY EXPRESS OR IMPLIED WARRANTIES,
    91                           ; INCLUDING, BUT NOT LIMITED TO, THE IMPLIED WARRANTIES OF MERCHANTABILITY AND FITNESS F
      +                          OR
    92                           ; PURPOSE ARE DISCLAIMED.  IN NO EVENT SHALL MICROCHIP BE LIABLE FOR ANY DIRECT, INDIREC
      +                          T,
    93                           ; INCIDENTAL, SPECIAL, EXEMPLARY, OR CONSEQUENTIAL DAMAGES (INCLUDING BUT NOT LIMITED TO
    94                           ; PROCUREMENT OF SUBSTITUTE GOODS OR SERVICES; LOSS OF USE, DATA OR PROFITS; OR BUSINESS
    95                           ; INTERRUPTION) HOWSOEVER CAUSED AND ON ANY THEORY OF LIABILITY, WHETHER IN CONTRACT, ST
      +                          RICT
    96                           ; LIABILITY, OR TORT (INCLUDING NEGLIGENCE OR OTHERWISE) ARISING IN ANY WAY OUT OF THE U
      +                          SE OF
    97                           ; THIS SOFTWARE, EVEN IF ADVISED OF THE POSSIBILITY OF SUCH DAMAGE.
    98                           ; 
    99                           ; 
   100                           ; Code-generator required, PIC16F887 Definitions
   101                           ; 
   102                           ; SFR Addresses
   103     0004                     fsr             equ	4
   104     0004                     fsr0            equ	4
   105     0000                     indf            equ	0
   106     0000                     indf0           equ	0
   107     0002                     pc              equ	2
   108     0002                     pcl             equ	2
   109     000A                     pclath          equ	10
   110     0003                     status          equ	3
   111     0000                     INDF            equ	0	;# 
   112     0001                     TMR0            equ	1	;# 
   113     0002                     PCL             equ	2	;# 
   114     0003                     STATUS          equ	3	;# 
   115     0004                     FSR             equ	4	;# 
   116     0005                     PORTA           equ	5	;# 
   117     0006                     PORTB           equ	6	;# 
   118     0007                     PORTC           equ	7	;# 
   119     0008                     PORTD           equ	8	;# 
   120     0009                     PORTE           equ	9	;# 
   121     000A                     PCLATH          equ	10	;# 
   122     000B                     INTCON          equ	11	;# 
   123     000C                     PIR1            equ	12	;# 
   124     000D                     PIR2            equ	13	;# 
   125     000E                     TMR1            equ	14	;# 
   126     000E                     TMR1L           equ	14	;# 
   127     000F                     TMR1H           equ	15	;# 
   128     0010                     T1CON           equ	16	;# 
   129     0011                     TMR2            equ	17	;# 
   130     0012                     T2CON           equ	18	;# 
   131     0013                     SSPBUF          equ	19	;# 
   132     0014                     SSPCON          equ	20	;# 
   133     0015                     CCPR1           equ	21	;# 
   134     0015                     CCPR1L          equ	21	;# 
   135     0016                     CCPR1H          equ	22	;# 
   136     0017                     CCP1CON         equ	23	;# 
   137     0018                     RCSTA           equ	24	;# 
   138     0019                     TXREG           equ	25	;# 
   139     001A                     RCREG           equ	26	;# 
   140     001B                     CCPR2           equ	27	;# 
   141     001B                     CCPR2L          equ	27	;# 
   142     001C                     CCPR2H          equ	28	;# 
   143     001D                     CCP2CON         equ	29	;# 
   144     001E                     ADRESH          equ	30	;# 
   145     001F                     ADCON0          equ	31	;# 
   146     0081                     OPTION_REG      equ	129	;# 
   147     0085                     TRISA           equ	133	;# 
   148     0086                     TRISB           equ	134	;# 
   149     0087                     TRISC           equ	135	;# 
   150     0088                     TRISD           equ	136	;# 
   151     0089                     TRISE           equ	137	;# 
   152     008C                     PIE1            equ	140	;# 
   153     008D                     PIE2            equ	141	;# 
   154     008E                     PCON            equ	142	;# 
   155     008F                     OSCCON          equ	143	;# 
   156     0090                     OSCTUNE         equ	144	;# 
   157     0091                     SSPCON2         equ	145	;# 
   158     0092                     PR2             equ	146	;# 
   159     0093                     SSPADD          equ	147	;# 
   160     0093                     SSPMSK          equ	147	;# 
   161     0093                     MSK             equ	147	;# 
   162     0094                     SSPSTAT         equ	148	;# 
   163     0095                     WPUB            equ	149	;# 
   164     0096                     IOCB            equ	150	;# 
   165     0097                     VRCON           equ	151	;# 
   166     0098                     TXSTA           equ	152	;# 
   167     0099                     SPBRG           equ	153	;# 
   168     009A                     SPBRGH          equ	154	;# 
   169     009B                     PWM1CON         equ	155	;# 
   170     009C                     ECCPAS          equ	156	;# 
   171     009D                     PSTRCON         equ	157	;# 
   172     009E                     ADRESL          equ	158	;# 
   173     009F                     ADCON1          equ	159	;# 
   174     0105                     WDTCON          equ	261	;# 
   175     0107                     CM1CON0         equ	263	;# 
   176     0108                     CM2CON0         equ	264	;# 
   177     0109                     CM2CON1         equ	265	;# 
   178     010C                     EEDATA          equ	268	;# 
   179     010C                     EEDAT           equ	268	;# 
   180     010D                     EEADR           equ	269	;# 
   181     010E                     EEDATH          equ	270	;# 
   182     010F                     EEADRH          equ	271	;# 
   183     0185                     SRCON           equ	389	;# 
   184     0187                     BAUDCTL         equ	391	;# 
   185     0188                     ANSEL           equ	392	;# 
   186     0189                     ANSELH          equ	393	;# 
   187     018C                     EECON1          equ	396	;# 
   188     018D                     EECON2          equ	397	;# 
   189     0000                     INDF            equ	0	;# 
   190     0001                     TMR0            equ	1	;# 
   191     0002                     PCL             equ	2	;# 
   192     0003                     STATUS          equ	3	;# 
   193     0004                     FSR             equ	4	;# 
   194     0005                     PORTA           equ	5	;# 
   195     0006                     PORTB           equ	6	;# 
   196     0007                     PORTC           equ	7	;# 
   197     0008                     PORTD           equ	8	;# 
   198     0009                     PORTE           equ	9	;# 
   199     000A                     PCLATH          equ	10	;# 
   200     000B                     INTCON          equ	11	;# 
   201     000C                     PIR1            equ	12	;# 
   202     000D                     PIR2            equ	13	;# 
   203     000E                     TMR1            equ	14	;# 
   204     000E                     TMR1L           equ	14	;# 
   205     000F                     TMR1H           equ	15	;# 
   206     0010                     T1CON           equ	16	;# 
   207     0011                     TMR2            equ	17	;# 
   208     0012                     T2CON           equ	18	;# 
   209     0013                     SSPBUF          equ	19	;# 
   210     0014                     SSPCON          equ	20	;# 
   211     0015                     CCPR1           equ	21	;# 
   212     0015                     CCPR1L          equ	21	;# 
   213     0016                     CCPR1H          equ	22	;# 
   214     0017                     CCP1CON         equ	23	;# 
   215     0018                     RCSTA           equ	24	;# 
   216     0019                     TXREG           equ	25	;# 
   217     001A                     RCREG           equ	26	;# 
   218     001B                     CCPR2           equ	27	;# 
   219     001B                     CCPR2L          equ	27	;# 
   220     001C                     CCPR2H          equ	28	;# 
   221     001D                     CCP2CON         equ	29	;# 
   222     001E                     ADRESH          equ	30	;# 
   223     001F                     ADCON0          equ	31	;# 
   224     0081                     OPTION_REG      equ	129	;# 
   225     0085                     TRISA           equ	133	;# 
   226     0086                     TRISB           equ	134	;# 
   227     0087                     TRISC           equ	135	;# 
   228     0088                     TRISD           equ	136	;# 
   229     0089                     TRISE           equ	137	;# 
   230     008C                     PIE1            equ	140	;# 
   231     008D                     PIE2            equ	141	;# 
   232     008E                     PCON            equ	142	;# 
   233     008F                     OSCCON          equ	143	;# 
   234     0090                     OSCTUNE         equ	144	;# 
   235     0091                     SSPCON2         equ	145	;# 
   236     0092                     PR2             equ	146	;# 
   237     0093                     SSPADD          equ	147	;# 
   238     0093                     SSPMSK          equ	147	;# 
   239     0093                     MSK             equ	147	;# 
   240     0094                     SSPSTAT         equ	148	;# 
   241     0095                     WPUB            equ	149	;# 
   242     0096                     IOCB            equ	150	;# 
   243     0097                     VRCON           equ	151	;# 
   244     0098                     TXSTA           equ	152	;# 
   245     0099                     SPBRG           equ	153	;# 
   246     009A                     SPBRGH          equ	154	;# 
   247     009B                     PWM1CON         equ	155	;# 
   248     009C                     ECCPAS          equ	156	;# 
   249     009D                     PSTRCON         equ	157	;# 
   250     009E                     ADRESL          equ	158	;# 
   251     009F                     ADCON1          equ	159	;# 
   252     0105                     WDTCON          equ	261	;# 
   253     0107                     CM1CON0         equ	263	;# 
   254     0108                     CM2CON0         equ	264	;# 
   255     0109                     CM2CON1         equ	265	;# 
   256     010C                     EEDATA          equ	268	;# 
   257     010C                     EEDAT           equ	268	;# 
   258     010D                     EEADR           equ	269	;# 
   259     010E                     EEDATH          equ	270	;# 
   260     010F                     EEADRH          equ	271	;# 
   261     0185                     SRCON           equ	389	;# 
   262     0187                     BAUDCTL         equ	391	;# 
   263     0188                     ANSEL           equ	392	;# 
   264     0189                     ANSELH          equ	393	;# 
   265     018C                     EECON1          equ	396	;# 
   266     018D                     EECON2          equ	397	;# 
   267     0000                     INDF            equ	0	;# 
   268     0001                     TMR0            equ	1	;# 
   269     0002                     PCL             equ	2	;# 
   270     0003                     STATUS          equ	3	;# 
   271     0004                     FSR             equ	4	;# 
   272     0005                     PORTA           equ	5	;# 
   273     0006                     PORTB           equ	6	;# 
   274     0007                     PORTC           equ	7	;# 
   275     0008                     PORTD           equ	8	;# 
   276     0009                     PORTE           equ	9	;# 
   277     000A                     PCLATH          equ	10	;# 
   278     000B                     INTCON          equ	11	;# 
   279     000C                     PIR1            equ	12	;# 
   280     000D                     PIR2            equ	13	;# 
   281     000E                     TMR1            equ	14	;# 
   282     000E                     TMR1L           equ	14	;# 
   283     000F                     TMR1H           equ	15	;# 
   284     0010                     T1CON           equ	16	;# 
   285     0011                     TMR2            equ	17	;# 
   286     0012                     T2CON           equ	18	;# 
   287     0013                     SSPBUF          equ	19	;# 
   288     0014                     SSPCON          equ	20	;# 
   289     0015                     CCPR1           equ	21	;# 
   290     0015                     CCPR1L          equ	21	;# 
   291     0016                     CCPR1H          equ	22	;# 
   292     0017                     CCP1CON         equ	23	;# 
   293     0018                     RCSTA           equ	24	;# 
   294     0019                     TXREG           equ	25	;# 
   295     001A                     RCREG           equ	26	;# 
   296     001B                     CCPR2           equ	27	;# 
   297     001B                     CCPR2L          equ	27	;# 
   298     001C                     CCPR2H          equ	28	;# 
   299     001D                     CCP2CON         equ	29	;# 
   300     001E                     ADRESH          equ	30	;# 
   301     001F                     ADCON0          equ	31	;# 
   302     0081                     OPTION_REG      equ	129	;# 
   303     0085                     TRISA           equ	133	;# 
   304     0086                     TRISB           equ	134	;# 
   305     0087                     TRISC           equ	135	;# 
   306     0088                     TRISD           equ	136	;# 
   307     0089                     TRISE           equ	137	;# 
   308     008C                     PIE1            equ	140	;# 
   309     008D                     PIE2            equ	141	;# 
   310     008E                     PCON            equ	142	;# 
   311     008F                     OSCCON          equ	143	;# 
   312     0090                     OSCTUNE         equ	144	;# 
   313     0091                     SSPCON2         equ	145	;# 
   314     0092                     PR2             equ	146	;# 
   315     0093                     SSPADD          equ	147	;# 
   316     0093                     SSPMSK          equ	147	;# 
   317     0093                     MSK             equ	147	;# 
   318     0094                     SSPSTAT         equ	148	;# 
   319     0095                     WPUB            equ	149	;# 
   320     0096                     IOCB            equ	150	;# 
   321     0097                     VRCON           equ	151	;# 
   322     0098                     TXSTA           equ	152	;# 
   323     0099                     SPBRG           equ	153	;# 
   324     009A                     SPBRGH          equ	154	;# 
   325     009B                     PWM1CON         equ	155	;# 
   326     009C                     ECCPAS          equ	156	;# 
   327     009D                     PSTRCON         equ	157	;# 
   328     009E                     ADRESL          equ	158	;# 
   329     009F                     ADCON1          equ	159	;# 
   330     0105                     WDTCON          equ	261	;# 
   331     0107                     CM1CON0         equ	263	;# 
   332     0108                     CM2CON0         equ	264	;# 
   333     0109                     CM2CON1         equ	265	;# 
   334     010C                     EEDATA          equ	268	;# 
   335     010C                     EEDAT           equ	268	;# 
   336     010D                     EEADR           equ	269	;# 
   337     010E                     EEDATH          equ	270	;# 
   338     010F                     EEADRH          equ	271	;# 
   339     0185                     SRCON           equ	389	;# 
   340     0187                     BAUDCTL         equ	391	;# 
   341     0188                     ANSEL           equ	392	;# 
   342     0189                     ANSELH          equ	393	;# 
   343     018C                     EECON1          equ	396	;# 
   344     018D                     EECON2          equ	397	;# 
   345     0000                     INDF            equ	0	;# 
   346     0001                     TMR0            equ	1	;# 
   347     0002                     PCL             equ	2	;# 
   348     0003                     STATUS          equ	3	;# 
   349     0004                     FSR             equ	4	;# 
   350     0005                     PORTA           equ	5	;# 
   351     0006                     PORTB           equ	6	;# 
   352     0007                     PORTC           equ	7	;# 
   353     0008                     PORTD           equ	8	;# 
   354     0009                     PORTE           equ	9	;# 
   355     000A                     PCLATH          equ	10	;# 
   356     000B                     INTCON          equ	11	;# 
   357     000C                     PIR1            equ	12	;# 
   358     000D                     PIR2            equ	13	;# 
   359     000E                     TMR1            equ	14	;# 
   360     000E                     TMR1L           equ	14	;# 
   361     000F                     TMR1H           equ	15	;# 
   362     0010                     T1CON           equ	16	;# 
   363     0011                     TMR2            equ	17	;# 
   364     0012                     T2CON           equ	18	;# 
   365     0013                     SSPBUF          equ	19	;# 
   366     0014                     SSPCON          equ	20	;# 
   367     0015                     CCPR1           equ	21	;# 
   368     0015                     CCPR1L          equ	21	;# 
   369     0016                     CCPR1H          equ	22	;# 
   370     0017                     CCP1CON         equ	23	;# 
   371     0018                     RCSTA           equ	24	;# 
   372     0019                     TXREG           equ	25	;# 
   373     001A                     RCREG           equ	26	;# 
   374     001B                     CCPR2           equ	27	;# 
   375     001B                     CCPR2L          equ	27	;# 
   376     001C                     CCPR2H          equ	28	;# 
   377     001D                     CCP2CON         equ	29	;# 
   378     001E                     ADRESH          equ	30	;# 
   379     001F                     ADCON0          equ	31	;# 
   380     0081                     OPTION_REG      equ	129	;# 
   381     0085                     TRISA           equ	133	;# 
   382     0086                     TRISB           equ	134	;# 
   383     0087                     TRISC           equ	135	;# 
   384     0088                     TRISD           equ	136	;# 
   385     0089                     TRISE           equ	137	;# 
   386     008C                     PIE1            equ	140	;# 
   387     008D                     PIE2            equ	141	;# 
   388     008E                     PCON            equ	142	;# 
   389     008F                     OSCCON          equ	143	;# 
   390     0090                     OSCTUNE         equ	144	;# 
   391     0091                     SSPCON2         equ	145	;# 
   392     0092                     PR2             equ	146	;# 
   393     0093                     SSPADD          equ	147	;# 
   394     0093                     SSPMSK          equ	147	;# 
   395     0093                     MSK             equ	147	;# 
   396     0094                     SSPSTAT         equ	148	;# 
   397     0095                     WPUB            equ	149	;# 
   398     0096                     IOCB            equ	150	;# 
   399     0097                     VRCON           equ	151	;# 
   400     0098                     TXSTA           equ	152	;# 
   401     0099                     SPBRG           equ	153	;# 
   402     009A                     SPBRGH          equ	154	;# 
   403     009B                     PWM1CON         equ	155	;# 
   404     009C                     ECCPAS          equ	156	;# 
   405     009D                     PSTRCON         equ	157	;# 
   406     009E                     ADRESL          equ	158	;# 
   407     009F                     ADCON1          equ	159	;# 
   408     0105                     WDTCON          equ	261	;# 
   409     0107                     CM1CON0         equ	263	;# 
   410     0108                     CM2CON0         equ	264	;# 
   411     0109                     CM2CON1         equ	265	;# 
   412     010C                     EEDATA          equ	268	;# 
   413     010C                     EEDAT           equ	268	;# 
   414     010D                     EEADR           equ	269	;# 
   415     010E                     EEDATH          equ	270	;# 
   416     010F                     EEADRH          equ	271	;# 
   417     0185                     SRCON           equ	389	;# 
   418     0187                     BAUDCTL         equ	391	;# 
   419     0188                     ANSEL           equ	392	;# 
   420     0189                     ANSELH          equ	393	;# 
   421     018C                     EECON1          equ	396	;# 
   422     018D                     EECON2          equ	397	;# 
   423     0000                     INDF            equ	0	;# 
   424     0001                     TMR0            equ	1	;# 
   425     0002                     PCL             equ	2	;# 
   426     0003                     STATUS          equ	3	;# 
   427     0004                     FSR             equ	4	;# 
   428     0005                     PORTA           equ	5	;# 
   429     0006                     PORTB           equ	6	;# 
   430     0007                     PORTC           equ	7	;# 
   431     0008                     PORTD           equ	8	;# 
   432     0009                     PORTE           equ	9	;# 
   433     000A                     PCLATH          equ	10	;# 
   434     000B                     INTCON          equ	11	;# 
   435     000C                     PIR1            equ	12	;# 
   436     000D                     PIR2            equ	13	;# 
   437     000E                     TMR1            equ	14	;# 
   438     000E                     TMR1L           equ	14	;# 
   439     000F                     TMR1H           equ	15	;# 
   440     0010                     T1CON           equ	16	;# 
   441     0011                     TMR2            equ	17	;# 
   442     0012                     T2CON           equ	18	;# 
   443     0013                     SSPBUF          equ	19	;# 
   444     0014                     SSPCON          equ	20	;# 
   445     0015                     CCPR1           equ	21	;# 
   446     0015                     CCPR1L          equ	21	;# 
   447     0016                     CCPR1H          equ	22	;# 
   448     0017                     CCP1CON         equ	23	;# 
   449     0018                     RCSTA           equ	24	;# 
   450     0019                     TXREG           equ	25	;# 
   451     001A                     RCREG           equ	26	;# 
   452     001B                     CCPR2           equ	27	;# 
   453     001B                     CCPR2L          equ	27	;# 
   454     001C                     CCPR2H          equ	28	;# 
   455     001D                     CCP2CON         equ	29	;# 
   456     001E                     ADRESH          equ	30	;# 
   457     001F                     ADCON0          equ	31	;# 
   458     0081                     OPTION_REG      equ	129	;# 
   459     0085                     TRISA           equ	133	;# 
   460     0086                     TRISB           equ	134	;# 
   461     0087                     TRISC           equ	135	;# 
   462     0088                     TRISD           equ	136	;# 
   463     0089                     TRISE           equ	137	;# 
   464     008C                     PIE1            equ	140	;# 
   465     008D                     PIE2            equ	141	;# 
   466     008E                     PCON            equ	142	;# 
   467     008F                     OSCCON          equ	143	;# 
   468     0090                     OSCTUNE         equ	144	;# 
   469     0091                     SSPCON2         equ	145	;# 
   470     0092                     PR2             equ	146	;# 
   471     0093                     SSPADD          equ	147	;# 
   472     0093                     SSPMSK          equ	147	;# 
   473     0093                     MSK             equ	147	;# 
   474     0094                     SSPSTAT         equ	148	;# 
   475     0095                     WPUB            equ	149	;# 
   476     0096                     IOCB            equ	150	;# 
   477     0097                     VRCON           equ	151	;# 
   478     0098                     TXSTA           equ	152	;# 
   479     0099                     SPBRG           equ	153	;# 
   480     009A                     SPBRGH          equ	154	;# 
   481     009B                     PWM1CON         equ	155	;# 
   482     009C                     ECCPAS          equ	156	;# 
   483     009D                     PSTRCON         equ	157	;# 
   484     009E                     ADRESL          equ	158	;# 
   485     009F                     ADCON1          equ	159	;# 
   486     0105                     WDTCON          equ	261	;# 
   487     0107                     CM1CON0         equ	263	;# 
   488     0108                     CM2CON0         equ	264	;# 
   489     0109                     CM2CON1         equ	265	;# 
   490     010C                     EEDATA          equ	268	;# 
   491     010C                     EEDAT           equ	268	;# 
   492     010D                     EEADR           equ	269	;# 
   493     010E                     EEDATH          equ	270	;# 
   494     010F                     EEADRH          equ	271	;# 
   495     0185                     SRCON           equ	389	;# 
   496     0187                     BAUDCTL         equ	391	;# 
   497     0188                     ANSEL           equ	392	;# 
   498     0189                     ANSELH          equ	393	;# 
   499     018C                     EECON1          equ	396	;# 
   500     018D                     EECON2          equ	397	;# 
   501     0000                     INDF            equ	0	;# 
   502     0001                     TMR0            equ	1	;# 
   503     0002                     PCL             equ	2	;# 
   504     0003                     STATUS          equ	3	;# 
   505     0004                     FSR             equ	4	;# 
   506     0005                     PORTA           equ	5	;# 
   507     0006                     PORTB           equ	6	;# 
   508     0007                     PORTC           equ	7	;# 
   509     0008                     PORTD           equ	8	;# 
   510     0009                     PORTE           equ	9	;# 
   511     000A                     PCLATH          equ	10	;# 
   512     000B                     INTCON          equ	11	;# 
   513     000C                     PIR1            equ	12	;# 
   514     000D                     PIR2            equ	13	;# 
   515     000E                     TMR1            equ	14	;# 
   516     000E                     TMR1L           equ	14	;# 
   517     000F                     TMR1H           equ	15	;# 
   518     0010                     T1CON           equ	16	;# 
   519     0011                     TMR2            equ	17	;# 
   520     0012                     T2CON           equ	18	;# 
   521     0013                     SSPBUF          equ	19	;# 
   522     0014                     SSPCON          equ	20	;# 
   523     0015                     CCPR1           equ	21	;# 
   524     0015                     CCPR1L          equ	21	;# 
   525     0016                     CCPR1H          equ	22	;# 
   526     0017                     CCP1CON         equ	23	;# 
   527     0018                     RCSTA           equ	24	;# 
   528     0019                     TXREG           equ	25	;# 
   529     001A                     RCREG           equ	26	;# 
   530     001B                     CCPR2           equ	27	;# 
   531     001B                     CCPR2L          equ	27	;# 
   532     001C                     CCPR2H          equ	28	;# 
   533     001D                     CCP2CON         equ	29	;# 
   534     001E                     ADRESH          equ	30	;# 
   535     001F                     ADCON0          equ	31	;# 
   536     0081                     OPTION_REG      equ	129	;# 
   537     0085                     TRISA           equ	133	;# 
   538     0086                     TRISB           equ	134	;# 
   539     0087                     TRISC           equ	135	;# 
   540     0088                     TRISD           equ	136	;# 
   541     0089                     TRISE           equ	137	;# 
   542     008C                     PIE1            equ	140	;# 
   543     008D                     PIE2            equ	141	;# 
   544     008E                     PCON            equ	142	;# 
   545     008F                     OSCCON          equ	143	;# 
   546     0090                     OSCTUNE         equ	144	;# 
   547     0091                     SSPCON2         equ	145	;# 
   548     0092                     PR2             equ	146	;# 
   549     0093                     SSPADD          equ	147	;# 
   550     0093                     SSPMSK          equ	147	;# 
   551     0093                     MSK             equ	147	;# 
   552     0094                     SSPSTAT         equ	148	;# 
   553     0095                     WPUB            equ	149	;# 
   554     0096                     IOCB            equ	150	;# 
   555     0097                     VRCON           equ	151	;# 
   556     0098                     TXSTA           equ	152	;# 
   557     0099                     SPBRG           equ	153	;# 
   558     009A                     SPBRGH          equ	154	;# 
   559     009B                     PWM1CON         equ	155	;# 
   560     009C                     ECCPAS          equ	156	;# 
   561     009D                     PSTRCON         equ	157	;# 
   562     009E                     ADRESL          equ	158	;# 
   563     009F                     ADCON1          equ	159	;# 
   564     0105                     WDTCON          equ	261	;# 
   565     0107                     CM1CON0         equ	263	;# 
   566     0108                     CM2CON0         equ	264	;# 
   567     0109                     CM2CON1         equ	265	;# 
   568     010C                     EEDATA          equ	268	;# 
   569     010C                     EEDAT           equ	268	;# 
   570     010D                     EEADR           equ	269	;# 
   571     010E                     EEDATH          equ	270	;# 
   572     010F                     EEADRH          equ	271	;# 
   573     0185                     SRCON           equ	389	;# 
   574     0187                     BAUDCTL         equ	391	;# 
   575     0188                     ANSEL           equ	392	;# 
   576     0189                     ANSELH          equ	393	;# 
   577     018C                     EECON1          equ	396	;# 
   578     018D                     EECON2          equ	397	;# 
   579     0000                     INDF            equ	0	;# 
   580     0001                     TMR0            equ	1	;# 
   581     0002                     PCL             equ	2	;# 
   582     0003                     STATUS          equ	3	;# 
   583     0004                     FSR             equ	4	;# 
   584     0005                     PORTA           equ	5	;# 
   585     0006                     PORTB           equ	6	;# 
   586     0007                     PORTC           equ	7	;# 
   587     0008                     PORTD           equ	8	;# 
   588     0009                     PORTE           equ	9	;# 
   589     000A                     PCLATH          equ	10	;# 
   590     000B                     INTCON          equ	11	;# 
   591     000C                     PIR1            equ	12	;# 
   592     000D                     PIR2            equ	13	;# 
   593     000E                     TMR1            equ	14	;# 
   594     000E                     TMR1L           equ	14	;# 
   595     000F                     TMR1H           equ	15	;# 
   596     0010                     T1CON           equ	16	;# 
   597     0011                     TMR2            equ	17	;# 
   598     0012                     T2CON           equ	18	;# 
   599     0013                     SSPBUF          equ	19	;# 
   600     0014                     SSPCON          equ	20	;# 
   601     0015                     CCPR1           equ	21	;# 
   602     0015                     CCPR1L          equ	21	;# 
   603     0016                     CCPR1H          equ	22	;# 
   604     0017                     CCP1CON         equ	23	;# 
   605     0018                     RCSTA           equ	24	;# 
   606     0019                     TXREG           equ	25	;# 
   607     001A                     RCREG           equ	26	;# 
   608     001B                     CCPR2           equ	27	;# 
   609     001B                     CCPR2L          equ	27	;# 
   610     001C                     CCPR2H          equ	28	;# 
   611     001D                     CCP2CON         equ	29	;# 
   612     001E                     ADRESH          equ	30	;# 
   613     001F                     ADCON0          equ	31	;# 
   614     0081                     OPTION_REG      equ	129	;# 
   615     0085                     TRISA           equ	133	;# 
   616     0086                     TRISB           equ	134	;# 
   617     0087                     TRISC           equ	135	;# 
   618     0088                     TRISD           equ	136	;# 
   619     0089                     TRISE           equ	137	;# 
   620     008C                     PIE1            equ	140	;# 
   621     008D                     PIE2            equ	141	;# 
   622     008E                     PCON            equ	142	;# 
   623     008F                     OSCCON          equ	143	;# 
   624     0090                     OSCTUNE         equ	144	;# 
   625     0091                     SSPCON2         equ	145	;# 
   626     0092                     PR2             equ	146	;# 
   627     0093                     SSPADD          equ	147	;# 
   628     0093                     SSPMSK          equ	147	;# 
   629     0093                     MSK             equ	147	;# 
   630     0094                     SSPSTAT         equ	148	;# 
   631     0095                     WPUB            equ	149	;# 
   632     0096                     IOCB            equ	150	;# 
   633     0097                     VRCON           equ	151	;# 
   634     0098                     TXSTA           equ	152	;# 
   635     0099                     SPBRG           equ	153	;# 
   636     009A                     SPBRGH          equ	154	;# 
   637     009B                     PWM1CON         equ	155	;# 
   638     009C                     ECCPAS          equ	156	;# 
   639     009D                     PSTRCON         equ	157	;# 
   640     009E                     ADRESL          equ	158	;# 
   641     009F                     ADCON1          equ	159	;# 
   642     0105                     WDTCON          equ	261	;# 
   643     0107                     CM1CON0         equ	263	;# 
   644     0108                     CM2CON0         equ	264	;# 
   645     0109                     CM2CON1         equ	265	;# 
   646     010C                     EEDATA          equ	268	;# 
   647     010C                     EEDAT           equ	268	;# 
   648     010D                     EEADR           equ	269	;# 
   649     010E                     EEDATH          equ	270	;# 
   650     010F                     EEADRH          equ	271	;# 
   651     0185                     SRCON           equ	389	;# 
   652     0187                     BAUDCTL         equ	391	;# 
   653     0188                     ANSEL           equ	392	;# 
   654     0189                     ANSELH          equ	393	;# 
   655     018C                     EECON1          equ	396	;# 
   656     018D                     EECON2          equ	397	;# 
   657                           
   658                           	psect	idataBANK1
   659     1000                     __pidataBANK1:
   660                           
   661                           ;initializer for main@min_prev
   662     1000  34FF               	retlw	255
   663                           
   664                           ;initializer for LeerBoton@prev
   665     1001  3401               	retlw	1
   666                           
   667                           	psect	idataBANK3
   668     1A21                     __pidataBANK3:
   669                           
   670                           ;initializer for _sector_actual
   671     1A21  34E8               	retlw	232
   672     1A22  3403               	retlw	3
   673     1A23  3400               	retlw	0
   674     1A24  3400               	retlw	0
   675     0005                     _PORTAbits      set	5
   676     0006                     _PORTBbits      set	6
   677     0007                     _PORTCbits      set	7
   678     0008                     _PORTDbits      set	8
   679     0085                     _TRISAbits      set	133
   680     0086                     _TRISBbits      set	134
   681     0087                     _TRISCbits      set	135
   682     0088                     _TRISDbits      set	136
   683     0189                     _ANSELH         set	393
   684     0188                     _ANSEL          set	392
   685                           
   686                           	psect	strings
   687     0003                     __pstrings:
   688     0003                     stringtab:
   689     0003                     __stringtab:
   690                           
   691                           ;	String table - string pointers are 1 byte each
   692     0003  1BFF               	btfsc	btemp+1,7
   693     0004  280D               	ljmp	stringcode
   694     0005  1383               	bcf	3,7
   695     0006  187F               	btfsc	btemp+1,0
   696     0007  1783               	bsf	3,7
   697     0008  0800               	movf	0,w
   698     0009  0A84               	incf	4,f
   699     000A  1903               	skipnz
   700     000B  0AFF               	incf	btemp+1,f
   701     000C  0008               	return
   702     000D                     stringcode:
   703     000D                     stringdir:
   704     000D  3000               	movlw	high stringdir
   705     000E  008A               	movwf	10
   706     000F  0804               	movf	4,w
   707     0010  0A84               	incf	4,f
   708     0011  0782               	addwf	2,f
   709     0012                     __stringbase:
   710     0012  3400               	retlw	0
   711     0013                     __end_of__stringtab:
   712     0013                     STR_12:
   713     0013  3446               	retlw	70	;'F'
   714     0014  3465               	retlw	101	;'e'
   715     0015  3463               	retlw	99	;'c'
   716     0016  3468               	retlw	104	;'h'
   717     0017  3461               	retlw	97	;'a'
   718     0018  342C               	retlw	44	;','
   719     0019  3448               	retlw	72	;'H'
   720     001A  346F               	retlw	111	;'o'
   721     001B  3472               	retlw	114	;'r'
   722     001C  3461               	retlw	97	;'a'
   723     001D  342C               	retlw	44	;','
   724     001E  3454               	retlw	84	;'T'
   725     001F  3465               	retlw	101	;'e'
   726     0020  346D               	retlw	109	;'m'
   727     0021  3470               	retlw	112	;'p'
   728     0022  342C               	retlw	44	;','
   729     0023  3448               	retlw	72	;'H'
   730     0024  3475               	retlw	117	;'u'
   731     0025  346D               	retlw	109	;'m'
   732     0026  340D               	retlw	13
   733     0027  340A               	retlw	10
   734     0028  3400               	retlw	0
   735     0029                     STR_9:
   736     0029  3449               	retlw	73	;'I'
   737     002A  346E               	retlw	110	;'n'
   738     002B  3469               	retlw	105	;'i'
   739     002C  3463               	retlw	99	;'c'
   740     002D  3469               	retlw	105	;'i'
   741     002E  3461               	retlw	97	;'a'
   742     002F  346E               	retlw	110	;'n'
   743     0030  3464               	retlw	100	;'d'
   744     0031  346F               	retlw	111	;'o'
   745     0032  342E               	retlw	46	;'.'
   746     0033  342E               	retlw	46	;'.'
   747     0034  342E               	retlw	46	;'.'
   748     0035  3400               	retlw	0
   749     0036                     STR_13:
   750     0036  3453               	retlw	83	;'S'
   751     0037  3444               	retlw	68	;'D'
   752     0038  3420               	retlw	32	;' '
   753     0039  3445               	retlw	69	;'E'
   754     003A  3472               	retlw	114	;'r'
   755     003B  3472               	retlw	114	;'r'
   756     003C  346F               	retlw	111	;'o'
   757     003D  3472               	retlw	114	;'r'
   758     003E  3421               	retlw	33	;'!'
   759     003F  3400               	retlw	0
   760     0040                     STR_11:
   761     0040  3444               	retlw	68	;'D'
   762     0041  3441               	retlw	65	;'A'
   763     0042  3454               	retlw	84	;'T'
   764     0043  3441               	retlw	65	;'A'
   765     0044  342E               	retlw	46	;'.'
   766     0045  3454               	retlw	84	;'T'
   767     0046  3458               	retlw	88	;'X'
   768     0047  3454               	retlw	84	;'T'
   769     0048  3400               	retlw	0
   770     0049                     STR_10:
   771     0049  3453               	retlw	83	;'S'
   772     004A  3444               	retlw	68	;'D'
   773     004B  3420               	retlw	32	;' '
   774     004C  344F               	retlw	79	;'O'
   775     004D  344B               	retlw	75	;'K'
   776     004E  3421               	retlw	33	;'!'
   777     004F  3400               	retlw	0
   778     0050                     STR_7:
   779     0050  344D               	retlw	77	;'M'
   780     0051  3465               	retlw	101	;'e'
   781     0052  3464               	retlw	100	;'d'
   782     0053  3469               	retlw	105	;'i'
   783     0054  3461               	retlw	97	;'a'
   784     0055  343A               	retlw	58	;':'
   785     0056  3400               	retlw	0
   786     0057                     STR_6:
   787     0057  3420               	retlw	32	;' '
   788     0058  344D               	retlw	77	;'M'
   789     0059  3461               	retlw	97	;'a'
   790     005A  3478               	retlw	120	;'x'
   791     005B  343A               	retlw	58	;':'
   792     005C  3400               	retlw	0
   793     005D                     STR_5:
   794     005D  344D               	retlw	77	;'M'
   795     005E  3469               	retlw	105	;'i'
   796     005F  346E               	retlw	110	;'n'
   797     0060  343A               	retlw	58	;':'
   798     0061  3400               	retlw	0
   799     0062                     STR_4:
   800     0062  3425               	retlw	37	;'%'
   801     0063  3420               	retlw	32	;' '
   802     0064  3420               	retlw	32	;' '
   803     0065  3400               	retlw	0
   804     0066                     STR_3:
   805     0066  3420               	retlw	32	;' '
   806     0067  3448               	retlw	72	;'H'
   807     0068  343A               	retlw	58	;':'
   808     0069  3400               	retlw	0
   809     006A                     STR_8:
   810     006A  3420               	retlw	32	;' '
   811     006B  346E               	retlw	110	;'n'
   812     006C  343D               	retlw	61	;'='
   813     006D  3400               	retlw	0
   814     006E                     STR_2:
   815     006E  3454               	retlw	84	;'T'
   816     006F  343A               	retlw	58	;':'
   817     0070  3400               	retlw	0
   818     0040                     STR_14          equ	STR_11
   819     0040                     STR_15          equ	STR_11
   820     0064                     STR_1           equ	STR_4+2
   821                           
   822                           	psect	cinit
   823     07C2                     start_initialization:	
   824                           ; #config settings
   825                           
   826     07C2                     __initialization:
   827                           
   828                           ; Initialize objects allocated to BANK3
   829     07C2  1683               	bsf	3,5	;RP0=1, select bank3
   830     07C3  1703               	bsf	3,6	;RP1=1, select bank3
   831     07C4  160A  158A  2221  120A  118A  	fcall	__pidataBANK3	;fetch initializer
   832     07C9  00BB               	movwf	__pdataBANK3& (0+127)
   833     07CA  160A  158A  2222  120A  118A  	fcall	__pidataBANK3+1	;fetch initializer
   834     07CF  00BC               	movwf	(__pdataBANK3+1)& (0+127)
   835     07D0  160A  158A  2223  120A  118A  	fcall	__pidataBANK3+2	;fetch initializer
   836     07D5  00BD               	movwf	(__pdataBANK3+2)& (0+127)
   837     07D6  160A  158A  2224  120A  118A  	fcall	__pidataBANK3+3	;fetch initializer
   838     07DB  00BE               	movwf	(__pdataBANK3+3)& (0+127)
   839                           
   840                           ; Initialize objects allocated to BANK1
   841     07DC  1683               	bsf	3,5	;RP0=1, select bank1
   842     07DD  1303               	bcf	3,6	;RP1=0, select bank1
   843     07DE  160A  118A  2000  120A  118A  	fcall	__pidataBANK1	;fetch initializer
   844     07E3  00EE               	movwf	__pdataBANK1& (0+127)
   845     07E4  160A  118A  2001  120A  118A  	fcall	__pidataBANK1+1	;fetch initializer
   846     07E9  00EF               	movwf	(__pdataBANK1+1)& (0+127)
   847                           
   848                           ; Clear objects allocated to BANK3
   849     07EA  1783               	bsf	3,7	;select IRP bank2
   850     07EB  3090               	movlw	low __pbssBANK3
   851     07EC  0084               	movwf	4
   852     07ED  30BB               	movlw	low (__pbssBANK3+43)
   853     07EE  160A  158A  222C  120A  118A  	fcall	clear_ram0
   854                           
   855                           ; Clear objects allocated to BANK1
   856     07F3  1383               	bcf	3,7	;select IRP bank0
   857     07F4  30CF               	movlw	low __pbssBANK1
   858     07F5  0084               	movwf	4
   859     07F6  30EE               	movlw	low (__pbssBANK1+31)
   860     07F7  160A  158A  222C  120A  118A  	fcall	clear_ram0
   861     07FC                     end_of_initialization:	
   862                           ;End of C runtime variable initialization code
   863                           
   864     07FC                     __end_of__initialization:
   865     07FC  0183               	clrf	3
   866     07FD  120A  118A  2AC8   	ljmp	_main	;jump to C main() function
   867                           
   868                           	psect	bssBANK1
   869     00CF                     __pbssBANK1:
   870     00CF                     _buffer_temp:
   871     00CF                     	ds	16
   872     00DF                     _stats:
   873     00DF                     	ds	13
   874     00EC                     _buffer_lleno:
   875     00EC                     	ds	1
   876     00ED                     _idx_buffer:
   877     00ED                     	ds	1
   878                           
   879                           	psect	dataBANK1
   880     00EE                     __pdataBANK1:
   881     00EE                     main@min_prev:
   882     00EE                     	ds	1
   883     00EF                     LeerBoton@prev:
   884     00EF                     	ds	1
   885                           
   886                           	psect	bssBANK3
   887     0190                     __pbssBANK3:
   888     0190                     _sistema_archivos:
   889     0190                     	ds	8
   890     0198                     _buffer_datos:
   891     0198                     	ds	35
   892                           
   893                           	psect	dataBANK3
   894     01BB                     __pdataBANK3:
   895     01BB                     _sector_actual:
   896     01BB                     	ds	4
   897                           
   898                           	psect	clrtext
   899     1A2C                     clear_ram0:	
   900                           ;	Called with FSR containing the base address, and
   901                           ;	W with the last address+1
   902                           
   903     1A2C  0064               	clrwdt	;clear the watchdog before getting into this loop
   904     1A2D                     clrloop0:
   905     1A2D  0180               	clrf	0	;clear RAM location pointed to by FSR
   906     1A2E  0A84               	incf	4,f	;increment pointer
   907     1A2F  0604               	xorwf	4,w	;XOR with final address
   908     1A30  1903               	btfsc	3,2	;have we reached the end yet?
   909     1A31  3400               	retlw	0	;all done for this memory range, return
   910     1A32  0604               	xorwf	4,w	;XOR again to restore value
   911     1A33  2A2D               	goto	clrloop0	;do the next byte
   912                           
   913                           	psect	cstackBANK1
   914     00A0                     __pcstackBANK1:
   915     00A0                     ___fltol@sign1:
   916     00A0                     _CalcStats$464:	
   917                           ; 1 bytes @ 0x0
   918                           
   919                           
   920                           ; 2 bytes @ 0x0
   921     00A0                     	ds	1
   922     00A1                     ___fltol@exp1:
   923                           
   924                           ; 1 bytes @ 0x1
   925     00A1                     	ds	1
   926     00A2                     ?_ImprimirTemp:
   927     00A2                     ImprimirTemp@f:	
   928                           ; 1 bytes @ 0x2
   929                           
   930     00A2                     CalcStats@suma:	
   931                           ; 4 bytes @ 0x2
   932                           
   933                           
   934                           ; 4 bytes @ 0x2
   935     00A2                     	ds	4
   936     00A6                     CalcStats@n:
   937     00A6                     ImprimirTemp@v:	
   938                           ; 1 bytes @ 0x6
   939                           
   940                           
   941                           ; 2 bytes @ 0x6
   942     00A6                     	ds	1
   943     00A7                     CalcStats@i:
   944                           
   945                           ; 1 bytes @ 0x7
   946     00A7                     	ds	1
   947     00A8                     ?_MostrarPrincipal:
   948     00A8                     MostrarPrincipal@t:	
   949                           ; 1 bytes @ 0x8
   950                           
   951     00A8                     ??_MostrarStats:	
   952                           ; 2 bytes @ 0x8
   953                           
   954                           
   955                           ; 1 bytes @ 0x8
   956     00A8                     	ds	2
   957     00AA                     MostrarPrincipal@temp:
   958                           
   959                           ; 4 bytes @ 0xA
   960     00AA                     	ds	4
   961     00AE                     MostrarPrincipal@hum:
   962                           
   963                           ; 4 bytes @ 0xE
   964     00AE                     	ds	4
   965     00B2                     ??_MostrarPrincipal:
   966                           
   967                           ; 1 bytes @ 0x12
   968     00B2                     	ds	2
   969     00B4                     ??_main:
   970                           
   971                           ; 1 bytes @ 0x14
   972     00B4                     	ds	3
   973     00B7                     main@sd_ok:
   974                           
   975                           ; 1 bytes @ 0x17
   976     00B7                     	ds	1
   977     00B8                     main@sensor_ok:
   978                           
   979                           ; 1 bytes @ 0x18
   980     00B8                     	ds	1
   981     00B9                     main@cnt:
   982                           
   983                           ; 1 bytes @ 0x19
   984     00B9                     	ds	1
   985     00BA                     main@h10:
   986                           
   987                           ; 2 bytes @ 0x1A
   988     00BA                     	ds	2
   989     00BC                     main@modo:
   990                           
   991                           ; 1 bytes @ 0x1C
   992     00BC                     	ds	1
   993     00BD                     main@t10:
   994                           
   995                           ; 2 bytes @ 0x1D
   996     00BD                     	ds	2
   997     00BF                     main@hum:
   998                           
   999                           ; 4 bytes @ 0x1F
  1000     00BF                     	ds	4
  1001     00C3                     main@temp:
  1002                           
  1003                           ; 4 bytes @ 0x23
  1004     00C3                     	ds	4
  1005     00C7                     main@fecha:
  1006                           
  1007                           ; 7 bytes @ 0x27
  1008     00C7                     	ds	7
  1009     00CE                     main@pos:
  1010                           
  1011                           ; 1 bytes @ 0x2E
  1012     00CE                     	ds	1
  1013                           
  1014                           	psect	cstackCOMMON
  1015     0070                     __pcstackCOMMON:
  1016     0070                     ?_Pantalla_ConfigurarPuerto:
  1017     0070                     ?_Pantalla_EnviarComando:	
  1018                           ; 1 bytes @ 0x0
  1019                           
  1020     0070                     ?_Pantalla_Limpiar:	
  1021                           ; 1 bytes @ 0x0
  1022                           
  1023     0070                     ?_Pantalla_Inicializar:	
  1024                           ; 1 bytes @ 0x0
  1025                           
  1026     0070                     ?_Pantalla_EscribirCaracter:	
  1027                           ; 1 bytes @ 0x0
  1028                           
  1029     0070                     ?_SensorHumedad_Configurar:	
  1030                           ; 1 bytes @ 0x0
  1031                           
  1032     0070                     ?_SDA_Liberar:	
  1033                           ; 1 bytes @ 0x0
  1034                           
  1035     0070                     ?_SDA_ForzarBajo:	
  1036                           ; 1 bytes @ 0x0
  1037                           
  1038     0070                     ?_SCL_Liberar:	
  1039                           ; 1 bytes @ 0x0
  1040                           
  1041     0070                     ?_SCL_ForzarBajo:	
  1042                           ; 1 bytes @ 0x0
  1043                           
  1044     0070                     ?_I2C_IniciarBus:	
  1045                           ; 1 bytes @ 0x0
  1046                           
  1047     0070                     ?_I2C_CondicionInicio:	
  1048                           ; 1 bytes @ 0x0
  1049                           
  1050     0070                     ?_I2C_CondicionParo:	
  1051                           ; 1 bytes @ 0x0
  1052                           
  1053     0070                     ?_I2C_EscribirByte:	
  1054                           ; 1 bytes @ 0x0
  1055                           
  1056     0070                     ?_I2C_LeerByte:	
  1057                           ; 1 bytes @ 0x0
  1058                           
  1059     0070                     ?_Reloj_ConvertirBCD:	
  1060                           ; 1 bytes @ 0x0
  1061                           
  1062     0070                     ?_Reloj_IniciarModulo:	
  1063                           ; 1 bytes @ 0x0
  1064                           
  1065     0070                     ?_Reloj_VerificarConexion:	
  1066                           ; 1 bytes @ 0x0
  1067                           
  1068     0070                     ?_LimpiarFechaHora:	
  1069                           ; 1 bytes @ 0x0
  1070                           
  1071     0070                     ?_Almacenamiento_IniciarSPI:	
  1072                           ; 1 bytes @ 0x0
  1073                           
  1074     0070                     ?_Almacenamiento_TransferirSPI:	
  1075                           ; 1 bytes @ 0x0
  1076                           
  1077     0070                     ?_Almacenamiento_Inicializar:	
  1078                           ; 1 bytes @ 0x0
  1079                           
  1080     0070                     ?_GestorArchivos_Configurar:	
  1081                           ; 1 bytes @ 0x0
  1082                           
  1083     0070                     ?_ImprimirDigito2:	
  1084                           ; 1 bytes @ 0x0
  1085                           
  1086     0070                     ?_AgregarTemp:	
  1087                           ; 1 bytes @ 0x0
  1088                           
  1089     0070                     ?_CalcStats:	
  1090                           ; 1 bytes @ 0x0
  1091                           
  1092     0070                     ?_MostrarStats:	
  1093                           ; 1 bytes @ 0x0
  1094                           
  1095     0070                     ?_LeerBoton:	
  1096                           ; 1 bytes @ 0x0
  1097                           
  1098     0070                     ?_main:	
  1099                           ; 1 bytes @ 0x0
  1100                           
  1101     0070                     ?___bmul:	
  1102                           ; 1 bytes @ 0x0
  1103                           
  1104     0070                     ?___flge:	
  1105                           ; 1 bytes @ 0x0
  1106                           
  1107     0070                     ?__Umul8_16:	
  1108                           ; 1 bit 
  1109                           
  1110     0070                     ?___awdiv:	
  1111                           ; 2 bytes @ 0x0
  1112                           
  1113     0070                     ?___lwdiv:	
  1114                           ; 2 bytes @ 0x0
  1115                           
  1116     0070                     ?___xxtofl:	
  1117                           ; 2 bytes @ 0x0
  1118                           
  1119     0070                     Pantalla_ConfigurarPuerto@a:	
  1120                           ; 4 bytes @ 0x0
  1121                           
  1122     0070                     ___bmul@multiplicand:	
  1123                           ; 1 bytes @ 0x0
  1124                           
  1125     0070                     __Umul8_16@multiplicand:	
  1126                           ; 1 bytes @ 0x0
  1127                           
  1128     0070                     LimpiarFechaHora@t:	
  1129                           ; 1 bytes @ 0x0
  1130                           
  1131     0070                     ___awdiv@divisor:	
  1132                           ; 2 bytes @ 0x0
  1133                           
  1134     0070                     ___lwdiv@divisor:	
  1135                           ; 2 bytes @ 0x0
  1136                           
  1137     0070                     AgregarTemp@t:	
  1138                           ; 2 bytes @ 0x0
  1139                           
  1140     0070                     ___flge@ff1:	
  1141                           ; 4 bytes @ 0x0
  1142                           
  1143     0070                     ___xxtofl@val:	
  1144                           ; 4 bytes @ 0x0
  1145                           
  1146     0070                     ??_Pantalla_ConfigurarPuerto:	
  1147                           ; 4 bytes @ 0x0
  1148                           
  1149     0070                     ??_SensorHumedad_Configurar:	
  1150                           ; 1 bytes @ 0x0
  1151                           
  1152     0070                     ??_SDA_Liberar:	
  1153                           ; 1 bytes @ 0x0
  1154                           
  1155     0070                     ??_SDA_ForzarBajo:	
  1156                           ; 1 bytes @ 0x0
  1157                           
  1158     0070                     ??_SCL_Liberar:	
  1159                           ; 1 bytes @ 0x0
  1160                           
  1161     0070                     ??_SCL_ForzarBajo:	
  1162                           ; 1 bytes @ 0x0
  1163                           
  1164     0070                     ??_I2C_IniciarBus:	
  1165                           ; 1 bytes @ 0x0
  1166                           
  1167     0070                     ??_I2C_CondicionInicio:	
  1168                           ; 1 bytes @ 0x0
  1169                           
  1170     0070                     ??_I2C_CondicionParo:	
  1171                           ; 1 bytes @ 0x0
  1172                           
  1173     0070                     ??_I2C_EscribirByte:	
  1174                           ; 1 bytes @ 0x0
  1175                           
  1176     0070                     ??_I2C_LeerByte:	
  1177                           ; 1 bytes @ 0x0
  1178                           
  1179     0070                     ??_Almacenamiento_IniciarSPI:	
  1180                           ; 1 bytes @ 0x0
  1181                           
  1182     0070                     ??_Almacenamiento_TransferirSPI:	
  1183                           ; 1 bytes @ 0x0
  1184                           
  1185     0070                     ??_GestorArchivos_Configurar:	
  1186                           ; 1 bytes @ 0x0
  1187                           
  1188     0070                     ??_LeerBoton:	
  1189                           ; 1 bytes @ 0x0
  1190                           
  1191                           
  1192                           ; 1 bytes @ 0x0
  1193     0070                     	ds	1
  1194     0071                     I2C_EscribirByte@dato:
  1195     0071                     I2C_LeerByte@confirmacion:	
  1196                           ; 1 bytes @ 0x1
  1197                           
  1198     0071                     ___bmul@product:	
  1199                           ; 1 bytes @ 0x1
  1200                           
  1201     0071                     ??_Pantalla_EnviarComando:	
  1202                           ; 1 bytes @ 0x1
  1203                           
  1204     0071                     ??_Reloj_IniciarModulo:	
  1205                           ; 1 bytes @ 0x1
  1206                           
  1207     0071                     ??___bmul:	
  1208                           ; 1 bytes @ 0x1
  1209                           
  1210                           
  1211                           ; 1 bytes @ 0x1
  1212     0071                     	ds	1
  1213     0072                     I2C_EscribirByte@confirmacion:
  1214     0072                     I2C_LeerByte@dato:	
  1215                           ; 1 bytes @ 0x2
  1216                           
  1217     0072                     LeerBoton@curr:	
  1218                           ; 1 bytes @ 0x2
  1219                           
  1220     0072                     ___bmul@multiplier:	
  1221                           ; 1 bytes @ 0x2
  1222                           
  1223     0072                     ___awdiv@dividend:	
  1224                           ; 1 bytes @ 0x2
  1225                           
  1226     0072                     ___lwdiv@dividend:	
  1227                           ; 2 bytes @ 0x2
  1228                           
  1229     0072                     ??__Umul8_16:	
  1230                           ; 2 bytes @ 0x2
  1231                           
  1232     0072                     ??_LimpiarFechaHora:	
  1233                           ; 1 bytes @ 0x2
  1234                           
  1235                           
  1236                           ; 1 bytes @ 0x2
  1237     0072                     	ds	1
  1238     0073                     Pantalla_EnviarComando@a:
  1239     0073                     I2C_EscribirByte@i:	
  1240                           ; 1 bytes @ 0x3
  1241                           
  1242     0073                     I2C_LeerByte@i:	
  1243                           ; 1 bytes @ 0x3
  1244                           
  1245     0073                     Almacenamiento_TransferirSPI@dato:	
  1246                           ; 1 bytes @ 0x3
  1247                           
  1248     0073                     ??_Reloj_ConvertirBCD:	
  1249                           ; 1 bytes @ 0x3
  1250                           
  1251                           
  1252                           ; 1 bytes @ 0x3
  1253     0073                     	ds	1
  1254     0074                     ?_Pantalla_EstablecerPosicion:
  1255     0074                     Pantalla_EstablecerPosicion@b:	
  1256                           ; 1 bytes @ 0x4
  1257                           
  1258     0074                     Reloj_VerificarConexion@ok:	
  1259                           ; 1 bytes @ 0x4
  1260                           
  1261     0074                     Almacenamiento_TransferirSPI@i:	
  1262                           ; 1 bytes @ 0x4
  1263                           
  1264     0074                     ___awdiv@counter:	
  1265                           ; 1 bytes @ 0x4
  1266                           
  1267     0074                     ___lwdiv@quotient:	
  1268                           ; 1 bytes @ 0x4
  1269                           
  1270     0074                     __Umul8_16@product:	
  1271                           ; 2 bytes @ 0x4
  1272                           
  1273     0074                     ___flge@ff2:	
  1274                           ; 2 bytes @ 0x4
  1275                           
  1276     0074                     ??_Pantalla_Limpiar:	
  1277                           ; 4 bytes @ 0x4
  1278                           
  1279     0074                     ??_Pantalla_Inicializar:	
  1280                           ; 1 bytes @ 0x4
  1281                           
  1282     0074                     ??_Reloj_VerificarConexion:	
  1283                           ; 1 bytes @ 0x4
  1284                           
  1285     0074                     ??_AgregarTemp:	
  1286                           ; 1 bytes @ 0x4
  1287                           
  1288     0074                     ??___awdiv:	
  1289                           ; 1 bytes @ 0x4
  1290                           
  1291     0074                     ??___lwdiv:	
  1292                           ; 1 bytes @ 0x4
  1293                           
  1294     0074                     ??___xxtofl:	
  1295                           ; 1 bytes @ 0x4
  1296                           
  1297                           
  1298                           ; 1 bytes @ 0x4
  1299     0074                     	ds	1
  1300     0075                     Reloj_ConvertirBCD@b:
  1301     0075                     Almacenamiento_TransferirSPI@resultado:	
  1302                           ; 1 bytes @ 0x5
  1303                           
  1304     0075                     ___awdiv@sign:	
  1305                           ; 1 bytes @ 0x5
  1306                           
  1307     0075                     ??_Pantalla_EstablecerPosicion:	
  1308                           ; 1 bytes @ 0x5
  1309                           
  1310                           
  1311                           ; 1 bytes @ 0x5
  1312     0075                     	ds	1
  1313     0076                     ?_Almacenamiento_EnviarComando:
  1314     0076                     Pantalla_EstablecerPosicion@a:	
  1315                           ; 1 bytes @ 0x6
  1316                           
  1317     0076                     ___lwdiv@counter:	
  1318                           ; 1 bytes @ 0x6
  1319                           
  1320     0076                     ___awdiv@quotient:	
  1321                           ; 1 bytes @ 0x6
  1322                           
  1323     0076                     __Umul8_16@word_mpld:	
  1324                           ; 2 bytes @ 0x6
  1325                           
  1326     0076                     Almacenamiento_EnviarComando@arg:	
  1327                           ; 2 bytes @ 0x6
  1328                           
  1329                           
  1330                           ; 4 bytes @ 0x6
  1331     0076                     	ds	1
  1332     0077                     ?___lwmod:
  1333     0077                     Pantalla_EstablecerPosicion@z:	
  1334                           ; 2 bytes @ 0x7
  1335                           
  1336     0077                     ___lwmod@divisor:	
  1337                           ; 1 bytes @ 0x7
  1338                           
  1339                           
  1340                           ; 2 bytes @ 0x7
  1341     0077                     	ds	1
  1342     0078                     ?___awmod:
  1343     0078                     Pantalla_EstablecerPosicion@y:	
  1344                           ; 2 bytes @ 0x8
  1345                           
  1346     0078                     __Umul8_16@multiplier:	
  1347                           ; 1 bytes @ 0x8
  1348                           
  1349     0078                     ___xxtofl@sign:	
  1350                           ; 1 bytes @ 0x8
  1351                           
  1352     0078                     ___awmod@divisor:	
  1353                           ; 1 bytes @ 0x8
  1354                           
  1355     0078                     ??___flge:	
  1356                           ; 2 bytes @ 0x8
  1357                           
  1358                           
  1359                           ; 1 bytes @ 0x8
  1360     0078                     	ds	1
  1361     0079                     Pantalla_EstablecerPosicion@temp:
  1362     0079                     ___xxtofl@exp:	
  1363                           ; 1 bytes @ 0x9
  1364                           
  1365     0079                     ___lwmod@dividend:	
  1366                           ; 1 bytes @ 0x9
  1367                           
  1368                           
  1369                           ; 2 bytes @ 0x9
  1370     0079                     	ds	1
  1371     007A                     ?_Reloj_ObtenerFechaHora:
  1372     007A                     Reloj_ObtenerFechaHora@fechahora:	
  1373                           ; 1 bytes @ 0xA
  1374                           
  1375     007A                     ___awmod@dividend:	
  1376                           ; 2 bytes @ 0xA
  1377                           
  1378     007A                     ___xxtofl@arg:	
  1379                           ; 2 bytes @ 0xA
  1380                           
  1381     007A                     ??_Almacenamiento_EnviarComando:	
  1382                           ; 4 bytes @ 0xA
  1383                           
  1384                           
  1385                           ; 1 bytes @ 0xA
  1386     007A                     	ds	1
  1387     007B                     ___lwmod@counter:
  1388     007B                     ??___lwmod:	
  1389                           ; 1 bytes @ 0xB
  1390                           
  1391                           
  1392                           ; 1 bytes @ 0xB
  1393     007B                     	ds	1
  1394     007C                     ___awmod@counter:
  1395     007C                     ??_Reloj_ObtenerFechaHora:	
  1396                           ; 1 bytes @ 0xC
  1397                           
  1398     007C                     ??___awmod:	
  1399                           ; 1 bytes @ 0xC
  1400                           
  1401                           
  1402                           ; 1 bytes @ 0xC
  1403     007C                     	ds	1
  1404     007D                     ___awmod@sign:
  1405                           
  1406                           ; 1 bytes @ 0xD
  1407     007D                     	ds	1
  1408     007E                     ??_Pantalla_EscribirTexto:
  1409     007E                     ??_GestorArchivos_GuardarLinea:	
  1410                           ; 1 bytes @ 0xE
  1411                           
  1412     007E                     ??_ImprimirTemp:	
  1413                           ; 1 bytes @ 0xE
  1414                           
  1415                           
  1416                           	psect	cstackBANK0
  1417     0020                     __pcstackBANK0:	
  1418                           ; 1 bytes @ 0xE
  1419                           
  1420     0020                     ?___fldiv:
  1421     0020                     Reloj_ObtenerFechaHora@r:	
  1422                           ; 4 bytes @ 0x0
  1423                           
  1424     0020                     Almacenamiento_EnviarComando@crc:	
  1425                           ; 1 bytes @ 0x0
  1426                           
  1427     0020                     ___fldiv@a:	
  1428                           ; 1 bytes @ 0x0
  1429                           
  1430     0020                     ??_Pantalla_EscribirCaracter:	
  1431                           ; 4 bytes @ 0x0
  1432                           
  1433                           
  1434                           ; 1 bytes @ 0x0
  1435     0020                     	ds	1
  1436     0021                     Almacenamiento_EnviarComando@r:
  1437                           
  1438                           ; 1 bytes @ 0x1
  1439     0021                     	ds	1
  1440     0022                     Pantalla_EscribirCaracter@temp:
  1441     0022                     Almacenamiento_EnviarComando@i:	
  1442                           ; 1 bytes @ 0x2
  1443                           
  1444                           
  1445                           ; 1 bytes @ 0x2
  1446     0022                     	ds	1
  1447     0023                     Pantalla_EscribirCaracter@y:
  1448     0023                     Almacenamiento_EnviarComando@cmd:	
  1449                           ; 1 bytes @ 0x3
  1450                           
  1451                           
  1452                           ; 1 bytes @ 0x3
  1453     0023                     	ds	1
  1454     0024                     ?_Almacenamiento_EscribirDatos:
  1455     0024                     Pantalla_EscribirCaracter@a:	
  1456                           ; 1 bytes @ 0x4
  1457                           
  1458     0024                     Almacenamiento_EscribirDatos@sector:	
  1459                           ; 1 bytes @ 0x4
  1460                           
  1461     0024                     ___fldiv@b:	
  1462                           ; 4 bytes @ 0x4
  1463                           
  1464     0024                     ??_Almacenamiento_Inicializar:	
  1465                           ; 4 bytes @ 0x4
  1466                           
  1467                           
  1468                           ; 1 bytes @ 0x4
  1469     0024                     	ds	1
  1470     0025                     ?_Pantalla_EscribirTexto:
  1471     0025                     Pantalla_EscribirTexto@a:	
  1472                           ; 1 bytes @ 0x5
  1473                           
  1474     0025                     ??_ImprimirDigito2:	
  1475                           ; 1 bytes @ 0x5
  1476                           
  1477                           
  1478                           ; 1 bytes @ 0x5
  1479     0025                     	ds	1
  1480     0026                     Almacenamiento_Inicializar@r:
  1481     0026                     Pantalla_EscribirTexto@i:	
  1482                           ; 1 bytes @ 0x6
  1483                           
  1484                           
  1485                           ; 2 bytes @ 0x6
  1486     0026                     	ds	1
  1487     0027                     Almacenamiento_Inicializar@i:
  1488     0027                     ImprimirDigito2@v:	
  1489                           ; 1 bytes @ 0x7
  1490                           
  1491                           
  1492                           ; 1 bytes @ 0x7
  1493     0027                     	ds	1
  1494     0028                     Almacenamiento_Inicializar@reintentos:
  1495     0028                     Almacenamiento_EscribirDatos@desplazamiento:	
  1496                           ; 2 bytes @ 0x8
  1497                           
  1498     0028                     ??___fldiv:	
  1499                           ; 2 bytes @ 0x8
  1500                           
  1501                           
  1502                           ; 1 bytes @ 0x8
  1503     0028                     	ds	2
  1504     002A                     Almacenamiento_EscribirDatos@buffer:
  1505                           
  1506                           ; 2 bytes @ 0xA
  1507     002A                     	ds	2
  1508     002C                     Almacenamiento_EscribirDatos@longitud:
  1509                           
  1510                           ; 1 bytes @ 0xC
  1511     002C                     	ds	1
  1512     002D                     ___fldiv@rem:
  1513     002D                     ??_Almacenamiento_EscribirDatos:	
  1514                           ; 4 bytes @ 0xD
  1515                           
  1516                           
  1517                           ; 1 bytes @ 0xD
  1518     002D                     	ds	2
  1519     002F                     Almacenamiento_EscribirDatos@byte_dato:
  1520                           
  1521                           ; 1 bytes @ 0xF
  1522     002F                     	ds	1
  1523     0030                     Almacenamiento_EscribirDatos@respuesta:
  1524                           
  1525                           ; 1 bytes @ 0x10
  1526     0030                     	ds	1
  1527     0031                     ___fldiv@sign:
  1528     0031                     Almacenamiento_EscribirDatos@i:	
  1529                           ; 1 bytes @ 0x11
  1530                           
  1531                           
  1532                           ; 2 bytes @ 0x11
  1533     0031                     	ds	1
  1534     0032                     ___fldiv@new_exp:
  1535                           
  1536                           ; 2 bytes @ 0x12
  1537     0032                     	ds	1
  1538     0033                     ?_GestorArchivos_GuardarLinea:
  1539     0033                     GestorArchivos_GuardarLinea@nombre_archivo:	
  1540                           ; 1 bytes @ 0x13
  1541                           
  1542                           
  1543                           ; 1 bytes @ 0x13
  1544     0033                     	ds	1
  1545     0034                     GestorArchivos_GuardarLinea@linea:
  1546     0034                     ___fldiv@grs:	
  1547                           ; 2 bytes @ 0x14
  1548                           
  1549                           
  1550                           ; 4 bytes @ 0x14
  1551     0034                     	ds	2
  1552     0036                     GestorArchivos_GuardarLinea@longitud:
  1553                           
  1554                           ; 1 bytes @ 0x16
  1555     0036                     	ds	2
  1556     0038                     ___fldiv@bexp:
  1557                           
  1558                           ; 1 bytes @ 0x18
  1559     0038                     	ds	1
  1560     0039                     ___fldiv@aexp:
  1561                           
  1562                           ; 1 bytes @ 0x19
  1563     0039                     	ds	1
  1564     003A                     ?___flmul:
  1565     003A                     ___flmul@b:	
  1566                           ; 4 bytes @ 0x1A
  1567                           
  1568                           
  1569                           ; 4 bytes @ 0x1A
  1570     003A                     	ds	4
  1571     003E                     ___flmul@a:
  1572                           
  1573                           ; 4 bytes @ 0x1E
  1574     003E                     	ds	4
  1575     0042                     ??___flmul:
  1576                           
  1577                           ; 1 bytes @ 0x22
  1578     0042                     	ds	5
  1579     0047                     ___flmul@sign:
  1580                           
  1581                           ; 1 bytes @ 0x27
  1582     0047                     	ds	1
  1583     0048                     ___flmul@grs:
  1584                           
  1585                           ; 4 bytes @ 0x28
  1586     0048                     	ds	4
  1587     004C                     ___flmul@aexp:
  1588                           
  1589                           ; 1 bytes @ 0x2C
  1590     004C                     	ds	1
  1591     004D                     ___flmul@bexp:
  1592                           
  1593                           ; 1 bytes @ 0x2D
  1594     004D                     	ds	1
  1595     004E                     ___flmul@prod:
  1596                           
  1597                           ; 4 bytes @ 0x2E
  1598     004E                     	ds	4
  1599     0052                     ___flmul@temp:
  1600                           
  1601                           ; 2 bytes @ 0x32
  1602     0052                     	ds	2
  1603     0054                     ?_SensorHumedad_ObtenerDatos:
  1604     0054                     ?___fladd:	
  1605                           ; 1 bytes @ 0x34
  1606                           
  1607     0054                     SensorHumedad_ObtenerDatos@temperatura:	
  1608                           ; 4 bytes @ 0x34
  1609                           
  1610     0054                     ___fladd@b:	
  1611                           ; 1 bytes @ 0x34
  1612                           
  1613                           
  1614                           ; 4 bytes @ 0x34
  1615     0054                     	ds	1
  1616     0055                     SensorHumedad_ObtenerDatos@humedad:
  1617                           
  1618                           ; 1 bytes @ 0x35
  1619     0055                     	ds	1
  1620     0056                     ??_SensorHumedad_ObtenerDatos:
  1621                           
  1622                           ; 1 bytes @ 0x36
  1623     0056                     	ds	2
  1624     0058                     ___fladd@a:
  1625                           
  1626                           ; 4 bytes @ 0x38
  1627     0058                     	ds	2
  1628     005A                     SensorHumedad_ObtenerDatos@humedad_cruda:
  1629                           
  1630                           ; 2 bytes @ 0x3A
  1631     005A                     	ds	2
  1632     005C                     SensorHumedad_ObtenerDatos@resultado:
  1633     005C                     ??___fladd:	
  1634                           ; 1 bytes @ 0x3C
  1635                           
  1636                           
  1637                           ; 1 bytes @ 0x3C
  1638     005C                     	ds	1
  1639     005D                     SensorHumedad_ObtenerDatos@bits:
  1640                           
  1641                           ; 5 bytes @ 0x3D
  1642     005D                     	ds	5
  1643     0062                     SensorHumedad_ObtenerDatos@temperatura_cruda:
  1644                           
  1645                           ; 2 bytes @ 0x42
  1646     0062                     	ds	2
  1647     0064                     SensorHumedad_ObtenerDatos@i:
  1648     0064                     ___fladd@signs:	
  1649                           ; 1 bytes @ 0x44
  1650                           
  1651                           
  1652                           ; 1 bytes @ 0x44
  1653     0064                     	ds	1
  1654     0065                     SensorHumedad_ObtenerDatos@j:
  1655     0065                     ___fladd@aexp:	
  1656                           ; 1 bytes @ 0x45
  1657                           
  1658                           
  1659                           ; 1 bytes @ 0x45
  1660     0065                     	ds	1
  1661     0066                     ___fladd@bexp:
  1662                           
  1663                           ; 1 bytes @ 0x46
  1664     0066                     	ds	1
  1665     0067                     ___fladd@grs:
  1666                           
  1667                           ; 1 bytes @ 0x47
  1668     0067                     	ds	1
  1669     0068                     ?___fltol:
  1670     0068                     ___fltol@f1:	
  1671                           ; 4 bytes @ 0x48
  1672                           
  1673     0068                     ??_CalcStats:	
  1674                           ; 4 bytes @ 0x48
  1675                           
  1676                           
  1677                           ; 1 bytes @ 0x48
  1678     0068                     	ds	4
  1679     006C                     ??___fltol:
  1680                           
  1681                           ; 1 bytes @ 0x4C
  1682     006C                     	ds	4
  1683                           
  1684                           	psect	maintext
  1685     02C8                     __pmaintext:	
  1686 ;;
  1687 ;;Main: autosize = 0, tempsize = 3, incstack = 0, save=0
  1688 ;;
  1689 ;; *************** function _main *****************
  1690 ;; Defined at:
  1691 ;;		line 122 in file "aplicacion.c"
  1692 ;; Parameters:    Size  Location     Type
  1693 ;;		None
  1694 ;; Auto vars:     Size  Location     Type
  1695 ;;  fecha           7   39[BANK1 ] struct .
  1696 ;;  temp            4   35[BANK1 ] float 
  1697 ;;  hum             4   31[BANK1 ] float 
  1698 ;;  t10             2   29[BANK1 ] short 
  1699 ;;  h10             2   26[BANK1 ] unsigned short 
  1700 ;;  pos             1   46[BANK1 ] unsigned char 
  1701 ;;  modo            1   28[BANK1 ] unsigned char 
  1702 ;;  cnt             1   25[BANK1 ] unsigned char 
  1703 ;;  sensor_ok       1   24[BANK1 ] unsigned char 
  1704 ;;  sd_ok           1   23[BANK1 ] unsigned char 
  1705 ;; Return value:  Size  Location     Type
  1706 ;;                  1    wreg      void 
  1707 ;; Registers used:
  1708 ;;		wreg, fsr0l, fsr0h, status,2, status,0, pclath, btemp1, cstack
  1709 ;; Tracked objects:
  1710 ;;		On entry : B00/0
  1711 ;;		On exit  : 0/0
  1712 ;;		Unchanged: 0/0
  1713 ;; Data sizes:     COMMON   BANK0   BANK1   BANK3   BANK2
  1714 ;;      Params:         0       0       0       0       0
  1715 ;;      Locals:         0       0      24       0       0
  1716 ;;      Temps:          0       0       3       0       0
  1717 ;;      Totals:         0       0      27       0       0
  1718 ;;Total ram usage:       27 bytes
  1719 ;; Hardware stack levels required when called: 4
  1720 ;; This function calls:
  1721 ;;		_AgregarTemp
  1722 ;;		_Almacenamiento_Inicializar
  1723 ;;		_CalcStats
  1724 ;;		_GestorArchivos_Configurar
  1725 ;;		_GestorArchivos_GuardarLinea
  1726 ;;		_LeerBoton
  1727 ;;		_MostrarPrincipal
  1728 ;;		_MostrarStats
  1729 ;;		_Pantalla_EscribirCaracter
  1730 ;;		_Pantalla_EscribirTexto
  1731 ;;		_Pantalla_EstablecerPosicion
  1732 ;;		_Pantalla_Inicializar
  1733 ;;		_Pantalla_Limpiar
  1734 ;;		_Reloj_IniciarModulo
  1735 ;;		_Reloj_ObtenerFechaHora
  1736 ;;		_SensorHumedad_Configurar
  1737 ;;		_SensorHumedad_ObtenerDatos
  1738 ;;		___awdiv
  1739 ;;		___awmod
  1740 ;;		___fladd
  1741 ;;		___flge
  1742 ;;		___flmul
  1743 ;;		___fltol
  1744 ;;		___lwdiv
  1745 ;;		___lwmod
  1746 ;; This function is called by:
  1747 ;;		Startup code after reset
  1748 ;; This function uses a non-reentrant model
  1749 ;;
  1750                           
  1751     02C8                     _main:	
  1752                           ;psect for function _main
  1753                           
  1754     02C8                     l4387:	
  1755                           ;incstack = 0
  1756                           ; Regs used in _main: [wreg-fsr0h+status,2+status,0+pclath+btemp1+cstack]
  1757                           
  1758                           
  1759                           ;aplicacion.c: 123:     Reloj_FechaHora fecha;;aplicacion.c: 124:     float temp = 0, hu
      +                          m = 0;
  1760     02C8  3000               	movlw	0
  1761     02C9  1683               	bsf	3,5	;RP0=1, select bank1
  1762     02CA  1303               	bcf	3,6	;RP1=0, select bank1
  1763     02CB  00C6               	movwf	(main@temp+3)^(0+128)
  1764     02CC  3000               	movlw	0
  1765     02CD  00C5               	movwf	(main@temp+2)^(0+128)
  1766     02CE  3000               	movlw	0
  1767     02CF  00C4               	movwf	(main@temp+1)^(0+128)
  1768     02D0  3000               	movlw	0
  1769     02D1  00C3               	movwf	main@temp^(0+128)
  1770     02D2  3000               	movlw	0
  1771     02D3  00C2               	movwf	(main@hum+3)^(0+128)
  1772     02D4  3000               	movlw	0
  1773     02D5  00C1               	movwf	(main@hum+2)^(0+128)
  1774     02D6  3000               	movlw	0
  1775     02D7  00C0               	movwf	(main@hum+1)^(0+128)
  1776     02D8  3000               	movlw	0
  1777     02D9  00BF               	movwf	main@hum^(0+128)
  1778     02DA                     l4389:
  1779                           
  1780                           ;aplicacion.c: 125:     uint8_t sd_ok = 0, pos, cnt = 0, sensor_ok = 0;
  1781     02DA  01B7               	clrf	main@sd_ok^(0+128)
  1782     02DB                     l4391:
  1783     02DB  01B9               	clrf	main@cnt^(0+128)
  1784     02DC                     l4393:
  1785     02DC                     l4395:
  1786                           
  1787                           ;aplicacion.c: 126:     uint8_t modo = 0;
  1788     02DC  01BC               	clrf	main@modo^(0+128)
  1789     02DD                     l4397:
  1790                           
  1791                           ;aplicacion.c: 127:     uint16_t h10;;aplicacion.c: 128:     int16_t t10;;aplicacion.c: 
      +                          129:     static uint8_t min_prev = 0xFF;;aplicacion.c: 131:     ANSEL = 0x00;
  1792     02DD  1683               	bsf	3,5	;RP0=1, select bank3
  1793     02DE  1703               	bsf	3,6	;RP1=1, select bank3
  1794     02DF  0188               	clrf	8	;volatile
  1795     02E0                     l4399:
  1796                           
  1797                           ;aplicacion.c: 132:     ANSELH = 0x00;
  1798     02E0  0189               	clrf	9	;volatile
  1799     02E1                     l4401:
  1800                           
  1801                           ;aplicacion.c: 133:     TRISAbits.TRISA2 = 1;
  1802     02E1  1683               	bsf	3,5	;RP0=1, select bank1
  1803     02E2  1303               	bcf	3,6	;RP1=0, select bank1
  1804     02E3  1505               	bsf	5,2	;volatile
  1805     02E4                     l4403:
  1806                           
  1807                           ;aplicacion.c: 135:     Pantalla_Inicializar();
  1808     02E4  160A  158A  26E4  120A  118A  	fcall	_Pantalla_Inicializar
  1809     02E9                     l4405:
  1810                           
  1811                           ;aplicacion.c: 136:     Pantalla_Limpiar();
  1812     02E9  160A  158A  22A3  120A  118A  	fcall	_Pantalla_Limpiar
  1813     02EE                     l4407:
  1814                           
  1815                           ;aplicacion.c: 137:     Pantalla_EstablecerPosicion(1, 1);
  1816     02EE  01F4               	clrf	Pantalla_EstablecerPosicion@b
  1817     02EF  0AF4               	incf	Pantalla_EstablecerPosicion@b,f
  1818     02F0  3001               	movlw	1
  1819     02F1  160A  158A  23A0  120A  118A  	fcall	_Pantalla_EstablecerPosicion
  1820     02F6                     l4409:
  1821                           
  1822                           ;aplicacion.c: 138:     Pantalla_EscribirTexto("Iniciando...");
  1823     02F6  3017               	movlw	(low ((STR_9-__stringbase)| (0+32768)))& (0+255)
  1824     02F7  1283               	bcf	3,5	;RP0=0, select bank0
  1825     02F8  1303               	bcf	3,6	;RP1=0, select bank0
  1826     02F9  00A5               	movwf	Pantalla_EscribirTexto@a
  1827     02FA  160A  158A  2378  120A  118A  	fcall	_Pantalla_EscribirTexto
  1828     02FF                     l4411:
  1829                           
  1830                           ;aplicacion.c: 140:     SensorHumedad_Configurar();
  1831     02FF  160A  158A  228F  120A  118A  	fcall	_SensorHumedad_Configurar
  1832     0304                     l4413:
  1833                           
  1834                           ;aplicacion.c: 141:     Reloj_IniciarModulo();
  1835     0304  160A  158A  224C  120A  118A  	fcall	_Reloj_IniciarModulo
  1836     0309                     l4415:
  1837                           
  1838                           ;aplicacion.c: 142:     _delay((unsigned long)((100)*(20000000/4000.0)));
  1839     0309  3003               	movlw	3
  1840     030A  1683               	bsf	3,5	;RP0=1, select bank1
  1841     030B  1303               	bcf	3,6	;RP1=0, select bank1
  1842     030C  00B6               	movwf	(??_main^(0+128)+2)
  1843     030D  308A               	movlw	138
  1844     030E  00B5               	movwf	(??_main^(0+128)+1)
  1845     030F  3055               	movlw	85
  1846     0310  00B4               	movwf	??_main^(0+128)
  1847     0311                     u5847:
  1848     0311  0BB4               	decfsz	??_main^(0+128),f
  1849     0312  2B11               	goto	u5847
  1850     0313  0BB5               	decfsz	(??_main^(0+128)+1),f
  1851     0314  2B11               	goto	u5847
  1852     0315  0BB6               	decfsz	(??_main^(0+128)+2),f
  1853     0316  2B11               	goto	u5847
  1854     0317                     l4417:
  1855                           
  1856                           ;aplicacion.c: 144:     Pantalla_EstablecerPosicion(2, 1);
  1857     0317  01F4               	clrf	Pantalla_EstablecerPosicion@b
  1858     0318  0AF4               	incf	Pantalla_EstablecerPosicion@b,f
  1859     0319  3002               	movlw	2
  1860     031A  160A  158A  23A0  120A  118A  	fcall	_Pantalla_EstablecerPosicion
  1861     031F                     l4419:
  1862                           
  1863                           ;aplicacion.c: 145:     if(Almacenamiento_Inicializar() && GestorArchivos_Configurar()) 
      +                          {
  1864     031F  160A  118A  2411  120A  118A  	fcall	_Almacenamiento_Inicializar
  1865     0324  3A00               	xorlw	0
  1866     0325  1903               	skipnz
  1867     0326  2B28               	goto	u5691
  1868     0327  2B29               	goto	u5690
  1869     0328                     u5691:
  1870     0328  2B4E               	goto	l4429
  1871     0329                     u5690:
  1872     0329                     l4421:
  1873     0329  160A  158A  2240  120A  118A  	fcall	_GestorArchivos_Configurar
  1874     032E  3A00               	xorlw	0
  1875     032F  1903               	skipnz
  1876     0330  2B32               	goto	u5701
  1877     0331  2B33               	goto	u5700
  1878     0332                     u5701:
  1879     0332  2B4E               	goto	l4429
  1880     0333                     u5700:
  1881     0333                     l4423:
  1882                           
  1883                           ;aplicacion.c: 146:         sd_ok = 1;
  1884     0333  3001               	movlw	1
  1885     0334  1683               	bsf	3,5	;RP0=1, select bank1
  1886     0335  1303               	bcf	3,6	;RP1=0, select bank1
  1887     0336  00B7               	movwf	main@sd_ok^(0+128)
  1888     0337                     l4425:
  1889                           
  1890                           ;aplicacion.c: 147:         Pantalla_EscribirTexto("SD OK!");
  1891     0337  3037               	movlw	(low ((STR_10-__stringbase)| (0+32768)))& (0+255)
  1892     0338  1283               	bcf	3,5	;RP0=0, select bank0
  1893     0339  1303               	bcf	3,6	;RP1=0, select bank0
  1894     033A  00A5               	movwf	Pantalla_EscribirTexto@a
  1895     033B  160A  158A  2378  120A  118A  	fcall	_Pantalla_EscribirTexto
  1896     0340                     l4427:
  1897                           
  1898                           ;aplicacion.c: 148:         GestorArchivos_GuardarLinea("DATA.TXT", "Fecha,Hora,Temp,Hum
      +                          \r\n");
  1899     0340  302E               	movlw	(low ((STR_11-__stringbase)| (0+32768)))& (0+255)
  1900     0341  1283               	bcf	3,5	;RP0=0, select bank0
  1901     0342  1303               	bcf	3,6	;RP1=0, select bank0
  1902     0343  00B3               	movwf	GestorArchivos_GuardarLinea@nombre_archivo
  1903     0344  3001               	movlw	(low ((STR_12-__stringbase)| (0+32768)))& (0+255)
  1904     0345  00B4               	movwf	GestorArchivos_GuardarLinea@linea
  1905     0346  3080               	movlw	128
  1906     0347  00B5               	movwf	GestorArchivos_GuardarLinea@linea+1
  1907     0348  160A  158A  25AC  120A  118A  	fcall	_GestorArchivos_GuardarLinea
  1908                           
  1909                           ;aplicacion.c: 149:     } else {
  1910     034D  2B57               	goto	l4431
  1911     034E                     l4429:
  1912                           
  1913                           ;aplicacion.c: 150:         Pantalla_EscribirTexto("SD Error!");
  1914     034E  3024               	movlw	(low ((STR_13-__stringbase)| (0+32768)))& (0+255)
  1915     034F  1283               	bcf	3,5	;RP0=0, select bank0
  1916     0350  1303               	bcf	3,6	;RP1=0, select bank0
  1917     0351  00A5               	movwf	Pantalla_EscribirTexto@a
  1918     0352  160A  158A  2378  120A  118A  	fcall	_Pantalla_EscribirTexto
  1919     0357                     l4431:
  1920                           
  1921                           ;aplicacion.c: 153:     _delay((unsigned long)((500)*(20000000/4000.0)));
  1922     0357  300D               	movlw	13
  1923     0358  1683               	bsf	3,5	;RP0=1, select bank1
  1924     0359  1303               	bcf	3,6	;RP1=0, select bank1
  1925     035A  00B6               	movwf	(??_main^(0+128)+2)
  1926     035B  30AF               	movlw	175
  1927     035C  00B5               	movwf	(??_main^(0+128)+1)
  1928     035D  30B5               	movlw	181
  1929     035E  00B4               	movwf	??_main^(0+128)
  1930     035F                     u5857:
  1931     035F  0BB4               	decfsz	??_main^(0+128),f
  1932     0360  2B5F               	goto	u5857
  1933     0361  0BB5               	decfsz	(??_main^(0+128)+1),f
  1934     0362  2B5F               	goto	u5857
  1935     0363  0BB6               	decfsz	(??_main^(0+128)+2),f
  1936     0364  2B5F               	goto	u5857
  1937     0365  2B66               	nop2
  1938     0366                     l4433:
  1939                           
  1940                           ;aplicacion.c: 154:     Pantalla_Limpiar();
  1941     0366  160A  158A  22A3  120A  118A  	fcall	_Pantalla_Limpiar
  1942     036B                     l4435:
  1943                           
  1944                           ;aplicacion.c: 156:     Reloj_ObtenerFechaHora(&fecha);
  1945     036B  30C7               	movlw	low main@fecha
  1946     036C  00FA               	movwf	Reloj_ObtenerFechaHora@fechahora
  1947     036D  3000               	movlw	high main@fecha
  1948     036E  00FB               	movwf	Reloj_ObtenerFechaHora@fechahora+1
  1949     036F  160A  118A  266E  120A  118A  	fcall	_Reloj_ObtenerFechaHora
  1950     0374                     l4437:
  1951                           
  1952                           ;aplicacion.c: 157:     sensor_ok = SensorHumedad_ObtenerDatos(&temp, &hum);
  1953     0374  30C3               	movlw	(low (main@temp| 0))& (0+255)
  1954     0375  1283               	bcf	3,5	;RP0=0, select bank0
  1955     0376  1303               	bcf	3,6	;RP1=0, select bank0
  1956     0377  00D4               	movwf	SensorHumedad_ObtenerDatos@temperatura
  1957     0378  30BF               	movlw	(low (main@hum| 0))& (0+255)
  1958     0379  00D5               	movwf	SensorHumedad_ObtenerDatos@humedad
  1959     037A  160A  118A  2503  120A  118A  	fcall	_SensorHumedad_ObtenerDatos
  1960     037F  1683               	bsf	3,5	;RP0=1, select bank1
  1961     0380  1303               	bcf	3,6	;RP1=0, select bank1
  1962     0381  00B8               	movwf	main@sensor_ok^(0+128)
  1963     0382                     l4439:
  1964                           
  1965                           ;aplicacion.c: 158:     AgregarTemp(temp);
  1966     0382  0846               	movf	(main@temp+3)^(0+128),w
  1967     0383  00F3               	movwf	AgregarTemp@t+3
  1968     0384  0845               	movf	(main@temp+2)^(0+128),w
  1969     0385  00F2               	movwf	AgregarTemp@t+2
  1970     0386  0844               	movf	(main@temp+1)^(0+128),w
  1971     0387  00F1               	movwf	AgregarTemp@t+1
  1972     0388  0843               	movf	main@temp^(0+128),w
  1973     0389  00F0               	movwf	AgregarTemp@t
  1974     038A  160A  158A  232A  120A  118A  	fcall	_AgregarTemp
  1975     038F                     l4441:
  1976                           
  1977                           ;aplicacion.c: 160:     MostrarPrincipal(&fecha, temp, hum);
  1978     038F  30C7               	movlw	low main@fecha
  1979     0390  1683               	bsf	3,5	;RP0=1, select bank1
  1980     0391  1303               	bcf	3,6	;RP1=0, select bank1
  1981     0392  00A8               	movwf	MostrarPrincipal@t^(0+128)
  1982     0393  3000               	movlw	high main@fecha
  1983     0394  00A9               	movwf	(MostrarPrincipal@t^(0+128)+1)
  1984     0395  0846               	movf	(main@temp+3)^(0+128),w
  1985     0396  00AD               	movwf	(MostrarPrincipal@temp+3)^(0+128)
  1986     0397  0845               	movf	(main@temp+2)^(0+128),w
  1987     0398  00AC               	movwf	(MostrarPrincipal@temp+2)^(0+128)
  1988     0399  0844               	movf	(main@temp+1)^(0+128),w
  1989     039A  00AB               	movwf	(MostrarPrincipal@temp+1)^(0+128)
  1990     039B  0843               	movf	main@temp^(0+128),w
  1991     039C  00AA               	movwf	MostrarPrincipal@temp^(0+128)
  1992     039D  0842               	movf	(main@hum+3)^(0+128),w
  1993     039E  00B1               	movwf	(MostrarPrincipal@hum+3)^(0+128)
  1994     039F  0841               	movf	(main@hum+2)^(0+128),w
  1995     03A0  00B0               	movwf	(MostrarPrincipal@hum+2)^(0+128)
  1996     03A1  0840               	movf	(main@hum+1)^(0+128),w
  1997     03A2  00AF               	movwf	(MostrarPrincipal@hum+1)^(0+128)
  1998     03A3  083F               	movf	main@hum^(0+128),w
  1999     03A4  00AE               	movwf	MostrarPrincipal@hum^(0+128)
  2000     03A5  160A  118A  2270  120A  118A  	fcall	_MostrarPrincipal
  2001     03AA                     l4443:
  2002                           
  2003                           ;aplicacion.c: 161:     _delay((unsigned long)((500)*(20000000/4000.0)));
  2004     03AA  300D               	movlw	13
  2005     03AB  1683               	bsf	3,5	;RP0=1, select bank1
  2006     03AC  1303               	bcf	3,6	;RP1=0, select bank1
  2007     03AD  00B6               	movwf	(??_main^(0+128)+2)
  2008     03AE  30AF               	movlw	175
  2009     03AF  00B5               	movwf	(??_main^(0+128)+1)
  2010     03B0  30B5               	movlw	181
  2011     03B1  00B4               	movwf	??_main^(0+128)
  2012     03B2                     u5867:
  2013     03B2  0BB4               	decfsz	??_main^(0+128),f
  2014     03B3  2BB2               	goto	u5867
  2015     03B4  0BB5               	decfsz	(??_main^(0+128)+1),f
  2016     03B5  2BB2               	goto	u5867
  2017     03B6  0BB6               	decfsz	(??_main^(0+128)+2),f
  2018     03B7  2BB2               	goto	u5867
  2019     03B8  2BB9               	nop2
  2020     03B9                     l4445:
  2021                           
  2022                           ;aplicacion.c: 164:         if(LeerBoton()) {
  2023     03B9  160A  158A  23F5  120A  118A  	fcall	_LeerBoton
  2024     03BE  3A00               	xorlw	0
  2025     03BF  1903               	skipnz
  2026     03C0  2BC2               	goto	u5711
  2027     03C1  2BC3               	goto	u5710
  2028     03C2                     u5711:
  2029     03C2  2C08               	goto	l4459
  2030     03C3                     u5710:
  2031     03C3                     l4447:
  2032                           
  2033                           ;aplicacion.c: 165:             modo = (modo + 1) % 2;
  2034     03C3  1683               	bsf	3,5	;RP0=1, select bank1
  2035     03C4  1303               	bcf	3,6	;RP1=0, select bank1
  2036     03C5  083C               	movf	main@modo^(0+128),w
  2037     03C6  3E01               	addlw	1
  2038     03C7  00BC               	movwf	main@modo^(0+128)
  2039     03C8  3001               	movlw	1
  2040     03C9  05BC               	andwf	main@modo^(0+128),f
  2041     03CA                     l4449:
  2042                           
  2043                           ;aplicacion.c: 166:             Pantalla_Limpiar();
  2044     03CA  160A  158A  22A3  120A  118A  	fcall	_Pantalla_Limpiar
  2045     03CF                     l4451:
  2046                           
  2047                           ;aplicacion.c: 168:             if(modo == 1) {
  2048     03CF  1683               	bsf	3,5	;RP0=1, select bank1
  2049     03D0  1303               	bcf	3,6	;RP1=0, select bank1
  2050     03D1  033C               	decf	main@modo^(0+128),w
  2051     03D2  1D03               	btfss	3,2
  2052     03D3  2BD5               	goto	u5721
  2053     03D4  2BD6               	goto	u5720
  2054     03D5                     u5721:
  2055     03D5  2BE1               	goto	l4455
  2056     03D6                     u5720:
  2057     03D6                     l4453:
  2058                           
  2059                           ;aplicacion.c: 169:                 CalcStats();
  2060     03D6  120A  158A  2159  120A  118A  	fcall	_CalcStats
  2061                           
  2062                           ;aplicacion.c: 170:                 MostrarStats();
  2063     03DB  160A  158A  2771  120A  118A  	fcall	_MostrarStats
  2064                           
  2065                           ;aplicacion.c: 171:             } else {
  2066     03E0  2BFA               	goto	l4457
  2067     03E1                     l4455:
  2068                           
  2069                           ;aplicacion.c: 172:                 MostrarPrincipal(&fecha, temp, hum);
  2070     03E1  30C7               	movlw	low main@fecha
  2071     03E2  00A8               	movwf	MostrarPrincipal@t^(0+128)
  2072     03E3  3000               	movlw	high main@fecha
  2073     03E4  00A9               	movwf	(MostrarPrincipal@t^(0+128)+1)
  2074     03E5  0846               	movf	(main@temp+3)^(0+128),w
  2075     03E6  00AD               	movwf	(MostrarPrincipal@temp+3)^(0+128)
  2076     03E7  0845               	movf	(main@temp+2)^(0+128),w
  2077     03E8  00AC               	movwf	(MostrarPrincipal@temp+2)^(0+128)
  2078     03E9  0844               	movf	(main@temp+1)^(0+128),w
  2079     03EA  00AB               	movwf	(MostrarPrincipal@temp+1)^(0+128)
  2080     03EB  0843               	movf	main@temp^(0+128),w
  2081     03EC  00AA               	movwf	MostrarPrincipal@temp^(0+128)
  2082     03ED  0842               	movf	(main@hum+3)^(0+128),w
  2083     03EE  00B1               	movwf	(MostrarPrincipal@hum+3)^(0+128)
  2084     03EF  0841               	movf	(main@hum+2)^(0+128),w
  2085     03F0  00B0               	movwf	(MostrarPrincipal@hum+2)^(0+128)
  2086     03F1  0840               	movf	(main@hum+1)^(0+128),w
  2087     03F2  00AF               	movwf	(MostrarPrincipal@hum+1)^(0+128)
  2088     03F3  083F               	movf	main@hum^(0+128),w
  2089     03F4  00AE               	movwf	MostrarPrincipal@hum^(0+128)
  2090     03F5  160A  118A  2270  120A  118A  	fcall	_MostrarPrincipal
  2091     03FA                     l4457:
  2092                           
  2093                           ;aplicacion.c: 174:             _delay((unsigned long)((200)*(20000000/4000.0)));
  2094     03FA  3006               	movlw	6
  2095     03FB  1683               	bsf	3,5	;RP0=1, select bank1
  2096     03FC  1303               	bcf	3,6	;RP1=0, select bank1
  2097     03FD  00B6               	movwf	(??_main^(0+128)+2)
  2098     03FE  3013               	movlw	19
  2099     03FF  00B5               	movwf	(??_main^(0+128)+1)
  2100     0400  30AD               	movlw	173
  2101     0401  00B4               	movwf	??_main^(0+128)
  2102     0402                     u5877:
  2103     0402  0BB4               	decfsz	??_main^(0+128),f
  2104     0403  2C02               	goto	u5877
  2105     0404  0BB5               	decfsz	(??_main^(0+128)+1),f
  2106     0405  2C02               	goto	u5877
  2107     0406  0BB6               	decfsz	(??_main^(0+128)+2),f
  2108     0407  2C02               	goto	u5877
  2109     0408                     l4459:
  2110                           
  2111                           ;aplicacion.c: 177:         Reloj_ObtenerFechaHora(&fecha);
  2112     0408  30C7               	movlw	low main@fecha
  2113     0409  00FA               	movwf	Reloj_ObtenerFechaHora@fechahora
  2114     040A  3000               	movlw	high main@fecha
  2115     040B  00FB               	movwf	Reloj_ObtenerFechaHora@fechahora+1
  2116     040C  160A  118A  266E  120A  118A  	fcall	_Reloj_ObtenerFechaHora
  2117     0411                     l4461:
  2118                           
  2119                           ;aplicacion.c: 179:         if(cnt == 0) {
  2120     0411  1683               	bsf	3,5	;RP0=1, select bank1
  2121     0412  1303               	bcf	3,6	;RP1=0, select bank1
  2122     0413  0839               	movf	main@cnt^(0+128),w
  2123     0414  1D03               	btfss	3,2
  2124     0415  2C17               	goto	u5731
  2125     0416  2C18               	goto	u5730
  2126     0417                     u5731:
  2127     0417  2C33               	goto	l4467
  2128     0418                     u5730:
  2129     0418                     l4463:
  2130                           
  2131                           ;aplicacion.c: 180:             sensor_ok = SensorHumedad_ObtenerDatos(&temp, &hum);
  2132     0418  30C3               	movlw	(low (main@temp| 0))& (0+255)
  2133     0419  1283               	bcf	3,5	;RP0=0, select bank0
  2134     041A  1303               	bcf	3,6	;RP1=0, select bank0
  2135     041B  00D4               	movwf	SensorHumedad_ObtenerDatos@temperatura
  2136     041C  30BF               	movlw	(low (main@hum| 0))& (0+255)
  2137     041D  00D5               	movwf	SensorHumedad_ObtenerDatos@humedad
  2138     041E  160A  118A  2503  120A  118A  	fcall	_SensorHumedad_ObtenerDatos
  2139     0423  1683               	bsf	3,5	;RP0=1, select bank1
  2140     0424  1303               	bcf	3,6	;RP1=0, select bank1
  2141     0425  00B8               	movwf	main@sensor_ok^(0+128)
  2142     0426                     l4465:
  2143                           
  2144                           ;aplicacion.c: 181:             AgregarTemp(temp);
  2145     0426  0846               	movf	(main@temp+3)^(0+128),w
  2146     0427  00F3               	movwf	AgregarTemp@t+3
  2147     0428  0845               	movf	(main@temp+2)^(0+128),w
  2148     0429  00F2               	movwf	AgregarTemp@t+2
  2149     042A  0844               	movf	(main@temp+1)^(0+128),w
  2150     042B  00F1               	movwf	AgregarTemp@t+1
  2151     042C  0843               	movf	main@temp^(0+128),w
  2152     042D  00F0               	movwf	AgregarTemp@t
  2153     042E  160A  158A  232A  120A  118A  	fcall	_AgregarTemp
  2154     0433                     l4467:
  2155                           
  2156                           ;aplicacion.c: 184:         if(modo == 0) {
  2157     0433  1683               	bsf	3,5	;RP0=1, select bank1
  2158     0434  1303               	bcf	3,6	;RP1=0, select bank1
  2159     0435  083C               	movf	main@modo^(0+128),w
  2160     0436  1D03               	btfss	3,2
  2161     0437  2C39               	goto	u5741
  2162     0438  2C3A               	goto	u5740
  2163     0439                     u5741:
  2164     0439  2C53               	goto	l4471
  2165     043A                     u5740:
  2166     043A                     l4469:
  2167                           
  2168                           ;aplicacion.c: 185:             MostrarPrincipal(&fecha, temp, hum);
  2169     043A  30C7               	movlw	low main@fecha
  2170     043B  00A8               	movwf	MostrarPrincipal@t^(0+128)
  2171     043C  3000               	movlw	high main@fecha
  2172     043D  00A9               	movwf	(MostrarPrincipal@t^(0+128)+1)
  2173     043E  0846               	movf	(main@temp+3)^(0+128),w
  2174     043F  00AD               	movwf	(MostrarPrincipal@temp+3)^(0+128)
  2175     0440  0845               	movf	(main@temp+2)^(0+128),w
  2176     0441  00AC               	movwf	(MostrarPrincipal@temp+2)^(0+128)
  2177     0442  0844               	movf	(main@temp+1)^(0+128),w
  2178     0443  00AB               	movwf	(MostrarPrincipal@temp+1)^(0+128)
  2179     0444  0843               	movf	main@temp^(0+128),w
  2180     0445  00AA               	movwf	MostrarPrincipal@temp^(0+128)
  2181     0446  0842               	movf	(main@hum+3)^(0+128),w
  2182     0447  00B1               	movwf	(MostrarPrincipal@hum+3)^(0+128)
  2183     0448  0841               	movf	(main@hum+2)^(0+128),w
  2184     0449  00B0               	movwf	(MostrarPrincipal@hum+2)^(0+128)
  2185     044A  0840               	movf	(main@hum+1)^(0+128),w
  2186     044B  00AF               	movwf	(MostrarPrincipal@hum+1)^(0+128)
  2187     044C  083F               	movf	main@hum^(0+128),w
  2188     044D  00AE               	movwf	MostrarPrincipal@hum^(0+128)
  2189     044E  160A  118A  2270  120A  118A  	fcall	_MostrarPrincipal
  2190     0453                     l4471:
  2191                           
  2192                           ;aplicacion.c: 188:         cnt = (cnt + 1) % 5;
  2193     0453  3005               	movlw	5
  2194     0454  00F8               	movwf	___awmod@divisor
  2195     0455  3000               	movlw	0
  2196     0456  00F9               	movwf	___awmod@divisor+1
  2197     0457  1683               	bsf	3,5	;RP0=1, select bank1
  2198     0458  1303               	bcf	3,6	;RP1=0, select bank1
  2199     0459  0839               	movf	main@cnt^(0+128),w
  2200     045A  3E01               	addlw	1
  2201     045B  00FA               	movwf	___awmod@dividend
  2202     045C  3000               	movlw	0
  2203     045D  1803               	skipnc
  2204     045E  3001               	movlw	1
  2205     045F  00FB               	movwf	___awmod@dividend+1
  2206     0460  160A  158A  2601  120A  118A  	fcall	___awmod
  2207     0465  0878               	movf	?___awmod,w
  2208     0466  1683               	bsf	3,5	;RP0=1, select bank1
  2209     0467  1303               	bcf	3,6	;RP1=0, select bank1
  2210     0468  00B9               	movwf	main@cnt^(0+128)
  2211     0469                     l4473:
  2212                           
  2213                           ;aplicacion.c: 190:         if(modo == 0 && fecha.minutos % 5 == 0 && fecha.minutos != m
      +                          in_prev) {
  2214     0469  083C               	movf	main@modo^(0+128),w
  2215     046A  1D03               	btfss	3,2
  2216     046B  2C6D               	goto	u5751
  2217     046C  2C6E               	goto	u5750
  2218     046D                     u5751:
  2219     046D  2BAA               	goto	l4443
  2220     046E                     u5750:
  2221     046E                     l4475:
  2222     046E  3005               	movlw	5
  2223     046F  00F8               	movwf	___awmod@divisor
  2224     0470  3000               	movlw	0
  2225     0471  00F9               	movwf	___awmod@divisor+1
  2226     0472  0848               	movf	(main@fecha^(0+128)+1),w
  2227     0473  00B4               	movwf	??_main^(0+128)
  2228     0474  01B5               	clrf	(??_main+1)^(0+128)
  2229     0475  0834               	movf	??_main^(0+128),w
  2230     0476  00FA               	movwf	___awmod@dividend
  2231     0477  0835               	movf	(??_main+1)^(0+128),w
  2232     0478  00FB               	movwf	___awmod@dividend+1
  2233     0479  160A  158A  2601  120A  118A  	fcall	___awmod
  2234     047E  0878               	movf	?___awmod,w
  2235     047F  0479               	iorwf	?___awmod+1,w
  2236     0480  1D03               	btfss	3,2
  2237     0481  2C83               	goto	u5761
  2238     0482  2C84               	goto	u5760
  2239     0483                     u5761:
  2240     0483  2BAA               	goto	l4443
  2241     0484                     u5760:
  2242     0484                     l4477:
  2243     0484  1683               	bsf	3,5	;RP0=1, select bank1
  2244     0485  1303               	bcf	3,6	;RP1=0, select bank1
  2245     0486  0848               	movf	(main@fecha^(0+128)+1),w
  2246     0487  066E               	xorwf	main@min_prev^(0+128),w
  2247     0488  1903               	skipnz
  2248     0489  2C8B               	goto	u5771
  2249     048A  2C8C               	goto	u5770
  2250     048B                     u5771:
  2251     048B  2BAA               	goto	l4443
  2252     048C                     u5770:
  2253     048C                     l4479:
  2254                           
  2255                           ;aplicacion.c: 191:             min_prev = fecha.minutos;
  2256     048C  0848               	movf	(main@fecha^(0+128)+1),w
  2257     048D  00EE               	movwf	main@min_prev^(0+128)
  2258     048E                     l4481:
  2259                           
  2260                           ;aplicacion.c: 193:             if(sd_ok && sensor_ok && temp > -40.0 && temp < 80.0) {
  2261     048E  0837               	movf	main@sd_ok^(0+128),w
  2262     048F  1903               	btfsc	3,2
  2263     0490  2C92               	goto	u5781
  2264     0491  2C93               	goto	u5780
  2265     0492                     u5781:
  2266     0492  2BAA               	goto	l4443
  2267     0493                     u5780:
  2268     0493                     l4483:
  2269     0493  0838               	movf	main@sensor_ok^(0+128),w
  2270     0494  1903               	btfsc	3,2
  2271     0495  2C97               	goto	u5791
  2272     0496  2C98               	goto	u5790
  2273     0497                     u5791:
  2274     0497  2BAA               	goto	l4443
  2275     0498                     u5790:
  2276     0498                     l4485:
  2277     0498  30C2               	movlw	194
  2278     0499  00F3               	movwf	___flge@ff1+3
  2279     049A  3020               	movlw	32
  2280     049B  00F2               	movwf	___flge@ff1+2
  2281     049C  3000               	movlw	0
  2282     049D  00F1               	movwf	___flge@ff1+1
  2283     049E  3000               	movlw	0
  2284     049F  00F0               	movwf	___flge@ff1
  2285     04A0  0846               	movf	(main@temp+3)^(0+128),w
  2286     04A1  00F7               	movwf	___flge@ff2+3
  2287     04A2  0845               	movf	(main@temp+2)^(0+128),w
  2288     04A3  00F6               	movwf	___flge@ff2+2
  2289     04A4  0844               	movf	(main@temp+1)^(0+128),w
  2290     04A5  00F5               	movwf	___flge@ff2+1
  2291     04A6  0843               	movf	main@temp^(0+128),w
  2292     04A7  00F4               	movwf	___flge@ff2
  2293     04A8  160A  118A  211A  120A  118A  	fcall	___flge
  2294     04AD  1803               	btfsc	3,0
  2295     04AE  2CB0               	goto	u5801
  2296     04AF  2CB1               	goto	u5800
  2297     04B0                     u5801:
  2298     04B0  2BAA               	goto	l4443
  2299     04B1                     u5800:
  2300     04B1                     l4487:
  2301     04B1  1683               	bsf	3,5	;RP0=1, select bank1
  2302     04B2  1303               	bcf	3,6	;RP1=0, select bank1
  2303     04B3  0846               	movf	(main@temp+3)^(0+128),w
  2304     04B4  00F3               	movwf	___flge@ff1+3
  2305     04B5  0845               	movf	(main@temp+2)^(0+128),w
  2306     04B6  00F2               	movwf	___flge@ff1+2
  2307     04B7  0844               	movf	(main@temp+1)^(0+128),w
  2308     04B8  00F1               	movwf	___flge@ff1+1
  2309     04B9  0843               	movf	main@temp^(0+128),w
  2310     04BA  00F0               	movwf	___flge@ff1
  2311     04BB  3042               	movlw	66
  2312     04BC  00F7               	movwf	___flge@ff2+3
  2313     04BD  30A0               	movlw	160
  2314     04BE  00F6               	movwf	___flge@ff2+2
  2315     04BF  3000               	movlw	0
  2316     04C0  00F5               	movwf	___flge@ff2+1
  2317     04C1  3000               	movlw	0
  2318     04C2  00F4               	movwf	___flge@ff2
  2319     04C3  160A  118A  211A  120A  118A  	fcall	___flge
  2320     04C8  1803               	btfsc	3,0
  2321     04C9  2CCB               	goto	u5811
  2322     04CA  2CCC               	goto	u5810
  2323     04CB                     u5811:
  2324     04CB  2BAA               	goto	l4443
  2325     04CC                     u5810:
  2326     04CC                     l4489:
  2327                           
  2328                           ;aplicacion.c: 194:                 pos = 0;
  2329     04CC  1683               	bsf	3,5	;RP0=1, select bank1
  2330     04CD  1303               	bcf	3,6	;RP1=0, select bank1
  2331     04CE  01CE               	clrf	main@pos^(0+128)
  2332     04CF                     l4491:
  2333                           
  2334                           ;aplicacion.c: 196:                 buffer_datos[pos++] = '0' + (fecha.fecha / 10);
  2335     04CF  084E               	movf	main@pos^(0+128),w
  2336     04D0  3E98               	addlw	(low (_buffer_datos| (0+256)))& (0+255)
  2337     04D1  0084               	movwf	4
  2338     04D2  300A               	movlw	10
  2339     04D3  00F0               	movwf	___awdiv@divisor
  2340     04D4  3000               	movlw	0
  2341     04D5  00F1               	movwf	___awdiv@divisor+1
  2342     04D6  084B               	movf	(main@fecha^(0+128)+4),w
  2343     04D7  00B4               	movwf	??_main^(0+128)
  2344     04D8  01B5               	clrf	(??_main+1)^(0+128)
  2345     04D9  0834               	movf	??_main^(0+128),w
  2346     04DA  00F2               	movwf	___awdiv@dividend
  2347     04DB  0835               	movf	(??_main+1)^(0+128),w
  2348     04DC  00F3               	movwf	___awdiv@dividend+1
  2349     04DD  160A  118A  2025  120A  118A  	fcall	___awdiv
  2350     04E2  0870               	movf	?___awdiv,w
  2351     04E3  3E30               	addlw	48
  2352     04E4  1783               	bsf	3,7	;select IRP bank3
  2353     04E5  0080               	movwf	0
  2354     04E6                     l4493:
  2355     04E6  3001               	movlw	1
  2356     04E7  1683               	bsf	3,5	;RP0=1, select bank1
  2357     04E8  1303               	bcf	3,6	;RP1=0, select bank1
  2358     04E9  07CE               	addwf	main@pos^(0+128),f
  2359     04EA                     l4495:
  2360                           
  2361                           ;aplicacion.c: 197:                 buffer_datos[pos++] = '0' + (fecha.fecha % 10);
  2362     04EA  084E               	movf	main@pos^(0+128),w
  2363     04EB  3E98               	addlw	(low (_buffer_datos| (0+256)))& (0+255)
  2364     04EC  0084               	movwf	4
  2365     04ED  300A               	movlw	10
  2366     04EE  00F8               	movwf	___awmod@divisor
  2367     04EF  3000               	movlw	0
  2368     04F0  00F9               	movwf	___awmod@divisor+1
  2369     04F1  084B               	movf	(main@fecha^(0+128)+4),w
  2370     04F2  00B4               	movwf	??_main^(0+128)
  2371     04F3  01B5               	clrf	(??_main+1)^(0+128)
  2372     04F4  0834               	movf	??_main^(0+128),w
  2373     04F5  00FA               	movwf	___awmod@dividend
  2374     04F6  0835               	movf	(??_main+1)^(0+128),w
  2375     04F7  00FB               	movwf	___awmod@dividend+1
  2376     04F8  160A  158A  2601  120A  118A  	fcall	___awmod
  2377     04FD  0878               	movf	?___awmod,w
  2378     04FE  3E30               	addlw	48
  2379     04FF  1783               	bsf	3,7	;select IRP bank3
  2380     0500  0080               	movwf	0
  2381     0501                     l4497:
  2382     0501  3001               	movlw	1
  2383     0502  1683               	bsf	3,5	;RP0=1, select bank1
  2384     0503  1303               	bcf	3,6	;RP1=0, select bank1
  2385     0504  07CE               	addwf	main@pos^(0+128),f
  2386     0505                     l4499:
  2387                           
  2388                           ;aplicacion.c: 198:                 buffer_datos[pos++] = '/';
  2389     0505  084E               	movf	main@pos^(0+128),w
  2390     0506  3E98               	addlw	(low (_buffer_datos| (0+256)))& (0+255)
  2391     0507  0084               	movwf	4
  2392     0508  302F               	movlw	47
  2393     0509  0080               	movwf	0
  2394     050A                     l4501:
  2395     050A  3001               	movlw	1
  2396     050B  07CE               	addwf	main@pos^(0+128),f
  2397     050C                     l4503:
  2398                           
  2399                           ;aplicacion.c: 199:                 buffer_datos[pos++] = '0' + (fecha.mes / 10);
  2400     050C  084E               	movf	main@pos^(0+128),w
  2401     050D  3E98               	addlw	(low (_buffer_datos| (0+256)))& (0+255)
  2402     050E  0084               	movwf	4
  2403     050F  300A               	movlw	10
  2404     0510  00F0               	movwf	___awdiv@divisor
  2405     0511  3000               	movlw	0
  2406     0512  00F1               	movwf	___awdiv@divisor+1
  2407     0513  084C               	movf	(main@fecha^(0+128)+5),w
  2408     0514  00B4               	movwf	??_main^(0+128)
  2409     0515  01B5               	clrf	(??_main+1)^(0+128)
  2410     0516  0834               	movf	??_main^(0+128),w
  2411     0517  00F2               	movwf	___awdiv@dividend
  2412     0518  0835               	movf	(??_main+1)^(0+128),w
  2413     0519  00F3               	movwf	___awdiv@dividend+1
  2414     051A  160A  118A  2025  120A  118A  	fcall	___awdiv
  2415     051F  0870               	movf	?___awdiv,w
  2416     0520  3E30               	addlw	48
  2417     0521  1783               	bsf	3,7	;select IRP bank3
  2418     0522  0080               	movwf	0
  2419     0523                     l4505:
  2420     0523  3001               	movlw	1
  2421     0524  1683               	bsf	3,5	;RP0=1, select bank1
  2422     0525  1303               	bcf	3,6	;RP1=0, select bank1
  2423     0526  07CE               	addwf	main@pos^(0+128),f
  2424     0527                     l4507:
  2425                           
  2426                           ;aplicacion.c: 200:                 buffer_datos[pos++] = '0' + (fecha.mes % 10);
  2427     0527  084E               	movf	main@pos^(0+128),w
  2428     0528  3E98               	addlw	(low (_buffer_datos| (0+256)))& (0+255)
  2429     0529  0084               	movwf	4
  2430     052A  300A               	movlw	10
  2431     052B  00F8               	movwf	___awmod@divisor
  2432     052C  3000               	movlw	0
  2433     052D  00F9               	movwf	___awmod@divisor+1
  2434     052E  084C               	movf	(main@fecha^(0+128)+5),w
  2435     052F  00B4               	movwf	??_main^(0+128)
  2436     0530  01B5               	clrf	(??_main+1)^(0+128)
  2437     0531  0834               	movf	??_main^(0+128),w
  2438     0532  00FA               	movwf	___awmod@dividend
  2439     0533  0835               	movf	(??_main+1)^(0+128),w
  2440     0534  00FB               	movwf	___awmod@dividend+1
  2441     0535  160A  158A  2601  120A  118A  	fcall	___awmod
  2442     053A  0878               	movf	?___awmod,w
  2443     053B  3E30               	addlw	48
  2444     053C  1783               	bsf	3,7	;select IRP bank3
  2445     053D  0080               	movwf	0
  2446     053E                     l4509:
  2447     053E  3001               	movlw	1
  2448     053F  1683               	bsf	3,5	;RP0=1, select bank1
  2449     0540  1303               	bcf	3,6	;RP1=0, select bank1
  2450     0541  07CE               	addwf	main@pos^(0+128),f
  2451     0542                     l4511:
  2452                           
  2453                           ;aplicacion.c: 201:                 buffer_datos[pos++] = '/';
  2454     0542  084E               	movf	main@pos^(0+128),w
  2455     0543  3E98               	addlw	(low (_buffer_datos| (0+256)))& (0+255)
  2456     0544  0084               	movwf	4
  2457     0545  302F               	movlw	47
  2458     0546  0080               	movwf	0
  2459     0547                     l4513:
  2460     0547  3001               	movlw	1
  2461     0548  07CE               	addwf	main@pos^(0+128),f
  2462     0549                     l4515:
  2463                           
  2464                           ;aplicacion.c: 202:                 buffer_datos[pos++] = '0' + (fecha.anio / 10);
  2465     0549  084E               	movf	main@pos^(0+128),w
  2466     054A  3E98               	addlw	(low (_buffer_datos| (0+256)))& (0+255)
  2467     054B  0084               	movwf	4
  2468     054C  300A               	movlw	10
  2469     054D  00F0               	movwf	___awdiv@divisor
  2470     054E  3000               	movlw	0
  2471     054F  00F1               	movwf	___awdiv@divisor+1
  2472     0550  084D               	movf	(main@fecha^(0+128)+6),w
  2473     0551  00B4               	movwf	??_main^(0+128)
  2474     0552  01B5               	clrf	(??_main+1)^(0+128)
  2475     0553  0834               	movf	??_main^(0+128),w
  2476     0554  00F2               	movwf	___awdiv@dividend
  2477     0555  0835               	movf	(??_main+1)^(0+128),w
  2478     0556  00F3               	movwf	___awdiv@dividend+1
  2479     0557  160A  118A  2025  120A  118A  	fcall	___awdiv
  2480     055C  0870               	movf	?___awdiv,w
  2481     055D  3E30               	addlw	48
  2482     055E  1783               	bsf	3,7	;select IRP bank3
  2483     055F  0080               	movwf	0
  2484     0560                     l4517:
  2485     0560  3001               	movlw	1
  2486     0561  1683               	bsf	3,5	;RP0=1, select bank1
  2487     0562  1303               	bcf	3,6	;RP1=0, select bank1
  2488     0563  07CE               	addwf	main@pos^(0+128),f
  2489     0564                     l4519:
  2490                           
  2491                           ;aplicacion.c: 203:                 buffer_datos[pos++] = '0' + (fecha.anio % 10);
  2492     0564  084E               	movf	main@pos^(0+128),w
  2493     0565  3E98               	addlw	(low (_buffer_datos| (0+256)))& (0+255)
  2494     0566  0084               	movwf	4
  2495     0567  300A               	movlw	10
  2496     0568  00F8               	movwf	___awmod@divisor
  2497     0569  3000               	movlw	0
  2498     056A  00F9               	movwf	___awmod@divisor+1
  2499     056B  084D               	movf	(main@fecha^(0+128)+6),w
  2500     056C  00B4               	movwf	??_main^(0+128)
  2501     056D  01B5               	clrf	(??_main+1)^(0+128)
  2502     056E  0834               	movf	??_main^(0+128),w
  2503     056F  00FA               	movwf	___awmod@dividend
  2504     0570  0835               	movf	(??_main+1)^(0+128),w
  2505     0571  00FB               	movwf	___awmod@dividend+1
  2506     0572  160A  158A  2601  120A  118A  	fcall	___awmod
  2507     0577  0878               	movf	?___awmod,w
  2508     0578  3E30               	addlw	48
  2509     0579  1783               	bsf	3,7	;select IRP bank3
  2510     057A  0080               	movwf	0
  2511     057B                     l4521:
  2512     057B  3001               	movlw	1
  2513     057C  1683               	bsf	3,5	;RP0=1, select bank1
  2514     057D  1303               	bcf	3,6	;RP1=0, select bank1
  2515     057E  07CE               	addwf	main@pos^(0+128),f
  2516     057F                     l4523:
  2517                           
  2518                           ;aplicacion.c: 204:                 buffer_datos[pos++] = ',';
  2519     057F  084E               	movf	main@pos^(0+128),w
  2520     0580  3E98               	addlw	(low (_buffer_datos| (0+256)))& (0+255)
  2521     0581  0084               	movwf	4
  2522     0582  302C               	movlw	44
  2523     0583  0080               	movwf	0
  2524     0584                     l4525:
  2525     0584  3001               	movlw	1
  2526     0585  07CE               	addwf	main@pos^(0+128),f
  2527     0586                     l4527:
  2528                           
  2529                           ;aplicacion.c: 206:                 buffer_datos[pos++] = '0' + (fecha.horas / 10);
  2530     0586  084E               	movf	main@pos^(0+128),w
  2531     0587  3E98               	addlw	(low (_buffer_datos| (0+256)))& (0+255)
  2532     0588  0084               	movwf	4
  2533     0589  300A               	movlw	10
  2534     058A  00F0               	movwf	___awdiv@divisor
  2535     058B  3000               	movlw	0
  2536     058C  00F1               	movwf	___awdiv@divisor+1
  2537     058D  0849               	movf	(main@fecha^(0+128)+2),w
  2538     058E  00B4               	movwf	??_main^(0+128)
  2539     058F  01B5               	clrf	(??_main+1)^(0+128)
  2540     0590  0834               	movf	??_main^(0+128),w
  2541     0591  00F2               	movwf	___awdiv@dividend
  2542     0592  0835               	movf	(??_main+1)^(0+128),w
  2543     0593  00F3               	movwf	___awdiv@dividend+1
  2544     0594  160A  118A  2025  120A  118A  	fcall	___awdiv
  2545     0599  0870               	movf	?___awdiv,w
  2546     059A  3E30               	addlw	48
  2547     059B  1783               	bsf	3,7	;select IRP bank3
  2548     059C  0080               	movwf	0
  2549     059D                     l4529:
  2550     059D  3001               	movlw	1
  2551     059E  1683               	bsf	3,5	;RP0=1, select bank1
  2552     059F  1303               	bcf	3,6	;RP1=0, select bank1
  2553     05A0  07CE               	addwf	main@pos^(0+128),f
  2554     05A1                     l4531:
  2555                           
  2556                           ;aplicacion.c: 207:                 buffer_datos[pos++] = '0' + (fecha.horas % 10);
  2557     05A1  084E               	movf	main@pos^(0+128),w
  2558     05A2  3E98               	addlw	(low (_buffer_datos| (0+256)))& (0+255)
  2559     05A3  0084               	movwf	4
  2560     05A4  300A               	movlw	10
  2561     05A5  00F8               	movwf	___awmod@divisor
  2562     05A6  3000               	movlw	0
  2563     05A7  00F9               	movwf	___awmod@divisor+1
  2564     05A8  0849               	movf	(main@fecha^(0+128)+2),w
  2565     05A9  00B4               	movwf	??_main^(0+128)
  2566     05AA  01B5               	clrf	(??_main+1)^(0+128)
  2567     05AB  0834               	movf	??_main^(0+128),w
  2568     05AC  00FA               	movwf	___awmod@dividend
  2569     05AD  0835               	movf	(??_main+1)^(0+128),w
  2570     05AE  00FB               	movwf	___awmod@dividend+1
  2571     05AF  160A  158A  2601  120A  118A  	fcall	___awmod
  2572     05B4  0878               	movf	?___awmod,w
  2573     05B5  3E30               	addlw	48
  2574     05B6  1783               	bsf	3,7	;select IRP bank3
  2575     05B7  0080               	movwf	0
  2576     05B8                     l4533:
  2577     05B8  3001               	movlw	1
  2578     05B9  1683               	bsf	3,5	;RP0=1, select bank1
  2579     05BA  1303               	bcf	3,6	;RP1=0, select bank1
  2580     05BB  07CE               	addwf	main@pos^(0+128),f
  2581     05BC                     l4535:
  2582                           
  2583                           ;aplicacion.c: 208:                 buffer_datos[pos++] = ':';
  2584     05BC  084E               	movf	main@pos^(0+128),w
  2585     05BD  3E98               	addlw	(low (_buffer_datos| (0+256)))& (0+255)
  2586     05BE  0084               	movwf	4
  2587     05BF  303A               	movlw	58
  2588     05C0  0080               	movwf	0
  2589     05C1                     l4537:
  2590     05C1  3001               	movlw	1
  2591     05C2  07CE               	addwf	main@pos^(0+128),f
  2592     05C3                     l4539:
  2593                           
  2594                           ;aplicacion.c: 209:                 buffer_datos[pos++] = '0' + (fecha.minutos / 10);
  2595     05C3  084E               	movf	main@pos^(0+128),w
  2596     05C4  3E98               	addlw	(low (_buffer_datos| (0+256)))& (0+255)
  2597     05C5  0084               	movwf	4
  2598     05C6  300A               	movlw	10
  2599     05C7  00F0               	movwf	___awdiv@divisor
  2600     05C8  3000               	movlw	0
  2601     05C9  00F1               	movwf	___awdiv@divisor+1
  2602     05CA  0848               	movf	(main@fecha^(0+128)+1),w
  2603     05CB  00B4               	movwf	??_main^(0+128)
  2604     05CC  01B5               	clrf	(??_main+1)^(0+128)
  2605     05CD  0834               	movf	??_main^(0+128),w
  2606     05CE  00F2               	movwf	___awdiv@dividend
  2607     05CF  0835               	movf	(??_main+1)^(0+128),w
  2608     05D0  00F3               	movwf	___awdiv@dividend+1
  2609     05D1  160A  118A  2025  120A  118A  	fcall	___awdiv
  2610     05D6  0870               	movf	?___awdiv,w
  2611     05D7  3E30               	addlw	48
  2612     05D8  1783               	bsf	3,7	;select IRP bank3
  2613     05D9  0080               	movwf	0
  2614     05DA                     l4541:
  2615     05DA  3001               	movlw	1
  2616     05DB  1683               	bsf	3,5	;RP0=1, select bank1
  2617     05DC  1303               	bcf	3,6	;RP1=0, select bank1
  2618     05DD  07CE               	addwf	main@pos^(0+128),f
  2619     05DE                     l4543:
  2620                           
  2621                           ;aplicacion.c: 210:                 buffer_datos[pos++] = '0' + (fecha.minutos % 10);
  2622     05DE  084E               	movf	main@pos^(0+128),w
  2623     05DF  3E98               	addlw	(low (_buffer_datos| (0+256)))& (0+255)
  2624     05E0  0084               	movwf	4
  2625     05E1  300A               	movlw	10
  2626     05E2  00F8               	movwf	___awmod@divisor
  2627     05E3  3000               	movlw	0
  2628     05E4  00F9               	movwf	___awmod@divisor+1
  2629     05E5  0848               	movf	(main@fecha^(0+128)+1),w
  2630     05E6  00B4               	movwf	??_main^(0+128)
  2631     05E7  01B5               	clrf	(??_main+1)^(0+128)
  2632     05E8  0834               	movf	??_main^(0+128),w
  2633     05E9  00FA               	movwf	___awmod@dividend
  2634     05EA  0835               	movf	(??_main+1)^(0+128),w
  2635     05EB  00FB               	movwf	___awmod@dividend+1
  2636     05EC  160A  158A  2601  120A  118A  	fcall	___awmod
  2637     05F1  0878               	movf	?___awmod,w
  2638     05F2  3E30               	addlw	48
  2639     05F3  1783               	bsf	3,7	;select IRP bank3
  2640     05F4  0080               	movwf	0
  2641     05F5                     l4545:
  2642     05F5  3001               	movlw	1
  2643     05F6  1683               	bsf	3,5	;RP0=1, select bank1
  2644     05F7  1303               	bcf	3,6	;RP1=0, select bank1
  2645     05F8  07CE               	addwf	main@pos^(0+128),f
  2646     05F9                     l4547:
  2647                           
  2648                           ;aplicacion.c: 211:                 buffer_datos[pos++] = ',';
  2649     05F9  084E               	movf	main@pos^(0+128),w
  2650     05FA  3E98               	addlw	(low (_buffer_datos| (0+256)))& (0+255)
  2651     05FB  0084               	movwf	4
  2652     05FC  302C               	movlw	44
  2653     05FD  0080               	movwf	0
  2654     05FE                     l4549:
  2655     05FE  3001               	movlw	1
  2656     05FF  07CE               	addwf	main@pos^(0+128),f
  2657     0600                     l4551:
  2658                           
  2659                           ;aplicacion.c: 213:                 t10 = (int16_t)(temp * 10.0 + 0.5);
  2660     0600  0846               	movf	(main@temp+3)^(0+128),w
  2661     0601  1283               	bcf	3,5	;RP0=0, select bank0
  2662     0602  1303               	bcf	3,6	;RP1=0, select bank0
  2663     0603  00C1               	movwf	___flmul@a+3
  2664     0604  1683               	bsf	3,5	;RP0=1, select bank1
  2665     0605  1303               	bcf	3,6	;RP1=0, select bank1
  2666     0606  0845               	movf	(main@temp+2)^(0+128),w
  2667     0607  1283               	bcf	3,5	;RP0=0, select bank0
  2668     0608  1303               	bcf	3,6	;RP1=0, select bank0
  2669     0609  00C0               	movwf	___flmul@a+2
  2670     060A  1683               	bsf	3,5	;RP0=1, select bank1
  2671     060B  1303               	bcf	3,6	;RP1=0, select bank1
  2672     060C  0844               	movf	(main@temp+1)^(0+128),w
  2673     060D  1283               	bcf	3,5	;RP0=0, select bank0
  2674     060E  1303               	bcf	3,6	;RP1=0, select bank0
  2675     060F  00BF               	movwf	___flmul@a+1
  2676     0610  1683               	bsf	3,5	;RP0=1, select bank1
  2677     0611  1303               	bcf	3,6	;RP1=0, select bank1
  2678     0612  0843               	movf	main@temp^(0+128),w
  2679     0613  1283               	bcf	3,5	;RP0=0, select bank0
  2680     0614  1303               	bcf	3,6	;RP1=0, select bank0
  2681     0615  00BE               	movwf	___flmul@a
  2682     0616  3041               	movlw	65
  2683     0617  00BD               	movwf	___flmul@b+3
  2684     0618  3020               	movlw	32
  2685     0619  00BC               	movwf	___flmul@b+2
  2686     061A  3000               	movlw	0
  2687     061B  00BB               	movwf	___flmul@b+1
  2688     061C  3000               	movlw	0
  2689     061D  00BA               	movwf	___flmul@b
  2690     061E  120A  158A  24BE  120A  118A  	fcall	___flmul
  2691     0623  1283               	bcf	3,5	;RP0=0, select bank0
  2692     0624  1303               	bcf	3,6	;RP1=0, select bank0
  2693     0625  083D               	movf	?___flmul+3,w
  2694     0626  00DB               	movwf	___fladd@a+3
  2695     0627  083C               	movf	?___flmul+2,w
  2696     0628  00DA               	movwf	___fladd@a+2
  2697     0629  083B               	movf	?___flmul+1,w
  2698     062A  00D9               	movwf	___fladd@a+1
  2699     062B  083A               	movf	?___flmul,w
  2700     062C  00D8               	movwf	___fladd@a
  2701     062D  303F               	movlw	63
  2702     062E  00D7               	movwf	___fladd@b+3
  2703     062F  3000               	movlw	0
  2704     0630  00D6               	movwf	___fladd@b+2
  2705     0631  3000               	movlw	0
  2706     0632  00D5               	movwf	___fladd@b+1
  2707     0633  3000               	movlw	0
  2708     0634  00D4               	movwf	___fladd@b
  2709     0635  120A  118A  2078  120A  118A  	fcall	___fladd
  2710     063A  1283               	bcf	3,5	;RP0=0, select bank0
  2711     063B  1303               	bcf	3,6	;RP1=0, select bank0
  2712     063C  0857               	movf	?___fladd+3,w
  2713     063D  00EB               	movwf	___fltol@f1+3
  2714     063E  0856               	movf	?___fladd+2,w
  2715     063F  00EA               	movwf	___fltol@f1+2
  2716     0640  0855               	movf	?___fladd+1,w
  2717     0641  00E9               	movwf	___fltol@f1+1
  2718     0642  0854               	movf	?___fladd,w
  2719     0643  00E8               	movwf	___fltol@f1
  2720     0644  160A  158A  2658  120A  118A  	fcall	___fltol
  2721     0649  1283               	bcf	3,5	;RP0=0, select bank0
  2722     064A  1303               	bcf	3,6	;RP1=0, select bank0
  2723     064B  0869               	movf	?___fltol+1,w
  2724     064C  1683               	bsf	3,5	;RP0=1, select bank1
  2725     064D  1303               	bcf	3,6	;RP1=0, select bank1
  2726     064E  00BE               	movwf	(main@t10+1)^(0+128)
  2727     064F  1283               	bcf	3,5	;RP0=0, select bank0
  2728     0650  1303               	bcf	3,6	;RP1=0, select bank0
  2729     0651  0868               	movf	?___fltol,w
  2730     0652  1683               	bsf	3,5	;RP0=1, select bank1
  2731     0653  1303               	bcf	3,6	;RP1=0, select bank1
  2732     0654  00BD               	movwf	main@t10^(0+128)
  2733     0655                     l4553:
  2734                           
  2735                           ;aplicacion.c: 214:                 if(t10 < 0) {
  2736     0655  1FBE               	btfss	(main@t10+1)^(0+128),7
  2737     0656  2E58               	goto	u5821
  2738     0657  2E59               	goto	u5820
  2739     0658                     u5821:
  2740     0658  2E66               	goto	l4561
  2741     0659                     u5820:
  2742     0659                     l4555:
  2743                           
  2744                           ;aplicacion.c: 215:                     buffer_datos[pos++] = '-';
  2745     0659  084E               	movf	main@pos^(0+128),w
  2746     065A  3E98               	addlw	(low (_buffer_datos| (0+256)))& (0+255)
  2747     065B  0084               	movwf	4
  2748     065C  302D               	movlw	45
  2749     065D  1783               	bsf	3,7	;select IRP bank3
  2750     065E  0080               	movwf	0
  2751     065F                     l4557:
  2752     065F  3001               	movlw	1
  2753     0660  07CE               	addwf	main@pos^(0+128),f
  2754     0661                     l4559:
  2755                           
  2756                           ;aplicacion.c: 216:                     t10 = -t10;
  2757     0661  09BD               	comf	main@t10^(0+128),f
  2758     0662  09BE               	comf	(main@t10+1)^(0+128),f
  2759     0663  0ABD               	incf	main@t10^(0+128),f
  2760     0664  1903               	skipnz
  2761     0665  0ABE               	incf	(main@t10+1)^(0+128),f
  2762     0666                     l4561:
  2763                           
  2764                           ;aplicacion.c: 218:                 buffer_datos[pos++] = '0' + (t10 / 100);
  2765     0666  084E               	movf	main@pos^(0+128),w
  2766     0667  3E98               	addlw	(low (_buffer_datos| (0+256)))& (0+255)
  2767     0668  0084               	movwf	4
  2768     0669  3064               	movlw	100
  2769     066A  00F0               	movwf	___awdiv@divisor
  2770     066B  3000               	movlw	0
  2771     066C  00F1               	movwf	___awdiv@divisor+1
  2772     066D  083E               	movf	(main@t10+1)^(0+128),w
  2773     066E  00F3               	movwf	___awdiv@dividend+1
  2774     066F  083D               	movf	main@t10^(0+128),w
  2775     0670  00F2               	movwf	___awdiv@dividend
  2776     0671  160A  118A  2025  120A  118A  	fcall	___awdiv
  2777     0676  0870               	movf	?___awdiv,w
  2778     0677  3E30               	addlw	48
  2779     0678  1783               	bsf	3,7	;select IRP bank3
  2780     0679  0080               	movwf	0
  2781     067A                     l4563:
  2782     067A  3001               	movlw	1
  2783     067B  1683               	bsf	3,5	;RP0=1, select bank1
  2784     067C  1303               	bcf	3,6	;RP1=0, select bank1
  2785     067D  07CE               	addwf	main@pos^(0+128),f
  2786     067E                     l4565:
  2787                           
  2788                           ;aplicacion.c: 219:                 buffer_datos[pos++] = '0' + ((t10 / 10) % 10);
  2789     067E  084E               	movf	main@pos^(0+128),w
  2790     067F  3E98               	addlw	(low (_buffer_datos| (0+256)))& (0+255)
  2791     0680  0084               	movwf	4
  2792     0681  300A               	movlw	10
  2793     0682  00F8               	movwf	___awmod@divisor
  2794     0683  3000               	movlw	0
  2795     0684  00F9               	movwf	___awmod@divisor+1
  2796     0685  300A               	movlw	10
  2797     0686  00F0               	movwf	___awdiv@divisor
  2798     0687  3000               	movlw	0
  2799     0688  00F1               	movwf	___awdiv@divisor+1
  2800     0689  083E               	movf	(main@t10+1)^(0+128),w
  2801     068A  00F3               	movwf	___awdiv@dividend+1
  2802     068B  083D               	movf	main@t10^(0+128),w
  2803     068C  00F2               	movwf	___awdiv@dividend
  2804     068D  160A  118A  2025  120A  118A  	fcall	___awdiv
  2805     0692  0871               	movf	?___awdiv+1,w
  2806     0693  00FB               	movwf	___awmod@dividend+1
  2807     0694  0870               	movf	?___awdiv,w
  2808     0695  00FA               	movwf	___awmod@dividend
  2809     0696  160A  158A  2601  120A  118A  	fcall	___awmod
  2810     069B  0878               	movf	?___awmod,w
  2811     069C  3E30               	addlw	48
  2812     069D  1783               	bsf	3,7	;select IRP bank3
  2813     069E  0080               	movwf	0
  2814     069F                     l4567:
  2815     069F  3001               	movlw	1
  2816     06A0  1683               	bsf	3,5	;RP0=1, select bank1
  2817     06A1  1303               	bcf	3,6	;RP1=0, select bank1
  2818     06A2  07CE               	addwf	main@pos^(0+128),f
  2819     06A3                     l4569:
  2820                           
  2821                           ;aplicacion.c: 220:                 buffer_datos[pos++] = '.';
  2822     06A3  084E               	movf	main@pos^(0+128),w
  2823     06A4  3E98               	addlw	(low (_buffer_datos| (0+256)))& (0+255)
  2824     06A5  0084               	movwf	4
  2825     06A6  302E               	movlw	46
  2826     06A7  0080               	movwf	0
  2827     06A8                     l4571:
  2828     06A8  3001               	movlw	1
  2829     06A9  07CE               	addwf	main@pos^(0+128),f
  2830     06AA                     l4573:
  2831                           
  2832                           ;aplicacion.c: 221:                 buffer_datos[pos++] = '0' + (t10 % 10);
  2833     06AA  084E               	movf	main@pos^(0+128),w
  2834     06AB  3E98               	addlw	(low (_buffer_datos| (0+256)))& (0+255)
  2835     06AC  0084               	movwf	4
  2836     06AD  300A               	movlw	10
  2837     06AE  00F8               	movwf	___awmod@divisor
  2838     06AF  3000               	movlw	0
  2839     06B0  00F9               	movwf	___awmod@divisor+1
  2840     06B1  083E               	movf	(main@t10+1)^(0+128),w
  2841     06B2  00FB               	movwf	___awmod@dividend+1
  2842     06B3  083D               	movf	main@t10^(0+128),w
  2843     06B4  00FA               	movwf	___awmod@dividend
  2844     06B5  160A  158A  2601  120A  118A  	fcall	___awmod
  2845     06BA  0878               	movf	?___awmod,w
  2846     06BB  3E30               	addlw	48
  2847     06BC  1783               	bsf	3,7	;select IRP bank3
  2848     06BD  0080               	movwf	0
  2849     06BE                     l4575:
  2850     06BE  3001               	movlw	1
  2851     06BF  1683               	bsf	3,5	;RP0=1, select bank1
  2852     06C0  1303               	bcf	3,6	;RP1=0, select bank1
  2853     06C1  07CE               	addwf	main@pos^(0+128),f
  2854     06C2                     l4577:
  2855                           
  2856                           ;aplicacion.c: 222:                 buffer_datos[pos++] = ',';
  2857     06C2  084E               	movf	main@pos^(0+128),w
  2858     06C3  3E98               	addlw	(low (_buffer_datos| (0+256)))& (0+255)
  2859     06C4  0084               	movwf	4
  2860     06C5  302C               	movlw	44
  2861     06C6  0080               	movwf	0
  2862     06C7                     l4579:
  2863     06C7  3001               	movlw	1
  2864     06C8  07CE               	addwf	main@pos^(0+128),f
  2865     06C9                     l4581:
  2866                           
  2867                           ;aplicacion.c: 224:                 h10 = (uint16_t)(hum * 10.0 + 0.5);
  2868     06C9  0842               	movf	(main@hum+3)^(0+128),w
  2869     06CA  1283               	bcf	3,5	;RP0=0, select bank0
  2870     06CB  1303               	bcf	3,6	;RP1=0, select bank0
  2871     06CC  00C1               	movwf	___flmul@a+3
  2872     06CD  1683               	bsf	3,5	;RP0=1, select bank1
  2873     06CE  1303               	bcf	3,6	;RP1=0, select bank1
  2874     06CF  0841               	movf	(main@hum+2)^(0+128),w
  2875     06D0  1283               	bcf	3,5	;RP0=0, select bank0
  2876     06D1  1303               	bcf	3,6	;RP1=0, select bank0
  2877     06D2  00C0               	movwf	___flmul@a+2
  2878     06D3  1683               	bsf	3,5	;RP0=1, select bank1
  2879     06D4  1303               	bcf	3,6	;RP1=0, select bank1
  2880     06D5  0840               	movf	(main@hum+1)^(0+128),w
  2881     06D6  1283               	bcf	3,5	;RP0=0, select bank0
  2882     06D7  1303               	bcf	3,6	;RP1=0, select bank0
  2883     06D8  00BF               	movwf	___flmul@a+1
  2884     06D9  1683               	bsf	3,5	;RP0=1, select bank1
  2885     06DA  1303               	bcf	3,6	;RP1=0, select bank1
  2886     06DB  083F               	movf	main@hum^(0+128),w
  2887     06DC  1283               	bcf	3,5	;RP0=0, select bank0
  2888     06DD  1303               	bcf	3,6	;RP1=0, select bank0
  2889     06DE  00BE               	movwf	___flmul@a
  2890     06DF  3041               	movlw	65
  2891     06E0  00BD               	movwf	___flmul@b+3
  2892     06E1  3020               	movlw	32
  2893     06E2  00BC               	movwf	___flmul@b+2
  2894     06E3  3000               	movlw	0
  2895     06E4  00BB               	movwf	___flmul@b+1
  2896     06E5  3000               	movlw	0
  2897     06E6  00BA               	movwf	___flmul@b
  2898     06E7  120A  158A  24BE  120A  118A  	fcall	___flmul
  2899     06EC  1283               	bcf	3,5	;RP0=0, select bank0
  2900     06ED  1303               	bcf	3,6	;RP1=0, select bank0
  2901     06EE  083D               	movf	?___flmul+3,w
  2902     06EF  00DB               	movwf	___fladd@a+3
  2903     06F0  083C               	movf	?___flmul+2,w
  2904     06F1  00DA               	movwf	___fladd@a+2
  2905     06F2  083B               	movf	?___flmul+1,w
  2906     06F3  00D9               	movwf	___fladd@a+1
  2907     06F4  083A               	movf	?___flmul,w
  2908     06F5  00D8               	movwf	___fladd@a
  2909     06F6  303F               	movlw	63
  2910     06F7  00D7               	movwf	___fladd@b+3
  2911     06F8  3000               	movlw	0
  2912     06F9  00D6               	movwf	___fladd@b+2
  2913     06FA  3000               	movlw	0
  2914     06FB  00D5               	movwf	___fladd@b+1
  2915     06FC  3000               	movlw	0
  2916     06FD  00D4               	movwf	___fladd@b
  2917     06FE  120A  118A  2078  120A  118A  	fcall	___fladd
  2918     0703  1283               	bcf	3,5	;RP0=0, select bank0
  2919     0704  1303               	bcf	3,6	;RP1=0, select bank0
  2920     0705  0857               	movf	?___fladd+3,w
  2921     0706  00EB               	movwf	___fltol@f1+3
  2922     0707  0856               	movf	?___fladd+2,w
  2923     0708  00EA               	movwf	___fltol@f1+2
  2924     0709  0855               	movf	?___fladd+1,w
  2925     070A  00E9               	movwf	___fltol@f1+1
  2926     070B  0854               	movf	?___fladd,w
  2927     070C  00E8               	movwf	___fltol@f1
  2928     070D  160A  158A  2658  120A  118A  	fcall	___fltol
  2929     0712  1283               	bcf	3,5	;RP0=0, select bank0
  2930     0713  1303               	bcf	3,6	;RP1=0, select bank0
  2931     0714  0869               	movf	?___fltol+1,w
  2932     0715  1683               	bsf	3,5	;RP0=1, select bank1
  2933     0716  1303               	bcf	3,6	;RP1=0, select bank1
  2934     0717  00BB               	movwf	(main@h10+1)^(0+128)
  2935     0718  1283               	bcf	3,5	;RP0=0, select bank0
  2936     0719  1303               	bcf	3,6	;RP1=0, select bank0
  2937     071A  0868               	movf	?___fltol,w
  2938     071B  1683               	bsf	3,5	;RP0=1, select bank1
  2939     071C  1303               	bcf	3,6	;RP1=0, select bank1
  2940     071D  00BA               	movwf	main@h10^(0+128)
  2941     071E                     l4583:
  2942                           
  2943                           ;aplicacion.c: 225:                 buffer_datos[pos++] = '0' + (h10 / 100);
  2944     071E  084E               	movf	main@pos^(0+128),w
  2945     071F  3E98               	addlw	(low (_buffer_datos| (0+256)))& (0+255)
  2946     0720  0084               	movwf	4
  2947     0721  3064               	movlw	100
  2948     0722  00F0               	movwf	___lwdiv@divisor
  2949     0723  3000               	movlw	0
  2950     0724  00F1               	movwf	___lwdiv@divisor+1
  2951     0725  083B               	movf	(main@h10+1)^(0+128),w
  2952     0726  00F3               	movwf	___lwdiv@dividend+1
  2953     0727  083A               	movf	main@h10^(0+128),w
  2954     0728  00F2               	movwf	___lwdiv@dividend
  2955     0729  160A  158A  2492  120A  118A  	fcall	___lwdiv
  2956     072E  0870               	movf	?___lwdiv,w
  2957     072F  3E30               	addlw	48
  2958     0730  1783               	bsf	3,7	;select IRP bank3
  2959     0731  0080               	movwf	0
  2960     0732                     l4585:
  2961     0732  3001               	movlw	1
  2962     0733  1683               	bsf	3,5	;RP0=1, select bank1
  2963     0734  1303               	bcf	3,6	;RP1=0, select bank1
  2964     0735  07CE               	addwf	main@pos^(0+128),f
  2965     0736                     l4587:
  2966                           
  2967                           ;aplicacion.c: 226:                 buffer_datos[pos++] = '0' + ((h10 / 10) % 10);
  2968     0736  084E               	movf	main@pos^(0+128),w
  2969     0737  3E98               	addlw	(low (_buffer_datos| (0+256)))& (0+255)
  2970     0738  0084               	movwf	4
  2971     0739  300A               	movlw	10
  2972     073A  00F7               	movwf	___lwmod@divisor
  2973     073B  3000               	movlw	0
  2974     073C  00F8               	movwf	___lwmod@divisor+1
  2975     073D  300A               	movlw	10
  2976     073E  00F0               	movwf	___lwdiv@divisor
  2977     073F  3000               	movlw	0
  2978     0740  00F1               	movwf	___lwdiv@divisor+1
  2979     0741  083B               	movf	(main@h10+1)^(0+128),w
  2980     0742  00F3               	movwf	___lwdiv@dividend+1
  2981     0743  083A               	movf	main@h10^(0+128),w
  2982     0744  00F2               	movwf	___lwdiv@dividend
  2983     0745  160A  158A  2492  120A  118A  	fcall	___lwdiv
  2984     074A  0871               	movf	?___lwdiv+1,w
  2985     074B  00FA               	movwf	___lwmod@dividend+1
  2986     074C  0870               	movf	?___lwdiv,w
  2987     074D  00F9               	movwf	___lwmod@dividend
  2988     074E  160A  158A  245A  120A  118A  	fcall	___lwmod
  2989     0753  0877               	movf	?___lwmod,w
  2990     0754  3E30               	addlw	48
  2991     0755  1783               	bsf	3,7	;select IRP bank3
  2992     0756  0080               	movwf	0
  2993     0757                     l4589:
  2994     0757  3001               	movlw	1
  2995     0758  1683               	bsf	3,5	;RP0=1, select bank1
  2996     0759  1303               	bcf	3,6	;RP1=0, select bank1
  2997     075A  07CE               	addwf	main@pos^(0+128),f
  2998     075B                     l4591:
  2999                           
  3000                           ;aplicacion.c: 227:                 buffer_datos[pos++] = '.';
  3001     075B  084E               	movf	main@pos^(0+128),w
  3002     075C  3E98               	addlw	(low (_buffer_datos| (0+256)))& (0+255)
  3003     075D  0084               	movwf	4
  3004     075E  302E               	movlw	46
  3005     075F  0080               	movwf	0
  3006     0760                     l4593:
  3007     0760  3001               	movlw	1
  3008     0761  07CE               	addwf	main@pos^(0+128),f
  3009     0762                     l4595:
  3010                           
  3011                           ;aplicacion.c: 228:                 buffer_datos[pos++] = '0' + (h10 % 10);
  3012     0762  084E               	movf	main@pos^(0+128),w
  3013     0763  3E98               	addlw	(low (_buffer_datos| (0+256)))& (0+255)
  3014     0764  0084               	movwf	4
  3015     0765  300A               	movlw	10
  3016     0766  00F7               	movwf	___lwmod@divisor
  3017     0767  3000               	movlw	0
  3018     0768  00F8               	movwf	___lwmod@divisor+1
  3019     0769  083B               	movf	(main@h10+1)^(0+128),w
  3020     076A  00FA               	movwf	___lwmod@dividend+1
  3021     076B  083A               	movf	main@h10^(0+128),w
  3022     076C  00F9               	movwf	___lwmod@dividend
  3023     076D  160A  158A  245A  120A  118A  	fcall	___lwmod
  3024     0772  0877               	movf	?___lwmod,w
  3025     0773  3E30               	addlw	48
  3026     0774  1783               	bsf	3,7	;select IRP bank3
  3027     0775  0080               	movwf	0
  3028     0776                     l4597:
  3029     0776  3001               	movlw	1
  3030     0777  1683               	bsf	3,5	;RP0=1, select bank1
  3031     0778  1303               	bcf	3,6	;RP1=0, select bank1
  3032     0779  07CE               	addwf	main@pos^(0+128),f
  3033     077A                     l4599:
  3034                           
  3035                           ;aplicacion.c: 229:                 buffer_datos[pos++] = '\r';
  3036     077A  084E               	movf	main@pos^(0+128),w
  3037     077B  3E98               	addlw	(low (_buffer_datos| (0+256)))& (0+255)
  3038     077C  0084               	movwf	4
  3039     077D  300D               	movlw	13
  3040     077E  0080               	movwf	0
  3041     077F                     l4601:
  3042     077F  3001               	movlw	1
  3043     0780  07CE               	addwf	main@pos^(0+128),f
  3044     0781                     l4603:
  3045                           
  3046                           ;aplicacion.c: 230:                 buffer_datos[pos++] = '\n';
  3047     0781  084E               	movf	main@pos^(0+128),w
  3048     0782  3E98               	addlw	(low (_buffer_datos| (0+256)))& (0+255)
  3049     0783  0084               	movwf	4
  3050     0784  300A               	movlw	10
  3051     0785  0080               	movwf	0
  3052     0786                     l4605:
  3053     0786  3001               	movlw	1
  3054     0787  07CE               	addwf	main@pos^(0+128),f
  3055     0788                     l4607:
  3056                           
  3057                           ;aplicacion.c: 231:                 buffer_datos[pos] = '\0';
  3058     0788  084E               	movf	main@pos^(0+128),w
  3059     0789  3E98               	addlw	(low (_buffer_datos| (0+256)))& (0+255)
  3060     078A  0084               	movwf	4
  3061     078B  0180               	clrf	0
  3062     078C                     l4609:
  3063                           
  3064                           ;aplicacion.c: 233:                 if(GestorArchivos_GuardarLinea("DATA.TXT", buffer_da
      +                          tos)) {
  3065     078C  302E               	movlw	(low ((STR_11-__stringbase)| (0+32768)))& (0+255)
  3066     078D  1283               	bcf	3,5	;RP0=0, select bank0
  3067     078E  1303               	bcf	3,6	;RP1=0, select bank0
  3068     078F  00B3               	movwf	GestorArchivos_GuardarLinea@nombre_archivo
  3069     0790  3098               	movlw	(low (_buffer_datos| (0+256)))& (0+255)
  3070     0791  00B4               	movwf	GestorArchivos_GuardarLinea@linea
  3071     0792  3001               	movlw	1
  3072     0793  00B5               	movwf	GestorArchivos_GuardarLinea@linea+1
  3073     0794  160A  158A  25AC  120A  118A  	fcall	_GestorArchivos_GuardarLinea
  3074     0799  3A00               	xorlw	0
  3075     079A  1903               	skipnz
  3076     079B  2F9D               	goto	u5831
  3077     079C  2F9E               	goto	u5830
  3078     079D                     u5831:
  3079     079D  2FBB               	goto	l4615
  3080     079E                     u5830:
  3081     079E                     l4611:
  3082                           
  3083                           ;aplicacion.c: 234:                     Pantalla_EstablecerPosicion(2, 16);
  3084     079E  3010               	movlw	16
  3085     079F  00F4               	movwf	Pantalla_EstablecerPosicion@b
  3086     07A0  3002               	movlw	2
  3087     07A1  160A  158A  23A0  120A  118A  	fcall	_Pantalla_EstablecerPosicion
  3088                           
  3089                           ;aplicacion.c: 235:                     Pantalla_EscribirCaracter('S');
  3090     07A6  3053               	movlw	83
  3091     07A7  160A  158A  24D4  120A  118A  	fcall	_Pantalla_EscribirCaracter
  3092     07AC                     l4613:
  3093                           
  3094                           ;aplicacion.c: 236:                     _delay((unsigned long)((300)*(20000000/4000.0)))
      +                          ;
  3095     07AC  3008               	movlw	8
  3096     07AD  1683               	bsf	3,5	;RP0=1, select bank1
  3097     07AE  1303               	bcf	3,6	;RP1=0, select bank1
  3098     07AF  00B6               	movwf	(??_main^(0+128)+2)
  3099     07B0  309D               	movlw	157
  3100     07B1  00B5               	movwf	(??_main^(0+128)+1)
  3101     07B2  3005               	movlw	5
  3102     07B3  00B4               	movwf	??_main^(0+128)
  3103     07B4                     u5887:
  3104     07B4  0BB4               	decfsz	??_main^(0+128),f
  3105     07B5  2FB4               	goto	u5887
  3106     07B6  0BB5               	decfsz	(??_main^(0+128)+1),f
  3107     07B7  2FB4               	goto	u5887
  3108     07B8  0BB6               	decfsz	(??_main^(0+128)+2),f
  3109     07B9  2FB4               	goto	u5887
  3110                           
  3111                           ;aplicacion.c: 237:                 } else {
  3112     07BA  2BAA               	goto	l4443
  3113     07BB                     l4615:
  3114                           
  3115                           ;aplicacion.c: 238:                     sd_ok = 0;
  3116     07BB  1683               	bsf	3,5	;RP0=1, select bank1
  3117     07BC  1303               	bcf	3,6	;RP1=0, select bank1
  3118     07BD  01B7               	clrf	main@sd_ok^(0+128)
  3119     07BE  2BAA               	goto	l4443
  3120     07BF  120A  118A  2800   	ljmp	start
  3121     07C2                     __end_of_main:
  3122                           
  3123                           	psect	text1
  3124     1503                     __ptext1:	
  3125 ;; *************** function _SensorHumedad_ObtenerDatos *****************
  3126 ;; Defined at:
  3127 ;;		line 9 in file "sensor_humedad.c"
  3128 ;; Parameters:    Size  Location     Type
  3129 ;;  temperatura     1   52[BANK0 ] PTR float 
  3130 ;;		 -> main@temp(4), 
  3131 ;;  humedad         1   53[BANK0 ] PTR float 
  3132 ;;		 -> main@hum(4), 
  3133 ;; Auto vars:     Size  Location     Type
  3134 ;;  resultado       1   60[BANK0 ] unsigned char 
  3135 ;;  temperatura_    2   66[BANK0 ] unsigned short 
  3136 ;;  humedad_crud    2   58[BANK0 ] unsigned short 
  3137 ;;  bits            5   61[BANK0 ] unsigned char [5]
  3138 ;;  j               1   69[BANK0 ] unsigned char 
  3139 ;;  i               1   68[BANK0 ] unsigned char 
  3140 ;; Return value:  Size  Location     Type
  3141 ;;                  1    wreg      unsigned char 
  3142 ;; Registers used:
  3143 ;;		wreg, fsr0l, fsr0h, status,2, status,0, pclath, btemp1, cstack
  3144 ;; Tracked objects:
  3145 ;;		On entry : 0/0
  3146 ;;		On exit  : 0/0
  3147 ;;		Unchanged: 0/0
  3148 ;; Data sizes:     COMMON   BANK0   BANK1   BANK3   BANK2
  3149 ;;      Params:         0       2       0       0       0
  3150 ;;      Locals:         0      12       0       0       0
  3151 ;;      Temps:          0       4       0       0       0
  3152 ;;      Totals:         0      18       0       0       0
  3153 ;;Total ram usage:       18 bytes
  3154 ;; Hardware stack levels used: 1
  3155 ;; Hardware stack levels required when called: 1
  3156 ;; This function calls:
  3157 ;;		___fldiv
  3158 ;;		___flmul
  3159 ;;		___xxtofl
  3160 ;; This function is called by:
  3161 ;;		_main
  3162 ;; This function uses a non-reentrant model
  3163 ;;
  3164                           
  3165     1503                     _SensorHumedad_ObtenerDatos:	
  3166                           ;psect for function _SensorHumedad_ObtenerDatos
  3167                           
  3168     1503                     l3719:	
  3169                           ;incstack = 0
  3170                           ; Regs used in _SensorHumedad_ObtenerDatos: [wreg-fsr0h+status,2+status,0+pclath+btemp1+
      +                          cstack]
  3171                           
  3172     1503                     l3721:
  3173                           
  3174                           ;sensor_humedad.c: 13:     PORTCbits.RC2 = 0;
  3175     1503  1283               	bcf	3,5	;RP0=0, select bank0
  3176     1504  1303               	bcf	3,6	;RP1=0, select bank0
  3177     1505  1107               	bcf	7,2	;volatile
  3178     1506                     l3723:
  3179                           
  3180                           ;sensor_humedad.c: 14:     _delay((unsigned long)((18)*(20000000/4000.0)));
  3181     1506  3075               	movlw	117
  3182     1507  1283               	bcf	3,5	;RP0=0, select bank0
  3183     1508  1303               	bcf	3,6	;RP1=0, select bank0
  3184     1509  00D7               	movwf	??_SensorHumedad_ObtenerDatos+1
  3185     150A  30E0               	movlw	224
  3186     150B  00D6               	movwf	??_SensorHumedad_ObtenerDatos
  3187     150C                     u5897:
  3188     150C  0BD6               	decfsz	??_SensorHumedad_ObtenerDatos,f
  3189     150D  2D0C               	goto	u5897
  3190     150E  0BD7               	decfsz	??_SensorHumedad_ObtenerDatos+1,f
  3191     150F  2D0C               	goto	u5897
  3192     1510  0000               	nop
  3193     1511                     l3725:
  3194                           
  3195                           ;sensor_humedad.c: 16:     PORTCbits.RC2 = 1;
  3196     1511  1283               	bcf	3,5	;RP0=0, select bank0
  3197     1512  1303               	bcf	3,6	;RP1=0, select bank0
  3198     1513  1507               	bsf	7,2	;volatile
  3199     1514                     l3727:
  3200                           
  3201                           ;sensor_humedad.c: 17:     _delay((unsigned long)((40)*(20000000/4000000.0)));
  3202     1514  3041               	movlw	65
  3203     1515  1283               	bcf	3,5	;RP0=0, select bank0
  3204     1516  1303               	bcf	3,6	;RP1=0, select bank0
  3205     1517  00D6               	movwf	??_SensorHumedad_ObtenerDatos
  3206     1518                     u5907:
  3207     1518  0BD6               	decfsz	??_SensorHumedad_ObtenerDatos,f
  3208     1519  2D18               	goto	u5907
  3209     151A  2D1B               	nop2
  3210     151B                     l3729:
  3211                           
  3212                           ;sensor_humedad.c: 19:     TRISCbits.TRISC2 = 1;
  3213     151B  1683               	bsf	3,5	;RP0=1, select bank1
  3214     151C  1303               	bcf	3,6	;RP1=0, select bank1
  3215     151D  1507               	bsf	7,2	;volatile
  3216     151E                     l3731:
  3217                           
  3218                           ;sensor_humedad.c: 21:     if(PORTCbits.RC2){
  3219     151E  1283               	bcf	3,5	;RP0=0, select bank0
  3220     151F  1303               	bcf	3,6	;RP1=0, select bank0
  3221     1520  1D07               	btfss	7,2	;volatile
  3222     1521  2D23               	goto	u4971
  3223     1522  2D24               	goto	u4970
  3224     1523                     u4971:
  3225     1523  2D2C               	goto	l3739
  3226     1524                     u4970:
  3227     1524                     l3733:
  3228                           
  3229                           ;sensor_humedad.c: 22:         TRISCbits.TRISC2 = 0;
  3230     1524  1683               	bsf	3,5	;RP0=1, select bank1
  3231     1525  1303               	bcf	3,6	;RP1=0, select bank1
  3232     1526  1107               	bcf	7,2	;volatile
  3233                           
  3234                           ;sensor_humedad.c: 23:         PORTCbits.RC2 = 1;
  3235     1527  1283               	bcf	3,5	;RP0=0, select bank0
  3236     1528  1303               	bcf	3,6	;RP1=0, select bank0
  3237     1529  1507               	bsf	7,2	;volatile
  3238     152A                     l3735:
  3239                           
  3240                           ;sensor_humedad.c: 24:         return 0;
  3241     152A  3000               	movlw	0
  3242     152B  2E6D               	goto	l53
  3243     152C                     l3739:
  3244                           
  3245                           ;sensor_humedad.c: 26:     _delay((unsigned long)((80)*(20000000/4000000.0)));
  3246     152C  3084               	movlw	132
  3247     152D  1283               	bcf	3,5	;RP0=0, select bank0
  3248     152E  1303               	bcf	3,6	;RP1=0, select bank0
  3249     152F  00D6               	movwf	??_SensorHumedad_ObtenerDatos
  3250     1530                     u5917:
  3251     1530  0BD6               	decfsz	??_SensorHumedad_ObtenerDatos,f
  3252     1531  2D30               	goto	u5917
  3253     1532  0000               	nop
  3254     1533                     l3741:
  3255                           
  3256                           ;sensor_humedad.c: 28:     if(!PORTCbits.RC2){
  3257     1533  1283               	bcf	3,5	;RP0=0, select bank0
  3258     1534  1303               	bcf	3,6	;RP1=0, select bank0
  3259     1535  1907               	btfsc	7,2	;volatile
  3260     1536  2D38               	goto	u4981
  3261     1537  2D39               	goto	u4980
  3262     1538                     u4981:
  3263     1538  2D40               	goto	l3749
  3264     1539                     u4980:
  3265     1539                     l3743:
  3266                           
  3267                           ;sensor_humedad.c: 29:         TRISCbits.TRISC2 = 0;
  3268     1539  1683               	bsf	3,5	;RP0=1, select bank1
  3269     153A  1303               	bcf	3,6	;RP1=0, select bank1
  3270     153B  1107               	bcf	7,2	;volatile
  3271                           
  3272                           ;sensor_humedad.c: 30:         PORTCbits.RC2 = 1;
  3273     153C  1283               	bcf	3,5	;RP0=0, select bank0
  3274     153D  1303               	bcf	3,6	;RP1=0, select bank0
  3275     153E  1507               	bsf	7,2	;volatile
  3276     153F  2D2A               	goto	l3735
  3277     1540                     l3749:
  3278                           
  3279                           ;sensor_humedad.c: 33:     _delay((unsigned long)((80)*(20000000/4000000.0)));
  3280     1540  3084               	movlw	132
  3281     1541  1283               	bcf	3,5	;RP0=0, select bank0
  3282     1542  1303               	bcf	3,6	;RP1=0, select bank0
  3283     1543  00D6               	movwf	??_SensorHumedad_ObtenerDatos
  3284     1544                     u5927:
  3285     1544  0BD6               	decfsz	??_SensorHumedad_ObtenerDatos,f
  3286     1545  2D44               	goto	u5927
  3287     1546  0000               	nop
  3288     1547                     l3751:
  3289                           
  3290                           ;sensor_humedad.c: 35:     for (j=0; j<5; j++)
  3291     1547  1283               	bcf	3,5	;RP0=0, select bank0
  3292     1548  1303               	bcf	3,6	;RP1=0, select bank0
  3293     1549  01E5               	clrf	SensorHumedad_ObtenerDatos@j
  3294     154A                     l3757:
  3295                           
  3296                           ;sensor_humedad.c: 36:     {;sensor_humedad.c: 37:         uint8_t resultado=0;
  3297     154A  01DC               	clrf	SensorHumedad_ObtenerDatos@resultado
  3298                           
  3299                           ;sensor_humedad.c: 38:         for (i=0; i<8; i++)
  3300     154B  01E4               	clrf	SensorHumedad_ObtenerDatos@i
  3301     154C                     l59:
  3302     154C  1D07               	btfss	7,2	;volatile
  3303     154D  2D4F               	goto	u4991
  3304     154E  2D50               	goto	u4990
  3305     154F                     u4991:
  3306     154F  2D4C               	goto	l59
  3307     1550                     u4990:
  3308     1550                     l3763:
  3309                           
  3310                           ;sensor_humedad.c: 41:             _delay((unsigned long)((35)*(20000000/4000000.0)));
  3311     1550  3039               	movlw	57
  3312     1551  1283               	bcf	3,5	;RP0=0, select bank0
  3313     1552  1303               	bcf	3,6	;RP1=0, select bank0
  3314     1553  00D6               	movwf	??_SensorHumedad_ObtenerDatos
  3315     1554                     u5937:
  3316     1554  0BD6               	decfsz	??_SensorHumedad_ObtenerDatos,f
  3317     1555  2D54               	goto	u5937
  3318     1556  0000               	nop
  3319     1557                     l3765:
  3320                           
  3321                           ;sensor_humedad.c: 42:             if (PORTCbits.RC2)
  3322     1557  1283               	bcf	3,5	;RP0=0, select bank0
  3323     1558  1303               	bcf	3,6	;RP1=0, select bank0
  3324     1559  1D07               	btfss	7,2	;volatile
  3325     155A  2D5C               	goto	u5001
  3326     155B  2D5D               	goto	u5000
  3327     155C                     u5001:
  3328     155C  2D6A               	goto	l63
  3329     155D                     u5000:
  3330     155D                     l3767:
  3331                           
  3332                           ;sensor_humedad.c: 43:                 resultado |= (1<<(7-i));
  3333     155D  3001               	movlw	1
  3334     155E  00D6               	movwf	??_SensorHumedad_ObtenerDatos
  3335     155F  0864               	movf	SensorHumedad_ObtenerDatos@i,w
  3336     1560  3C07               	sublw	7
  3337     1561  3E01               	addlw	1
  3338     1562  2D65               	goto	u5014
  3339     1563                     u5015:
  3340     1563  1003               	clrc
  3341     1564  0DD6               	rlf	??_SensorHumedad_ObtenerDatos,f
  3342     1565                     u5014:
  3343     1565  3EFF               	addlw	-1
  3344     1566  1D03               	skipz
  3345     1567  2D63               	goto	u5015
  3346     1568  0856               	movf	??_SensorHumedad_ObtenerDatos,w
  3347     1569  04DC               	iorwf	SensorHumedad_ObtenerDatos@resultado,f
  3348     156A                     l63:
  3349     156A  1907               	btfsc	7,2	;volatile
  3350     156B  2D6D               	goto	u5021
  3351     156C  2D6E               	goto	u5020
  3352     156D                     u5021:
  3353     156D  2D6A               	goto	l63
  3354     156E                     u5020:
  3355     156E                     l3769:
  3356                           
  3357                           ;sensor_humedad.c: 46:         }
  3358     156E  3001               	movlw	1
  3359     156F  07E4               	addwf	SensorHumedad_ObtenerDatos@i,f
  3360     1570                     l3771:
  3361     1570  3008               	movlw	8
  3362     1571  0264               	subwf	SensorHumedad_ObtenerDatos@i,w
  3363     1572  1C03               	skipc
  3364     1573  2D75               	goto	u5031
  3365     1574  2D76               	goto	u5030
  3366     1575                     u5031:
  3367     1575  2D4C               	goto	l59
  3368     1576                     u5030:
  3369     1576                     l3773:
  3370                           
  3371                           ;sensor_humedad.c: 47:         bits[j] = resultado;
  3372     1576  0865               	movf	SensorHumedad_ObtenerDatos@j,w
  3373     1577  3E5D               	addlw	(low (SensorHumedad_ObtenerDatos@bits| 0))& (0+255)
  3374     1578  0084               	movwf	4
  3375     1579  085C               	movf	SensorHumedad_ObtenerDatos@resultado,w
  3376     157A  1383               	bcf	3,7	;select IRP bank0
  3377     157B  0080               	movwf	0
  3378     157C                     l3775:
  3379                           
  3380                           ;sensor_humedad.c: 48:     }
  3381     157C  3001               	movlw	1
  3382     157D  07E5               	addwf	SensorHumedad_ObtenerDatos@j,f
  3383     157E                     l3777:
  3384     157E  3005               	movlw	5
  3385     157F  0265               	subwf	SensorHumedad_ObtenerDatos@j,w
  3386     1580  1C03               	skipc
  3387     1581  2D83               	goto	u5041
  3388     1582  2D84               	goto	u5040
  3389     1583                     u5041:
  3390     1583  2D4A               	goto	l3757
  3391     1584                     u5040:
  3392     1584                     l56:
  3393                           
  3394                           ;sensor_humedad.c: 50:     TRISCbits.TRISC2 = 0;
  3395     1584  1683               	bsf	3,5	;RP0=1, select bank1
  3396     1585  1303               	bcf	3,6	;RP1=0, select bank1
  3397     1586  1107               	bcf	7,2	;volatile
  3398                           
  3399                           ;sensor_humedad.c: 51:     PORTCbits.RC2 = 1;
  3400     1587  1283               	bcf	3,5	;RP0=0, select bank0
  3401     1588  1303               	bcf	3,6	;RP1=0, select bank0
  3402     1589  1507               	bsf	7,2	;volatile
  3403     158A                     l3779:
  3404                           
  3405                           ;sensor_humedad.c: 53:     if ((uint8_t)(bits[0] + bits[1] + bits[2] + bits[3]) == bits[
      +                          4])
  3406     158A  085F               	movf	SensorHumedad_ObtenerDatos@bits+2,w
  3407     158B  075E               	addwf	SensorHumedad_ObtenerDatos@bits+1,w
  3408     158C  00D6               	movwf	??_SensorHumedad_ObtenerDatos
  3409     158D  0860               	movf	SensorHumedad_ObtenerDatos@bits+3,w
  3410     158E  0756               	addwf	??_SensorHumedad_ObtenerDatos,w
  3411     158F  00D7               	movwf	??_SensorHumedad_ObtenerDatos+1
  3412     1590  085D               	movf	SensorHumedad_ObtenerDatos@bits,w
  3413     1591  0757               	addwf	??_SensorHumedad_ObtenerDatos+1,w
  3414     1592  0661               	xorwf	SensorHumedad_ObtenerDatos@bits+4,w
  3415     1593  1D03               	skipz
  3416     1594  2D96               	goto	u5051
  3417     1595  2D97               	goto	u5050
  3418     1596                     u5051:
  3419     1596  2D2A               	goto	l3735
  3420     1597                     u5050:
  3421     1597                     l3781:
  3422                           
  3423                           ;sensor_humedad.c: 54:     {;sensor_humedad.c: 55:         uint16_t humedad_cruda = ((ui
      +                          nt16_t)bits[0]<<8) | bits[1];
  3424     1597  085E               	movf	SensorHumedad_ObtenerDatos@bits+1,w
  3425     1598  00D6               	movwf	??_SensorHumedad_ObtenerDatos
  3426     1599  01D7               	clrf	??_SensorHumedad_ObtenerDatos+1
  3427     159A  085D               	movf	SensorHumedad_ObtenerDatos@bits,w
  3428     159B  00D8               	movwf	??_SensorHumedad_ObtenerDatos+2
  3429     159C  01D9               	clrf	??_SensorHumedad_ObtenerDatos+3
  3430     159D  0858               	movf	??_SensorHumedad_ObtenerDatos+2,w
  3431     159E  00D9               	movwf	??_SensorHumedad_ObtenerDatos+3
  3432     159F  01D8               	clrf	??_SensorHumedad_ObtenerDatos+2
  3433     15A0  0856               	movf	??_SensorHumedad_ObtenerDatos,w
  3434     15A1  0458               	iorwf	??_SensorHumedad_ObtenerDatos+2,w
  3435     15A2  00DA               	movwf	SensorHumedad_ObtenerDatos@humedad_cruda
  3436     15A3  0857               	movf	??_SensorHumedad_ObtenerDatos+1,w
  3437     15A4  0459               	iorwf	??_SensorHumedad_ObtenerDatos+3,w
  3438     15A5  00DB               	movwf	SensorHumedad_ObtenerDatos@humedad_cruda+1
  3439                           
  3440                           ;sensor_humedad.c: 56:         uint16_t temperatura_cruda = ((uint16_t)bits[2]<<8) | bit
      +                          s[3];
  3441     15A6  0860               	movf	SensorHumedad_ObtenerDatos@bits+3,w
  3442     15A7  00D6               	movwf	??_SensorHumedad_ObtenerDatos
  3443     15A8  01D7               	clrf	??_SensorHumedad_ObtenerDatos+1
  3444     15A9  085F               	movf	SensorHumedad_ObtenerDatos@bits+2,w
  3445     15AA  00D8               	movwf	??_SensorHumedad_ObtenerDatos+2
  3446     15AB  01D9               	clrf	??_SensorHumedad_ObtenerDatos+3
  3447     15AC  0858               	movf	??_SensorHumedad_ObtenerDatos+2,w
  3448     15AD  00D9               	movwf	??_SensorHumedad_ObtenerDatos+3
  3449     15AE  01D8               	clrf	??_SensorHumedad_ObtenerDatos+2
  3450     15AF  0856               	movf	??_SensorHumedad_ObtenerDatos,w
  3451     15B0  0458               	iorwf	??_SensorHumedad_ObtenerDatos+2,w
  3452     15B1  00E2               	movwf	SensorHumedad_ObtenerDatos@temperatura_cruda
  3453     15B2  0857               	movf	??_SensorHumedad_ObtenerDatos+1,w
  3454     15B3  0459               	iorwf	??_SensorHumedad_ObtenerDatos+3,w
  3455     15B4  00E3               	movwf	SensorHumedad_ObtenerDatos@temperatura_cruda+1
  3456     15B5                     l3783:
  3457                           
  3458                           ;sensor_humedad.c: 58:         if (temperatura_cruda & 0x8000){
  3459     15B5  1FE3               	btfss	SensorHumedad_ObtenerDatos@temperatura_cruda+1,7
  3460     15B6  2DB8               	goto	u5061
  3461     15B7  2DB9               	goto	u5060
  3462     15B8                     u5061:
  3463     15B8  2E06               	goto	l3787
  3464     15B9                     u5060:
  3465     15B9                     l3785:
  3466                           
  3467                           ;sensor_humedad.c: 59:             *temperatura = (float)((temperatura_cruda & 0x7fff) /
      +                           10.0) * -1.0;
  3468     15B9  30BF               	movlw	191
  3469     15BA  00BD               	movwf	___flmul@b+3
  3470     15BB  3080               	movlw	128
  3471     15BC  00BC               	movwf	___flmul@b+2
  3472     15BD  3000               	movlw	0
  3473     15BE  00BB               	movwf	___flmul@b+1
  3474     15BF  3000               	movlw	0
  3475     15C0  00BA               	movwf	___flmul@b
  3476     15C1  3041               	movlw	65
  3477     15C2  00A3               	movwf	___fldiv@a+3
  3478     15C3  3020               	movlw	32
  3479     15C4  00A2               	movwf	___fldiv@a+2
  3480     15C5  3000               	movlw	0
  3481     15C6  00A1               	movwf	___fldiv@a+1
  3482     15C7  3000               	movlw	0
  3483     15C8  00A0               	movwf	___fldiv@a
  3484     15C9  30FF               	movlw	255
  3485     15CA  0562               	andwf	SensorHumedad_ObtenerDatos@temperatura_cruda,w
  3486     15CB  00F0               	movwf	___xxtofl@val
  3487     15CC  307F               	movlw	127
  3488     15CD  0563               	andwf	SensorHumedad_ObtenerDatos@temperatura_cruda+1,w
  3489     15CE  00F1               	movwf	___xxtofl@val+1
  3490     15CF  01F2               	clrf	___xxtofl@val+2
  3491     15D0  01F3               	clrf	___xxtofl@val+3
  3492     15D1  3000               	movlw	0
  3493     15D2  160A  118A  21BC  160A  118A  	fcall	___xxtofl
  3494     15D7  0873               	movf	?___xxtofl+3,w
  3495     15D8  1283               	bcf	3,5	;RP0=0, select bank0
  3496     15D9  1303               	bcf	3,6	;RP1=0, select bank0
  3497     15DA  00A7               	movwf	___fldiv@b+3
  3498     15DB  0872               	movf	?___xxtofl+2,w
  3499     15DC  00A6               	movwf	___fldiv@b+2
  3500     15DD  0871               	movf	?___xxtofl+1,w
  3501     15DE  00A5               	movwf	___fldiv@b+1
  3502     15DF  0870               	movf	?___xxtofl,w
  3503     15E0  00A4               	movwf	___fldiv@b
  3504     15E1  120A  158A  22F4  160A  118A  	fcall	___fldiv
  3505     15E6  1283               	bcf	3,5	;RP0=0, select bank0
  3506     15E7  1303               	bcf	3,6	;RP1=0, select bank0
  3507     15E8  0823               	movf	?___fldiv+3,w
  3508     15E9  00C1               	movwf	___flmul@a+3
  3509     15EA  0822               	movf	?___fldiv+2,w
  3510     15EB  00C0               	movwf	___flmul@a+2
  3511     15EC  0821               	movf	?___fldiv+1,w
  3512     15ED  00BF               	movwf	___flmul@a+1
  3513     15EE  0820               	movf	?___fldiv,w
  3514     15EF  00BE               	movwf	___flmul@a
  3515     15F0  120A  158A  24BE  160A  118A  	fcall	___flmul
  3516     15F5  1283               	bcf	3,5	;RP0=0, select bank0
  3517     15F6  1303               	bcf	3,6	;RP1=0, select bank0
  3518     15F7  0854               	movf	SensorHumedad_ObtenerDatos@temperatura,w
  3519     15F8  0084               	movwf	4
  3520     15F9  083A               	movf	?___flmul,w
  3521     15FA  1383               	bcf	3,7	;select IRP bank0
  3522     15FB  0080               	movwf	0
  3523     15FC  0A84               	incf	4,f
  3524     15FD  083B               	movf	?___flmul+1,w
  3525     15FE  0080               	movwf	0
  3526     15FF  0A84               	incf	4,f
  3527     1600  083C               	movf	?___flmul+2,w
  3528     1601  0080               	movwf	0
  3529     1602  0A84               	incf	4,f
  3530     1603  083D               	movf	?___flmul+3,w
  3531     1604  0080               	movwf	0
  3532                           
  3533                           ;sensor_humedad.c: 60:         }else{
  3534     1605  2E39               	goto	l68
  3535     1606                     l3787:
  3536                           
  3537                           ;sensor_humedad.c: 61:             *temperatura = (float)(temperatura_cruda)/10.0;
  3538     1606  3041               	movlw	65
  3539     1607  00A3               	movwf	___fldiv@a+3
  3540     1608  3020               	movlw	32
  3541     1609  00A2               	movwf	___fldiv@a+2
  3542     160A  3000               	movlw	0
  3543     160B  00A1               	movwf	___fldiv@a+1
  3544     160C  3000               	movlw	0
  3545     160D  00A0               	movwf	___fldiv@a
  3546     160E  0862               	movf	SensorHumedad_ObtenerDatos@temperatura_cruda,w
  3547     160F  00F0               	movwf	___xxtofl@val
  3548     1610  0863               	movf	SensorHumedad_ObtenerDatos@temperatura_cruda+1,w
  3549     1611  00F1               	movwf	___xxtofl@val+1
  3550     1612  01F2               	clrf	___xxtofl@val+2
  3551     1613  01F3               	clrf	___xxtofl@val+3
  3552     1614  3000               	movlw	0
  3553     1615  160A  118A  21BC  160A  118A  	fcall	___xxtofl
  3554     161A  0873               	movf	?___xxtofl+3,w
  3555     161B  1283               	bcf	3,5	;RP0=0, select bank0
  3556     161C  1303               	bcf	3,6	;RP1=0, select bank0
  3557     161D  00A7               	movwf	___fldiv@b+3
  3558     161E  0872               	movf	?___xxtofl+2,w
  3559     161F  00A6               	movwf	___fldiv@b+2
  3560     1620  0871               	movf	?___xxtofl+1,w
  3561     1621  00A5               	movwf	___fldiv@b+1
  3562     1622  0870               	movf	?___xxtofl,w
  3563     1623  00A4               	movwf	___fldiv@b
  3564     1624  120A  158A  22F4  160A  118A  	fcall	___fldiv
  3565     1629  1283               	bcf	3,5	;RP0=0, select bank0
  3566     162A  1303               	bcf	3,6	;RP1=0, select bank0
  3567     162B  0854               	movf	SensorHumedad_ObtenerDatos@temperatura,w
  3568     162C  0084               	movwf	4
  3569     162D  0820               	movf	?___fldiv,w
  3570     162E  1383               	bcf	3,7	;select IRP bank0
  3571     162F  0080               	movwf	0
  3572     1630  0A84               	incf	4,f
  3573     1631  0821               	movf	?___fldiv+1,w
  3574     1632  0080               	movwf	0
  3575     1633  0A84               	incf	4,f
  3576     1634  0822               	movf	?___fldiv+2,w
  3577     1635  0080               	movwf	0
  3578     1636  0A84               	incf	4,f
  3579     1637  0823               	movf	?___fldiv+3,w
  3580     1638  0080               	movwf	0
  3581     1639                     l68:	
  3582                           ;sensor_humedad.c: 62:         }
  3583                           
  3584                           
  3585                           ;sensor_humedad.c: 63:         *humedad = (float)(humedad_cruda)/10.0;
  3586     1639  3041               	movlw	65
  3587     163A  00A3               	movwf	___fldiv@a+3
  3588     163B  3020               	movlw	32
  3589     163C  00A2               	movwf	___fldiv@a+2
  3590     163D  3000               	movlw	0
  3591     163E  00A1               	movwf	___fldiv@a+1
  3592     163F  3000               	movlw	0
  3593     1640  00A0               	movwf	___fldiv@a
  3594     1641  085A               	movf	SensorHumedad_ObtenerDatos@humedad_cruda,w
  3595     1642  00F0               	movwf	___xxtofl@val
  3596     1643  085B               	movf	SensorHumedad_ObtenerDatos@humedad_cruda+1,w
  3597     1644  00F1               	movwf	___xxtofl@val+1
  3598     1645  01F2               	clrf	___xxtofl@val+2
  3599     1646  01F3               	clrf	___xxtofl@val+3
  3600     1647  3000               	movlw	0
  3601     1648  160A  118A  21BC  160A  118A  	fcall	___xxtofl
  3602     164D  0873               	movf	?___xxtofl+3,w
  3603     164E  1283               	bcf	3,5	;RP0=0, select bank0
  3604     164F  1303               	bcf	3,6	;RP1=0, select bank0
  3605     1650  00A7               	movwf	___fldiv@b+3
  3606     1651  0872               	movf	?___xxtofl+2,w
  3607     1652  00A6               	movwf	___fldiv@b+2
  3608     1653  0871               	movf	?___xxtofl+1,w
  3609     1654  00A5               	movwf	___fldiv@b+1
  3610     1655  0870               	movf	?___xxtofl,w
  3611     1656  00A4               	movwf	___fldiv@b
  3612     1657  120A  158A  22F4  160A  118A  	fcall	___fldiv
  3613     165C  1283               	bcf	3,5	;RP0=0, select bank0
  3614     165D  1303               	bcf	3,6	;RP1=0, select bank0
  3615     165E  0855               	movf	SensorHumedad_ObtenerDatos@humedad,w
  3616     165F  0084               	movwf	4
  3617     1660  0820               	movf	?___fldiv,w
  3618     1661  1383               	bcf	3,7	;select IRP bank0
  3619     1662  0080               	movwf	0
  3620     1663  0A84               	incf	4,f
  3621     1664  0821               	movf	?___fldiv+1,w
  3622     1665  0080               	movwf	0
  3623     1666  0A84               	incf	4,f
  3624     1667  0822               	movf	?___fldiv+2,w
  3625     1668  0080               	movwf	0
  3626     1669  0A84               	incf	4,f
  3627     166A  0823               	movf	?___fldiv+3,w
  3628     166B  0080               	movwf	0
  3629     166C                     l3789:
  3630                           
  3631                           ;sensor_humedad.c: 64:         return 1;
  3632     166C  3001               	movlw	1
  3633     166D                     l53:
  3634     166D  0008               	return
  3635     166E                     __end_of_SensorHumedad_ObtenerDatos:
  3636                           
  3637                           	psect	text2
  3638     1A8F                     __ptext2:	
  3639 ;; *************** function _SensorHumedad_Configurar *****************
  3640 ;; Defined at:
  3641 ;;		line 3 in file "sensor_humedad.c"
  3642 ;; Parameters:    Size  Location     Type
  3643 ;;		None
  3644 ;; Auto vars:     Size  Location     Type
  3645 ;;		None
  3646 ;; Return value:  Size  Location     Type
  3647 ;;                  1    wreg      void 
  3648 ;; Registers used:
  3649 ;;		wreg
  3650 ;; Tracked objects:
  3651 ;;		On entry : 0/0
  3652 ;;		On exit  : 0/0
  3653 ;;		Unchanged: 0/0
  3654 ;; Data sizes:     COMMON   BANK0   BANK1   BANK3   BANK2
  3655 ;;      Params:         0       0       0       0       0
  3656 ;;      Locals:         0       0       0       0       0
  3657 ;;      Temps:          3       0       0       0       0
  3658 ;;      Totals:         3       0       0       0       0
  3659 ;;Total ram usage:        3 bytes
  3660 ;; Hardware stack levels used: 1
  3661 ;; This function calls:
  3662 ;;		Nothing
  3663 ;; This function is called by:
  3664 ;;		_main
  3665 ;; This function uses a non-reentrant model
  3666 ;;
  3667                           
  3668     1A8F                     _SensorHumedad_Configurar:	
  3669                           ;psect for function _SensorHumedad_Configurar
  3670                           
  3671     1A8F                     l3715:	
  3672                           ;incstack = 0
  3673                           ; Regs used in _SensorHumedad_Configurar: [wreg]
  3674                           
  3675                           
  3676                           ;sensor_humedad.c: 4:     TRISCbits.TRISC2 = 0;
  3677     1A8F  1683               	bsf	3,5	;RP0=1, select bank1
  3678     1A90  1303               	bcf	3,6	;RP1=0, select bank1
  3679     1A91  1107               	bcf	7,2	;volatile
  3680                           
  3681                           ;sensor_humedad.c: 5:     PORTCbits.RC2 = 1;
  3682     1A92  1283               	bcf	3,5	;RP0=0, select bank0
  3683     1A93  1303               	bcf	3,6	;RP1=0, select bank0
  3684     1A94  1507               	bsf	7,2	;volatile
  3685     1A95                     l3717:
  3686                           
  3687                           ;sensor_humedad.c: 6:     _delay((unsigned long)((100)*(20000000/4000.0)));
  3688     1A95  3003               	movlw	3
  3689     1A96  00F2               	movwf	??_SensorHumedad_Configurar+2
  3690     1A97  308A               	movlw	138
  3691     1A98  00F1               	movwf	??_SensorHumedad_Configurar+1
  3692     1A99  3055               	movlw	85
  3693     1A9A  00F0               	movwf	??_SensorHumedad_Configurar
  3694     1A9B                     u5947:
  3695     1A9B  0BF0               	decfsz	??_SensorHumedad_Configurar,f
  3696     1A9C  2A9B               	goto	u5947
  3697     1A9D  0BF1               	decfsz	??_SensorHumedad_Configurar+1,f
  3698     1A9E  2A9B               	goto	u5947
  3699     1A9F  0BF2               	decfsz	??_SensorHumedad_Configurar+2,f
  3700     1AA0  2A9B               	goto	u5947
  3701     1AA1  2AA2               	nop2
  3702     1AA2                     l49:
  3703     1AA2  0008               	return
  3704     1AA3                     __end_of_SensorHumedad_Configurar:
  3705                           
  3706                           	psect	text3
  3707     166E                     __ptext3:	
  3708 ;; *************** function _Reloj_ObtenerFechaHora *****************
  3709 ;; Defined at:
  3710 ;;		line 79 in file "reloj_tiempo_real.c"
  3711 ;; Parameters:    Size  Location     Type
  3712 ;;  fechahora       2   10[COMMON] PTR struct .
  3713 ;;		 -> main@fecha(7), 
  3714 ;; Auto vars:     Size  Location     Type
  3715 ;;  r               1    0[BANK0 ] unsigned char 
  3716 ;; Return value:  Size  Location     Type
  3717 ;;                  1    wreg      unsigned char 
  3718 ;; Registers used:
  3719 ;;		wreg, fsr0l, fsr0h, status,2, status,0, pclath, cstack
  3720 ;; Tracked objects:
  3721 ;;		On entry : 0/0
  3722 ;;		On exit  : 0/0
  3723 ;;		Unchanged: 0/0
  3724 ;; Data sizes:     COMMON   BANK0   BANK1   BANK3   BANK2
  3725 ;;      Params:         2       0       0       0       0
  3726 ;;      Locals:         0       1       0       0       0
  3727 ;;      Temps:          2       0       0       0       0
  3728 ;;      Totals:         4       1       0       0       0
  3729 ;;Total ram usage:        5 bytes
  3730 ;; Hardware stack levels used: 1
  3731 ;; Hardware stack levels required when called: 2
  3732 ;; This function calls:
  3733 ;;		_I2C_CondicionInicio
  3734 ;;		_I2C_CondicionParo
  3735 ;;		_I2C_EscribirByte
  3736 ;;		_I2C_LeerByte
  3737 ;;		_LimpiarFechaHora
  3738 ;;		_Reloj_ConvertirBCD
  3739 ;;		_Reloj_VerificarConexion
  3740 ;; This function is called by:
  3741 ;;		_main
  3742 ;; This function uses a non-reentrant model
  3743 ;;
  3744                           
  3745     166E                     _Reloj_ObtenerFechaHora:	
  3746                           ;psect for function _Reloj_ObtenerFechaHora
  3747                           
  3748     166E                     l3801:	
  3749                           ;incstack = 0
  3750                           ; Regs used in _Reloj_ObtenerFechaHora: [wreg-fsr0h+status,2+status,0+pclath+cstack]
  3751                           
  3752                           
  3753                           ;reloj_tiempo_real.c: 80:     uint8_t r;;reloj_tiempo_real.c: 82:     if(!Reloj_Verifica
      +                          rConexion()){
  3754     166E  160A  158A  227C  160A  118A  	fcall	_Reloj_VerificarConexion
  3755     1673  3A00               	xorlw	0
  3756     1674  1D03               	skipz
  3757     1675  2E77               	goto	u5071
  3758     1676  2E78               	goto	u5070
  3759     1677                     u5071:
  3760     1677  2E82               	goto	l3807
  3761     1678                     u5070:
  3762     1678                     l3803:
  3763                           
  3764                           ;reloj_tiempo_real.c: 83:         LimpiarFechaHora(fechahora);
  3765     1678  087A               	movf	Reloj_ObtenerFechaHora@fechahora,w
  3766     1679  00F0               	movwf	LimpiarFechaHora@t
  3767     167A  087B               	movf	Reloj_ObtenerFechaHora@fechahora+1,w
  3768     167B  00F1               	movwf	LimpiarFechaHora@t+1
  3769     167C  120A  158A  2001  160A  118A  	fcall	_LimpiarFechaHora
  3770     1681  2FFF               	goto	l126
  3771     1682                     l3807:
  3772                           
  3773                           ;reloj_tiempo_real.c: 87:     I2C_CondicionInicio();
  3774     1682  160A  158A  22EB  160A  118A  	fcall	_I2C_CondicionInicio
  3775                           
  3776                           ;reloj_tiempo_real.c: 88:     if(!I2C_EscribirByte(0x68<<1)) {
  3777     1687  30D0               	movlw	208
  3778     1688  160A  158A  2519  160A  118A  	fcall	_I2C_EscribirByte
  3779     168D  3A00               	xorlw	0
  3780     168E  1D03               	skipz
  3781     168F  2E91               	goto	u5081
  3782     1690  2E92               	goto	u5080
  3783     1691                     u5081:
  3784     1691  2E98               	goto	l3815
  3785     1692                     u5080:
  3786     1692                     l3809:
  3787                           
  3788                           ;reloj_tiempo_real.c: 89:         I2C_CondicionParo();
  3789     1692  160A  158A  22CF  160A  118A  	fcall	_I2C_CondicionParo
  3790     1697  2E78               	goto	l3803
  3791     1698                     l3815:
  3792                           
  3793                           ;reloj_tiempo_real.c: 93:     if(!I2C_EscribirByte(0x00)) {
  3794     1698  3000               	movlw	0
  3795     1699  160A  158A  2519  160A  118A  	fcall	_I2C_EscribirByte
  3796     169E  3A00               	xorlw	0
  3797     169F  1D03               	skipz
  3798     16A0  2EA2               	goto	u5091
  3799     16A1  2EA3               	goto	u5090
  3800     16A2                     u5091:
  3801     16A2  2EA4               	goto	l3823
  3802     16A3                     u5090:
  3803     16A3  2E92               	goto	l3809
  3804     16A4                     l3823:
  3805                           
  3806                           ;reloj_tiempo_real.c: 99:     I2C_CondicionInicio();
  3807     16A4  160A  158A  22EB  160A  118A  	fcall	_I2C_CondicionInicio
  3808                           
  3809                           ;reloj_tiempo_real.c: 100:     if(!I2C_EscribirByte((0x68<<1)|1)) {
  3810     16A9  30D1               	movlw	209
  3811     16AA  160A  158A  2519  160A  118A  	fcall	_I2C_EscribirByte
  3812     16AF  3A00               	xorlw	0
  3813     16B0  1D03               	skipz
  3814     16B1  2EB3               	goto	u5101
  3815     16B2  2EB4               	goto	u5100
  3816     16B3                     u5101:
  3817     16B3  2EB5               	goto	l3831
  3818     16B4                     u5100:
  3819     16B4  2E92               	goto	l3809
  3820     16B5                     l3831:
  3821                           
  3822                           ;reloj_tiempo_real.c: 106:     r = I2C_LeerByte(1); fechahora->segundos = Reloj_Converti
      +                          rBCD(r & 0x7F);
  3823     16B5  3001               	movlw	1
  3824     16B6  160A  158A  2560  160A  118A  	fcall	_I2C_LeerByte
  3825     16BB  1283               	bcf	3,5	;RP0=0, select bank0
  3826     16BC  1303               	bcf	3,6	;RP1=0, select bank0
  3827     16BD  00A0               	movwf	Reloj_ObtenerFechaHora@r
  3828     16BE                     l3833:
  3829     16BE  087A               	movf	Reloj_ObtenerFechaHora@fechahora,w
  3830     16BF  0084               	movwf	4
  3831     16C0  1783               	bsf	3,7
  3832     16C1  1C7B               	btfss	Reloj_ObtenerFechaHora@fechahora+1,0
  3833     16C2  1383               	bcf	3,7
  3834     16C3  0820               	movf	Reloj_ObtenerFechaHora@r,w
  3835     16C4  397F               	andlw	127
  3836     16C5  160A  158A  22B9  160A  118A  	fcall	_Reloj_ConvertirBCD
  3837     16CA  0080               	movwf	0
  3838     16CB                     l3835:
  3839                           
  3840                           ;reloj_tiempo_real.c: 107:     r = I2C_LeerByte(1); fechahora->minutos = Reloj_Convertir
      +                          BCD(r & 0x7F);
  3841     16CB  3001               	movlw	1
  3842     16CC  160A  158A  2560  160A  118A  	fcall	_I2C_LeerByte
  3843     16D1  1283               	bcf	3,5	;RP0=0, select bank0
  3844     16D2  1303               	bcf	3,6	;RP1=0, select bank0
  3845     16D3  00A0               	movwf	Reloj_ObtenerFechaHora@r
  3846     16D4  087A               	movf	Reloj_ObtenerFechaHora@fechahora,w
  3847     16D5  3E01               	addlw	1
  3848     16D6  00FC               	movwf	??_Reloj_ObtenerFechaHora
  3849     16D7  087B               	movf	Reloj_ObtenerFechaHora@fechahora+1,w
  3850     16D8  1803               	skipnc
  3851     16D9  3E01               	addlw	1
  3852     16DA  3E00               	addlw	0
  3853     16DB  00FD               	movwf	??_Reloj_ObtenerFechaHora+1
  3854     16DC  087C               	movf	??_Reloj_ObtenerFechaHora,w
  3855     16DD  0084               	movwf	4
  3856     16DE  1783               	bsf	3,7
  3857     16DF  1C7D               	btfss	??_Reloj_ObtenerFechaHora+1,0
  3858     16E0  1383               	bcf	3,7
  3859     16E1  0820               	movf	Reloj_ObtenerFechaHora@r,w
  3860     16E2  397F               	andlw	127
  3861     16E3  160A  158A  22B9  160A  118A  	fcall	_Reloj_ConvertirBCD
  3862     16E8  0080               	movwf	0
  3863     16E9                     l3837:
  3864                           
  3865                           ;reloj_tiempo_real.c: 108:     r = I2C_LeerByte(1); fechahora->horas = Reloj_ConvertirBC
      +                          D(r & 0x3F);
  3866     16E9  3001               	movlw	1
  3867     16EA  160A  158A  2560  160A  118A  	fcall	_I2C_LeerByte
  3868     16EF  1283               	bcf	3,5	;RP0=0, select bank0
  3869     16F0  1303               	bcf	3,6	;RP1=0, select bank0
  3870     16F1  00A0               	movwf	Reloj_ObtenerFechaHora@r
  3871     16F2                     l3839:
  3872     16F2  087A               	movf	Reloj_ObtenerFechaHora@fechahora,w
  3873     16F3  3E02               	addlw	2
  3874     16F4  00FC               	movwf	??_Reloj_ObtenerFechaHora
  3875     16F5  087B               	movf	Reloj_ObtenerFechaHora@fechahora+1,w
  3876     16F6  1803               	skipnc
  3877     16F7  3E01               	addlw	1
  3878     16F8  3E00               	addlw	0
  3879     16F9  00FD               	movwf	??_Reloj_ObtenerFechaHora+1
  3880     16FA  087C               	movf	??_Reloj_ObtenerFechaHora,w
  3881     16FB  0084               	movwf	4
  3882     16FC  1783               	bsf	3,7
  3883     16FD  1C7D               	btfss	??_Reloj_ObtenerFechaHora+1,0
  3884     16FE  1383               	bcf	3,7
  3885     16FF  0820               	movf	Reloj_ObtenerFechaHora@r,w
  3886     1700  393F               	andlw	63
  3887     1701  160A  158A  22B9  160A  118A  	fcall	_Reloj_ConvertirBCD
  3888     1706  0080               	movwf	0
  3889                           
  3890                           ;reloj_tiempo_real.c: 109:     r = I2C_LeerByte(1); fechahora->dia = Reloj_ConvertirBCD(
      +                          r & 0x07);
  3891     1707  3001               	movlw	1
  3892     1708  160A  158A  2560  160A  118A  	fcall	_I2C_LeerByte
  3893     170D  1283               	bcf	3,5	;RP0=0, select bank0
  3894     170E  1303               	bcf	3,6	;RP1=0, select bank0
  3895     170F  00A0               	movwf	Reloj_ObtenerFechaHora@r
  3896     1710                     l3841:
  3897     1710  087A               	movf	Reloj_ObtenerFechaHora@fechahora,w
  3898     1711  3E03               	addlw	3
  3899     1712  00FC               	movwf	??_Reloj_ObtenerFechaHora
  3900     1713  087B               	movf	Reloj_ObtenerFechaHora@fechahora+1,w
  3901     1714  1803               	skipnc
  3902     1715  3E01               	addlw	1
  3903     1716  3E00               	addlw	0
  3904     1717  00FD               	movwf	??_Reloj_ObtenerFechaHora+1
  3905     1718  087C               	movf	??_Reloj_ObtenerFechaHora,w
  3906     1719  0084               	movwf	4
  3907     171A  1783               	bsf	3,7
  3908     171B  1C7D               	btfss	??_Reloj_ObtenerFechaHora+1,0
  3909     171C  1383               	bcf	3,7
  3910     171D  0820               	movf	Reloj_ObtenerFechaHora@r,w
  3911     171E  3907               	andlw	7
  3912     171F  160A  158A  22B9  160A  118A  	fcall	_Reloj_ConvertirBCD
  3913     1724  0080               	movwf	0
  3914     1725                     l3843:
  3915                           
  3916                           ;reloj_tiempo_real.c: 110:     r = I2C_LeerByte(1); fechahora->fecha = Reloj_ConvertirBC
      +                          D(r & 0x3F);
  3917     1725  3001               	movlw	1
  3918     1726  160A  158A  2560  160A  118A  	fcall	_I2C_LeerByte
  3919     172B  1283               	bcf	3,5	;RP0=0, select bank0
  3920     172C  1303               	bcf	3,6	;RP1=0, select bank0
  3921     172D  00A0               	movwf	Reloj_ObtenerFechaHora@r
  3922     172E  087A               	movf	Reloj_ObtenerFechaHora@fechahora,w
  3923     172F  3E04               	addlw	4
  3924     1730  00FC               	movwf	??_Reloj_ObtenerFechaHora
  3925     1731  087B               	movf	Reloj_ObtenerFechaHora@fechahora+1,w
  3926     1732  1803               	skipnc
  3927     1733  3E01               	addlw	1
  3928     1734  3E00               	addlw	0
  3929     1735  00FD               	movwf	??_Reloj_ObtenerFechaHora+1
  3930     1736  087C               	movf	??_Reloj_ObtenerFechaHora,w
  3931     1737  0084               	movwf	4
  3932     1738  1783               	bsf	3,7
  3933     1739  1C7D               	btfss	??_Reloj_ObtenerFechaHora+1,0
  3934     173A  1383               	bcf	3,7
  3935     173B  0820               	movf	Reloj_ObtenerFechaHora@r,w
  3936     173C  393F               	andlw	63
  3937     173D  160A  158A  22B9  160A  118A  	fcall	_Reloj_ConvertirBCD
  3938     1742  0080               	movwf	0
  3939     1743                     l3845:
  3940                           
  3941                           ;reloj_tiempo_real.c: 111:     r = I2C_LeerByte(1); fechahora->mes = Reloj_ConvertirBCD(
      +                          r & 0x1F);
  3942     1743  3001               	movlw	1
  3943     1744  160A  158A  2560  160A  118A  	fcall	_I2C_LeerByte
  3944     1749  1283               	bcf	3,5	;RP0=0, select bank0
  3945     174A  1303               	bcf	3,6	;RP1=0, select bank0
  3946     174B  00A0               	movwf	Reloj_ObtenerFechaHora@r
  3947     174C                     l3847:
  3948     174C  087A               	movf	Reloj_ObtenerFechaHora@fechahora,w
  3949     174D  3E05               	addlw	5
  3950     174E  00FC               	movwf	??_Reloj_ObtenerFechaHora
  3951     174F  087B               	movf	Reloj_ObtenerFechaHora@fechahora+1,w
  3952     1750  1803               	skipnc
  3953     1751  3E01               	addlw	1
  3954     1752  3E00               	addlw	0
  3955     1753  00FD               	movwf	??_Reloj_ObtenerFechaHora+1
  3956     1754  087C               	movf	??_Reloj_ObtenerFechaHora,w
  3957     1755  0084               	movwf	4
  3958     1756  1783               	bsf	3,7
  3959     1757  1C7D               	btfss	??_Reloj_ObtenerFechaHora+1,0
  3960     1758  1383               	bcf	3,7
  3961     1759  0820               	movf	Reloj_ObtenerFechaHora@r,w
  3962     175A  391F               	andlw	31
  3963     175B  160A  158A  22B9  160A  118A  	fcall	_Reloj_ConvertirBCD
  3964     1760  0080               	movwf	0
  3965                           
  3966                           ;reloj_tiempo_real.c: 112:     r = I2C_LeerByte(0); fechahora->anio = Reloj_ConvertirBCD
      +                          (r);
  3967     1761  3000               	movlw	0
  3968     1762  160A  158A  2560  160A  118A  	fcall	_I2C_LeerByte
  3969     1767  1283               	bcf	3,5	;RP0=0, select bank0
  3970     1768  1303               	bcf	3,6	;RP1=0, select bank0
  3971     1769  00A0               	movwf	Reloj_ObtenerFechaHora@r
  3972     176A                     l3849:
  3973     176A  087A               	movf	Reloj_ObtenerFechaHora@fechahora,w
  3974     176B  3E06               	addlw	6
  3975     176C  00FC               	movwf	??_Reloj_ObtenerFechaHora
  3976     176D  087B               	movf	Reloj_ObtenerFechaHora@fechahora+1,w
  3977     176E  1803               	skipnc
  3978     176F  3E01               	addlw	1
  3979     1770  3E00               	addlw	0
  3980     1771  00FD               	movwf	??_Reloj_ObtenerFechaHora+1
  3981     1772  087C               	movf	??_Reloj_ObtenerFechaHora,w
  3982     1773  0084               	movwf	4
  3983     1774  1783               	bsf	3,7
  3984     1775  1C7D               	btfss	??_Reloj_ObtenerFechaHora+1,0
  3985     1776  1383               	bcf	3,7
  3986     1777  0820               	movf	Reloj_ObtenerFechaHora@r,w
  3987     1778  160A  158A  22B9  160A  118A  	fcall	_Reloj_ConvertirBCD
  3988     177D  0080               	movwf	0
  3989     177E                     l3851:
  3990                           
  3991                           ;reloj_tiempo_real.c: 114:     I2C_CondicionParo();
  3992     177E  160A  158A  22CF  160A  118A  	fcall	_I2C_CondicionParo
  3993     1783                     l3853:
  3994                           
  3995                           ;reloj_tiempo_real.c: 116:     if(fechahora->segundos>59 || fechahora->minutos>59 || fec
      +                          hahora->horas>23 ||
  3996     1783  087A               	movf	Reloj_ObtenerFechaHora@fechahora,w
  3997     1784  0084               	movwf	4
  3998     1785  1783               	bsf	3,7
  3999     1786  1C7B               	btfss	Reloj_ObtenerFechaHora@fechahora+1,0
  4000     1787  1383               	bcf	3,7
  4001     1788  303C               	movlw	60
  4002     1789  0200               	subwf	0,w
  4003     178A  1803               	skipnc
  4004     178B  2F8D               	goto	u5111
  4005     178C  2F8E               	goto	u5110
  4006     178D                     u5111:
  4007     178D  2E78               	goto	l3803
  4008     178E                     u5110:
  4009     178E                     l3855:
  4010     178E  087A               	movf	Reloj_ObtenerFechaHora@fechahora,w
  4011     178F  3E01               	addlw	1
  4012     1790  00FC               	movwf	??_Reloj_ObtenerFechaHora
  4013     1791  087B               	movf	Reloj_ObtenerFechaHora@fechahora+1,w
  4014     1792  1803               	skipnc
  4015     1793  3E01               	addlw	1
  4016     1794  3E00               	addlw	0
  4017     1795  00FD               	movwf	??_Reloj_ObtenerFechaHora+1
  4018     1796  087C               	movf	??_Reloj_ObtenerFechaHora,w
  4019     1797  0084               	movwf	4
  4020     1798  1783               	bsf	3,7
  4021     1799  1C7D               	btfss	??_Reloj_ObtenerFechaHora+1,0
  4022     179A  1383               	bcf	3,7
  4023     179B  303C               	movlw	60
  4024     179C  0200               	subwf	0,w
  4025     179D  1803               	skipnc
  4026     179E  2FA0               	goto	u5121
  4027     179F  2FA1               	goto	u5120
  4028     17A0                     u5121:
  4029     17A0  2E78               	goto	l3803
  4030     17A1                     u5120:
  4031     17A1                     l3857:
  4032     17A1  087A               	movf	Reloj_ObtenerFechaHora@fechahora,w
  4033     17A2  3E02               	addlw	2
  4034     17A3  00FC               	movwf	??_Reloj_ObtenerFechaHora
  4035     17A4  087B               	movf	Reloj_ObtenerFechaHora@fechahora+1,w
  4036     17A5  1803               	skipnc
  4037     17A6  3E01               	addlw	1
  4038     17A7  3E00               	addlw	0
  4039     17A8  00FD               	movwf	??_Reloj_ObtenerFechaHora+1
  4040     17A9  087C               	movf	??_Reloj_ObtenerFechaHora,w
  4041     17AA  0084               	movwf	4
  4042     17AB  1783               	bsf	3,7
  4043     17AC  1C7D               	btfss	??_Reloj_ObtenerFechaHora+1,0
  4044     17AD  1383               	bcf	3,7
  4045     17AE  3018               	movlw	24
  4046     17AF  0200               	subwf	0,w
  4047     17B0  1803               	skipnc
  4048     17B1  2FB3               	goto	u5131
  4049     17B2  2FB4               	goto	u5130
  4050     17B3                     u5131:
  4051     17B3  2E78               	goto	l3803
  4052     17B4                     u5130:
  4053     17B4                     l3859:
  4054     17B4  087A               	movf	Reloj_ObtenerFechaHora@fechahora,w
  4055     17B5  3E04               	addlw	4
  4056     17B6  00FC               	movwf	??_Reloj_ObtenerFechaHora
  4057     17B7  087B               	movf	Reloj_ObtenerFechaHora@fechahora+1,w
  4058     17B8  1803               	skipnc
  4059     17B9  3E01               	addlw	1
  4060     17BA  3E00               	addlw	0
  4061     17BB  00FD               	movwf	??_Reloj_ObtenerFechaHora+1
  4062     17BC  087C               	movf	??_Reloj_ObtenerFechaHora,w
  4063     17BD  0084               	movwf	4
  4064     17BE  1783               	bsf	3,7
  4065     17BF  1C7D               	btfss	??_Reloj_ObtenerFechaHora+1,0
  4066     17C0  1383               	bcf	3,7
  4067     17C1  0800               	movf	0,w
  4068     17C2  1903               	btfsc	3,2
  4069     17C3  2FC5               	goto	u5141
  4070     17C4  2FC6               	goto	u5140
  4071     17C5                     u5141:
  4072     17C5  2E78               	goto	l3803
  4073     17C6                     u5140:
  4074     17C6                     l3861:
  4075     17C6  087A               	movf	Reloj_ObtenerFechaHora@fechahora,w
  4076     17C7  3E04               	addlw	4
  4077     17C8  00FC               	movwf	??_Reloj_ObtenerFechaHora
  4078     17C9  087B               	movf	Reloj_ObtenerFechaHora@fechahora+1,w
  4079     17CA  1803               	skipnc
  4080     17CB  3E01               	addlw	1
  4081     17CC  3E00               	addlw	0
  4082     17CD  00FD               	movwf	??_Reloj_ObtenerFechaHora+1
  4083     17CE  087C               	movf	??_Reloj_ObtenerFechaHora,w
  4084     17CF  0084               	movwf	4
  4085     17D0  1783               	bsf	3,7
  4086     17D1  1C7D               	btfss	??_Reloj_ObtenerFechaHora+1,0
  4087     17D2  1383               	bcf	3,7
  4088     17D3  3020               	movlw	32
  4089     17D4  0200               	subwf	0,w
  4090     17D5  1803               	skipnc
  4091     17D6  2FD8               	goto	u5151
  4092     17D7  2FD9               	goto	u5150
  4093     17D8                     u5151:
  4094     17D8  2E78               	goto	l3803
  4095     17D9                     u5150:
  4096     17D9                     l3863:
  4097     17D9  087A               	movf	Reloj_ObtenerFechaHora@fechahora,w
  4098     17DA  3E05               	addlw	5
  4099     17DB  00FC               	movwf	??_Reloj_ObtenerFechaHora
  4100     17DC  087B               	movf	Reloj_ObtenerFechaHora@fechahora+1,w
  4101     17DD  1803               	skipnc
  4102     17DE  3E01               	addlw	1
  4103     17DF  3E00               	addlw	0
  4104     17E0  00FD               	movwf	??_Reloj_ObtenerFechaHora+1
  4105     17E1  087C               	movf	??_Reloj_ObtenerFechaHora,w
  4106     17E2  0084               	movwf	4
  4107     17E3  1783               	bsf	3,7
  4108     17E4  1C7D               	btfss	??_Reloj_ObtenerFechaHora+1,0
  4109     17E5  1383               	bcf	3,7
  4110     17E6  0800               	movf	0,w
  4111     17E7  1903               	btfsc	3,2
  4112     17E8  2FEA               	goto	u5161
  4113     17E9  2FEB               	goto	u5160
  4114     17EA                     u5161:
  4115     17EA  2E78               	goto	l3803
  4116     17EB                     u5160:
  4117     17EB                     l3865:
  4118     17EB  087A               	movf	Reloj_ObtenerFechaHora@fechahora,w
  4119     17EC  3E05               	addlw	5
  4120     17ED  00FC               	movwf	??_Reloj_ObtenerFechaHora
  4121     17EE  087B               	movf	Reloj_ObtenerFechaHora@fechahora+1,w
  4122     17EF  1803               	skipnc
  4123     17F0  3E01               	addlw	1
  4124     17F1  3E00               	addlw	0
  4125     17F2  00FD               	movwf	??_Reloj_ObtenerFechaHora+1
  4126     17F3  087C               	movf	??_Reloj_ObtenerFechaHora,w
  4127     17F4  0084               	movwf	4
  4128     17F5  1783               	bsf	3,7
  4129     17F6  1C7D               	btfss	??_Reloj_ObtenerFechaHora+1,0
  4130     17F7  1383               	bcf	3,7
  4131     17F8  300D               	movlw	13
  4132     17F9  0200               	subwf	0,w
  4133     17FA  1C03               	skipc
  4134     17FB  2FFD               	goto	u5171
  4135     17FC  2FFE               	goto	u5170
  4136     17FD                     u5171:
  4137     17FD  2FFF               	goto	l126
  4138     17FE                     u5170:
  4139     17FE  2E78               	goto	l3803
  4140     17FF                     l126:
  4141     17FF  0008               	return
  4142     1800                     __end_of_Reloj_ObtenerFechaHora:
  4143                           
  4144                           	psect	text4
  4145     1A7C                     __ptext4:	
  4146 ;; *************** function _Reloj_VerificarConexion *****************
  4147 ;; Defined at:
  4148 ;;		line 67 in file "reloj_tiempo_real.c"
  4149 ;; Parameters:    Size  Location     Type
  4150 ;;		None
  4151 ;; Auto vars:     Size  Location     Type
  4152 ;;  ok              1    4[COMMON] unsigned char 
  4153 ;; Return value:  Size  Location     Type
  4154 ;;                  1    wreg      unsigned char 
  4155 ;; Registers used:
  4156 ;;		wreg, status,2, status,0, pclath, cstack
  4157 ;; Tracked objects:
  4158 ;;		On entry : 0/0
  4159 ;;		On exit  : 0/0
  4160 ;;		Unchanged: 0/0
  4161 ;; Data sizes:     COMMON   BANK0   BANK1   BANK3   BANK2
  4162 ;;      Params:         0       0       0       0       0
  4163 ;;      Locals:         1       0       0       0       0
  4164 ;;      Temps:          0       0       0       0       0
  4165 ;;      Totals:         1       0       0       0       0
  4166 ;;Total ram usage:        1 bytes
  4167 ;; Hardware stack levels used: 1
  4168 ;; Hardware stack levels required when called: 1
  4169 ;; This function calls:
  4170 ;;		_I2C_CondicionInicio
  4171 ;;		_I2C_CondicionParo
  4172 ;;		_I2C_EscribirByte
  4173 ;; This function is called by:
  4174 ;;		_Reloj_ObtenerFechaHora
  4175 ;; This function uses a non-reentrant model
  4176 ;;
  4177                           
  4178     1A7C                     _Reloj_VerificarConexion:	
  4179                           ;psect for function _Reloj_VerificarConexion
  4180                           
  4181     1A7C                     l3405:	
  4182                           ;incstack = 0
  4183                           ; Regs used in _Reloj_VerificarConexion: [wreg+status,2+status,0+pclath+cstack]
  4184                           
  4185                           
  4186                           ;reloj_tiempo_real.c: 68:     I2C_CondicionInicio();
  4187     1A7C  160A  158A  22EB  160A  158A  	fcall	_I2C_CondicionInicio
  4188                           
  4189                           ;reloj_tiempo_real.c: 69:     uint8_t ok = I2C_EscribirByte(0x68<<1);
  4190     1A81  30D0               	movlw	208
  4191     1A82  160A  158A  2519  160A  158A  	fcall	_I2C_EscribirByte
  4192     1A87  00F4               	movwf	Reloj_VerificarConexion@ok
  4193                           
  4194                           ;reloj_tiempo_real.c: 70:     I2C_CondicionParo();
  4195     1A88  160A  158A  22CF  160A  158A  	fcall	_I2C_CondicionParo
  4196     1A8D                     l3407:
  4197                           
  4198                           ;reloj_tiempo_real.c: 71:     return ok;
  4199     1A8D  0874               	movf	Reloj_VerificarConexion@ok,w
  4200     1A8E                     l119:
  4201     1A8E  0008               	return
  4202     1A8F                     __end_of_Reloj_VerificarConexion:
  4203                           
  4204                           	psect	text5
  4205     1D19                     __ptext5:	
  4206 ;; *************** function _I2C_EscribirByte *****************
  4207 ;; Defined at:
  4208 ;;		line 29 in file "reloj_tiempo_real.c"
  4209 ;; Parameters:    Size  Location     Type
  4210 ;;  dato            1    wreg     unsigned char 
  4211 ;; Auto vars:     Size  Location     Type
  4212 ;;  dato            1    1[COMMON] unsigned char 
  4213 ;;  i               1    3[COMMON] unsigned char 
  4214 ;;  confirmacion    1    2[COMMON] unsigned char 
  4215 ;; Return value:  Size  Location     Type
  4216 ;;                  1    wreg      unsigned char 
  4217 ;; Registers used:
  4218 ;;		wreg, status,2, status,0, pclath, cstack
  4219 ;; Tracked objects:
  4220 ;;		On entry : 0/0
  4221 ;;		On exit  : 0/0
  4222 ;;		Unchanged: 0/0
  4223 ;; Data sizes:     COMMON   BANK0   BANK1   BANK3   BANK2
  4224 ;;      Params:         0       0       0       0       0
  4225 ;;      Locals:         3       0       0       0       0
  4226 ;;      Temps:          1       0       0       0       0
  4227 ;;      Totals:         4       0       0       0       0
  4228 ;;Total ram usage:        4 bytes
  4229 ;; Hardware stack levels used: 1
  4230 ;; This function calls:
  4231 ;;		_SCL_ForzarBajo
  4232 ;;		_SCL_Liberar
  4233 ;;		_SDA_ForzarBajo
  4234 ;;		_SDA_Liberar
  4235 ;; This function is called by:
  4236 ;;		_Reloj_VerificarConexion
  4237 ;;		_Reloj_ObtenerFechaHora
  4238 ;; This function uses a non-reentrant model
  4239 ;;
  4240                           
  4241     1D19                     _I2C_EscribirByte:	
  4242                           ;psect for function _I2C_EscribirByte
  4243                           
  4244                           
  4245                           ;incstack = 0
  4246                           ; Regs used in _I2C_EscribirByte: [wreg+status,2+status,0+pclath+cstack]
  4247                           ;I2C_EscribirByte@dato stored from wreg
  4248     1D19  00F1               	movwf	I2C_EscribirByte@dato
  4249     1D1A                     l2729:
  4250                           
  4251                           ;reloj_tiempo_real.c: 30:     for(uint8_t i=0;i<8;i++){
  4252     1D1A  01F3               	clrf	I2C_EscribirByte@i
  4253     1D1B                     l98:
  4254                           
  4255                           ;reloj_tiempo_real.c: 31:         if(dato & 0x80) SDA_Liberar(); else SDA_ForzarBajo();
  4256     1D1B  1FF1               	btfss	I2C_EscribirByte@dato,7
  4257     1D1C  2D1E               	goto	u2961
  4258     1D1D  2D1F               	goto	u2960
  4259     1D1E                     u2961:
  4260     1D1E  2D25               	goto	l2737
  4261     1D1F                     u2960:
  4262     1D1F                     l2735:
  4263     1D1F  160A  158A  221D  160A  158A  	fcall	_SDA_Liberar
  4264     1D24  2D2A               	goto	l101
  4265     1D25                     l2737:
  4266     1D25  120A  118A  2071  160A  158A  	fcall	_SDA_ForzarBajo
  4267     1D2A                     l101:
  4268                           
  4269                           ;reloj_tiempo_real.c: 32:         SCL_Liberar(); _delay((unsigned long)((5)*(20000000/40
      +                          00000.0)));
  4270     1D2A  160A  158A  2219  160A  158A  	fcall	_SCL_Liberar
  4271     1D2F                     l2739:
  4272     1D2F  3008               	movlw	8
  4273     1D30  00F0               	movwf	??_I2C_EscribirByte
  4274     1D31                     u5957:
  4275     1D31  0BF0               	decfsz	??_I2C_EscribirByte,f
  4276     1D32  2D31               	goto	u5957
  4277     1D33                     l2741:
  4278                           
  4279                           ;reloj_tiempo_real.c: 33:         SCL_ForzarBajo();
  4280     1D33  160A  158A  2225  160A  158A  	fcall	_SCL_ForzarBajo
  4281                           
  4282                           ;reloj_tiempo_real.c: 34:         dato <<= 1;
  4283     1D38  1003               	clrc
  4284     1D39  0DF1               	rlf	I2C_EscribirByte@dato,f
  4285     1D3A                     l2743:
  4286                           
  4287                           ;reloj_tiempo_real.c: 35:     }
  4288     1D3A  3001               	movlw	1
  4289     1D3B  07F3               	addwf	I2C_EscribirByte@i,f
  4290     1D3C                     l2745:
  4291     1D3C  3008               	movlw	8
  4292     1D3D  0273               	subwf	I2C_EscribirByte@i,w
  4293     1D3E  1C03               	skipc
  4294     1D3F  2D41               	goto	u2971
  4295     1D40  2D42               	goto	u2970
  4296     1D41                     u2971:
  4297     1D41  2D1B               	goto	l98
  4298     1D42                     u2970:
  4299     1D42                     l2747:
  4300                           
  4301                           ;reloj_tiempo_real.c: 36:     SDA_Liberar();
  4302     1D42  160A  158A  221D  160A  158A  	fcall	_SDA_Liberar
  4303                           
  4304                           ;reloj_tiempo_real.c: 37:     SCL_Liberar(); _delay((unsigned long)((5)*(20000000/400000
      +                          0.0)));
  4305     1D47  160A  158A  2219  160A  158A  	fcall	_SCL_Liberar
  4306     1D4C                     l2749:
  4307     1D4C  3008               	movlw	8
  4308     1D4D  00F0               	movwf	??_I2C_EscribirByte
  4309     1D4E                     u5967:
  4310     1D4E  0BF0               	decfsz	??_I2C_EscribirByte,f
  4311     1D4F  2D4E               	goto	u5967
  4312     1D50                     l2751:
  4313                           
  4314                           ;reloj_tiempo_real.c: 38:     uint8_t confirmacion = (PORTCbits.RC4 == 0);
  4315     1D50  1003               	clrc
  4316     1D51  1283               	bcf	3,5	;RP0=0, select bank0
  4317     1D52  1303               	bcf	3,6	;RP1=0, select bank0
  4318     1D53  1E07               	btfss	7,4	;volatile
  4319     1D54  1403               	setc
  4320     1D55  3000               	movlw	0
  4321     1D56  1803               	skipnc
  4322     1D57  3001               	movlw	1
  4323     1D58  00F2               	movwf	I2C_EscribirByte@confirmacion
  4324     1D59                     l2753:
  4325                           
  4326                           ;reloj_tiempo_real.c: 39:     SCL_ForzarBajo();
  4327     1D59  160A  158A  2225  160A  158A  	fcall	_SCL_ForzarBajo
  4328     1D5E                     l2755:
  4329                           
  4330                           ;reloj_tiempo_real.c: 40:     return confirmacion;
  4331     1D5E  0872               	movf	I2C_EscribirByte@confirmacion,w
  4332     1D5F                     l102:
  4333     1D5F  0008               	return
  4334     1D60                     __end_of_I2C_EscribirByte:
  4335                           
  4336                           	psect	text6
  4337     1ACF                     __ptext6:	
  4338 ;; *************** function _I2C_CondicionParo *****************
  4339 ;; Defined at:
  4340 ;;		line 23 in file "reloj_tiempo_real.c"
  4341 ;; Parameters:    Size  Location     Type
  4342 ;;		None
  4343 ;; Auto vars:     Size  Location     Type
  4344 ;;		None
  4345 ;; Return value:  Size  Location     Type
  4346 ;;                  1    wreg      void 
  4347 ;; Registers used:
  4348 ;;		wreg, status,2, status,0, pclath, cstack
  4349 ;; Tracked objects:
  4350 ;;		On entry : 0/0
  4351 ;;		On exit  : 0/0
  4352 ;;		Unchanged: 0/0
  4353 ;; Data sizes:     COMMON   BANK0   BANK1   BANK3   BANK2
  4354 ;;      Params:         0       0       0       0       0
  4355 ;;      Locals:         0       0       0       0       0
  4356 ;;      Temps:          1       0       0       0       0
  4357 ;;      Totals:         1       0       0       0       0
  4358 ;;Total ram usage:        1 bytes
  4359 ;; Hardware stack levels used: 1
  4360 ;; This function calls:
  4361 ;;		_SCL_Liberar
  4362 ;;		_SDA_ForzarBajo
  4363 ;;		_SDA_Liberar
  4364 ;; This function is called by:
  4365 ;;		_Reloj_VerificarConexion
  4366 ;;		_Reloj_ObtenerFechaHora
  4367 ;; This function uses a non-reentrant model
  4368 ;;
  4369                           
  4370     1ACF                     _I2C_CondicionParo:	
  4371                           ;psect for function _I2C_CondicionParo
  4372                           
  4373     1ACF                     l2719:	
  4374                           ;incstack = 0
  4375                           ; Regs used in _I2C_CondicionParo: [wreg+status,2+status,0+pclath+cstack]
  4376                           
  4377                           
  4378                           ;reloj_tiempo_real.c: 24:     SDA_ForzarBajo(); _delay((unsigned long)((5)*(20000000/400
      +                          0000.0)));
  4379     1ACF  120A  118A  2071  160A  158A  	fcall	_SDA_ForzarBajo
  4380     1AD4                     l2721:
  4381     1AD4  3008               	movlw	8
  4382     1AD5  00F0               	movwf	??_I2C_CondicionParo
  4383     1AD6                     u5977:
  4384     1AD6  0BF0               	decfsz	??_I2C_CondicionParo,f
  4385     1AD7  2AD6               	goto	u5977
  4386     1AD8                     l2723:
  4387                           
  4388                           ;reloj_tiempo_real.c: 25:     SCL_Liberar(); _delay((unsigned long)((5)*(20000000/400000
      +                          0.0)));
  4389     1AD8  160A  158A  2219  160A  158A  	fcall	_SCL_Liberar
  4390     1ADD  3008               	movlw	8
  4391     1ADE  00F0               	movwf	??_I2C_CondicionParo
  4392     1ADF                     u5987:
  4393     1ADF  0BF0               	decfsz	??_I2C_CondicionParo,f
  4394     1AE0  2ADF               	goto	u5987
  4395     1AE1                     l2725:
  4396                           
  4397                           ;reloj_tiempo_real.c: 26:     SDA_Liberar(); _delay((unsigned long)((5)*(20000000/400000
      +                          0.0)));
  4398     1AE1  160A  158A  221D  160A  158A  	fcall	_SDA_Liberar
  4399     1AE6                     l2727:
  4400     1AE6  3008               	movlw	8
  4401     1AE7  00F0               	movwf	??_I2C_CondicionParo
  4402     1AE8                     u5997:
  4403     1AE8  0BF0               	decfsz	??_I2C_CondicionParo,f
  4404     1AE9  2AE8               	goto	u5997
  4405     1AEA                     l95:
  4406     1AEA  0008               	return
  4407     1AEB                     __end_of_I2C_CondicionParo:
  4408                           
  4409                           	psect	text7
  4410     1AEB                     __ptext7:	
  4411 ;; *************** function _I2C_CondicionInicio *****************
  4412 ;; Defined at:
  4413 ;;		line 16 in file "reloj_tiempo_real.c"
  4414 ;; Parameters:    Size  Location     Type
  4415 ;;		None
  4416 ;; Auto vars:     Size  Location     Type
  4417 ;;		None
  4418 ;; Return value:  Size  Location     Type
  4419 ;;                  1    wreg      void 
  4420 ;; Registers used:
  4421 ;;		wreg, status,2, status,0, pclath, cstack
  4422 ;; Tracked objects:
  4423 ;;		On entry : 0/0
  4424 ;;		On exit  : 0/0
  4425 ;;		Unchanged: 0/0
  4426 ;; Data sizes:     COMMON   BANK0   BANK1   BANK3   BANK2
  4427 ;;      Params:         0       0       0       0       0
  4428 ;;      Locals:         0       0       0       0       0
  4429 ;;      Temps:          1       0       0       0       0
  4430 ;;      Totals:         1       0       0       0       0
  4431 ;;Total ram usage:        1 bytes
  4432 ;; Hardware stack levels used: 1
  4433 ;; This function calls:
  4434 ;;		_SCL_ForzarBajo
  4435 ;;		_SCL_Liberar
  4436 ;;		_SDA_ForzarBajo
  4437 ;;		_SDA_Liberar
  4438 ;; This function is called by:
  4439 ;;		_Reloj_VerificarConexion
  4440 ;;		_Reloj_ObtenerFechaHora
  4441 ;; This function uses a non-reentrant model
  4442 ;;
  4443                           
  4444     1AEB                     _I2C_CondicionInicio:	
  4445                           ;psect for function _I2C_CondicionInicio
  4446                           
  4447     1AEB                     l2711:	
  4448                           ;incstack = 0
  4449                           ; Regs used in _I2C_CondicionInicio: [wreg+status,2+status,0+pclath+cstack]
  4450                           
  4451                           
  4452                           ;reloj_tiempo_real.c: 17:     SDA_Liberar();
  4453     1AEB  160A  158A  221D  160A  158A  	fcall	_SDA_Liberar
  4454                           
  4455                           ;reloj_tiempo_real.c: 18:     SCL_Liberar(); _delay((unsigned long)((5)*(20000000/400000
      +                          0.0)));
  4456     1AF0  160A  158A  2219  160A  158A  	fcall	_SCL_Liberar
  4457     1AF5                     l2713:
  4458     1AF5  3008               	movlw	8
  4459     1AF6  00F0               	movwf	??_I2C_CondicionInicio
  4460     1AF7                     u6007:
  4461     1AF7  0BF0               	decfsz	??_I2C_CondicionInicio,f
  4462     1AF8  2AF7               	goto	u6007
  4463     1AF9                     l2715:
  4464                           
  4465                           ;reloj_tiempo_real.c: 19:     SDA_ForzarBajo(); _delay((unsigned long)((5)*(20000000/400
      +                          0000.0)));
  4466     1AF9  120A  118A  2071  160A  158A  	fcall	_SDA_ForzarBajo
  4467     1AFE  3008               	movlw	8
  4468     1AFF  00F0               	movwf	??_I2C_CondicionInicio
  4469     1B00                     u6017:
  4470     1B00  0BF0               	decfsz	??_I2C_CondicionInicio,f
  4471     1B01  2B00               	goto	u6017
  4472     1B02                     l2717:
  4473                           
  4474                           ;reloj_tiempo_real.c: 20:     SCL_ForzarBajo();
  4475     1B02  160A  158A  2225  160A  158A  	fcall	_SCL_ForzarBajo
  4476     1B07                     l92:
  4477     1B07  0008               	return
  4478     1B08                     __end_of_I2C_CondicionInicio:
  4479                           
  4480                           	psect	text8
  4481     1AB9                     __ptext8:	
  4482 ;; *************** function _Reloj_ConvertirBCD *****************
  4483 ;; Defined at:
  4484 ;;		line 58 in file "reloj_tiempo_real.c"
  4485 ;; Parameters:    Size  Location     Type
  4486 ;;  b               1    wreg     unsigned char 
  4487 ;; Auto vars:     Size  Location     Type
  4488 ;;  b               1    5[COMMON] unsigned char 
  4489 ;; Return value:  Size  Location     Type
  4490 ;;                  1    wreg      unsigned char 
  4491 ;; Registers used:
  4492 ;;		wreg, status,2, status,0, pclath, cstack
  4493 ;; Tracked objects:
  4494 ;;		On entry : 0/0
  4495 ;;		On exit  : 0/0
  4496 ;;		Unchanged: 0/0
  4497 ;; Data sizes:     COMMON   BANK0   BANK1   BANK3   BANK2
  4498 ;;      Params:         0       0       0       0       0
  4499 ;;      Locals:         1       0       0       0       0
  4500 ;;      Temps:          2       0       0       0       0
  4501 ;;      Totals:         3       0       0       0       0
  4502 ;;Total ram usage:        3 bytes
  4503 ;; Hardware stack levels used: 1
  4504 ;; Hardware stack levels required when called: 1
  4505 ;; This function calls:
  4506 ;;		___bmul
  4507 ;; This function is called by:
  4508 ;;		_Reloj_ObtenerFechaHora
  4509 ;; This function uses a non-reentrant model
  4510 ;;
  4511                           
  4512     1AB9                     _Reloj_ConvertirBCD:	
  4513                           ;psect for function _Reloj_ConvertirBCD
  4514                           
  4515                           
  4516                           ;incstack = 0
  4517                           ; Regs used in _Reloj_ConvertirBCD: [wreg+status,2+status,0+pclath+cstack]
  4518                           ;Reloj_ConvertirBCD@b stored from wreg
  4519     1AB9  00F5               	movwf	Reloj_ConvertirBCD@b
  4520     1ABA                     l3401:
  4521                           
  4522                           ;reloj_tiempo_real.c: 59:     return ((b>>4)*10u) + (b & 0x0Fu);
  4523     1ABA  300F               	movlw	15
  4524     1ABB  0575               	andwf	Reloj_ConvertirBCD@b,w
  4525     1ABC  00F3               	movwf	??_Reloj_ConvertirBCD
  4526     1ABD  300A               	movlw	10
  4527     1ABE  00F0               	movwf	___bmul@multiplicand
  4528     1ABF  0875               	movf	Reloj_ConvertirBCD@b,w
  4529     1AC0  00F4               	movwf	??_Reloj_ConvertirBCD+1
  4530     1AC1  3004               	movlw	4
  4531     1AC2                     u4455:
  4532     1AC2  1003               	clrc
  4533     1AC3  0CF4               	rrf	??_Reloj_ConvertirBCD+1,f
  4534     1AC4  3EFF               	addlw	-1
  4535     1AC5  1D03               	skipz
  4536     1AC6  2AC2               	goto	u4455
  4537     1AC7  0874               	movf	??_Reloj_ConvertirBCD+1,w
  4538     1AC8  160A  158A  2269  160A  158A  	fcall	___bmul
  4539     1ACD  0773               	addwf	??_Reloj_ConvertirBCD,w
  4540     1ACE                     l113:
  4541     1ACE  0008               	return
  4542     1ACF                     __end_of_Reloj_ConvertirBCD:
  4543                           
  4544                           	psect	text9
  4545     1A69                     __ptext9:	
  4546 ;; *************** function ___bmul *****************
  4547 ;; Defined at:
  4548 ;;		line 4 in file "C:\Program Files\Microchip\xc8\v3.10\pic\sources\c99\common\Umul8.c"
  4549 ;; Parameters:    Size  Location     Type
  4550 ;;  multiplier      1    wreg     unsigned char 
  4551 ;;  multiplicand    1    0[COMMON] unsigned char 
  4552 ;; Auto vars:     Size  Location     Type
  4553 ;;  multiplier      1    2[COMMON] unsigned char 
  4554 ;;  product         1    1[COMMON] unsigned char 
  4555 ;; Return value:  Size  Location     Type
  4556 ;;                  1    wreg      unsigned char 
  4557 ;; Registers used:
  4558 ;;		wreg, status,2, status,0
  4559 ;; Tracked objects:
  4560 ;;		On entry : 0/0
  4561 ;;		On exit  : 0/0
  4562 ;;		Unchanged: 0/0
  4563 ;; Data sizes:     COMMON   BANK0   BANK1   BANK3   BANK2
  4564 ;;      Params:         1       0       0       0       0
  4565 ;;      Locals:         2       0       0       0       0
  4566 ;;      Temps:          0       0       0       0       0
  4567 ;;      Totals:         3       0       0       0       0
  4568 ;;Total ram usage:        3 bytes
  4569 ;; Hardware stack levels used: 1
  4570 ;; This function calls:
  4571 ;;		Nothing
  4572 ;; This function is called by:
  4573 ;;		_Reloj_ConvertirBCD
  4574 ;; This function uses a non-reentrant model
  4575 ;;
  4576                           
  4577     1A69                     ___bmul:	
  4578                           ;psect for function ___bmul
  4579                           
  4580                           
  4581                           ;incstack = 0
  4582                           ; Regs used in ___bmul: [wreg+status,2+status,0]
  4583                           ;___bmul@multiplier stored from wreg
  4584     1A69  00F2               	movwf	___bmul@multiplier
  4585     1A6A                     l2793:
  4586     1A6A  01F1               	clrf	___bmul@product
  4587     1A6B                     l2795:
  4588     1A6B  1C72               	btfss	___bmul@multiplier,0
  4589     1A6C  2A6E               	goto	u3051
  4590     1A6D  2A6F               	goto	u3050
  4591     1A6E                     u3051:
  4592     1A6E  2A71               	goto	l2799
  4593     1A6F                     u3050:
  4594     1A6F                     l2797:
  4595     1A6F  0870               	movf	___bmul@multiplicand,w
  4596     1A70  07F1               	addwf	___bmul@product,f
  4597     1A71                     l2799:
  4598     1A71  1003               	clrc
  4599     1A72  0DF0               	rlf	___bmul@multiplicand,f
  4600     1A73                     l2801:
  4601     1A73  1003               	clrc
  4602     1A74  0CF2               	rrf	___bmul@multiplier,f
  4603     1A75  0872               	movf	___bmul@multiplier,w
  4604     1A76  1D03               	btfss	3,2
  4605     1A77  2A79               	goto	u3061
  4606     1A78  2A7A               	goto	u3060
  4607     1A79                     u3061:
  4608     1A79  2A6B               	goto	l2795
  4609     1A7A                     u3060:
  4610     1A7A                     l2803:
  4611     1A7A  0871               	movf	___bmul@product,w
  4612     1A7B                     l433:
  4613     1A7B  0008               	return
  4614     1A7C                     __end_of___bmul:
  4615                           
  4616                           	psect	text10
  4617     0801                     __ptext10:	
  4618 ;; *************** function _LimpiarFechaHora *****************
  4619 ;; Defined at:
  4620 ;;		line 74 in file "reloj_tiempo_real.c"
  4621 ;; Parameters:    Size  Location     Type
  4622 ;;  t               2    0[COMMON] PTR struct .
  4623 ;;		 -> main@fecha(7), 
  4624 ;; Auto vars:     Size  Location     Type
  4625 ;;		None
  4626 ;; Return value:  Size  Location     Type
  4627 ;;                  1    wreg      void 
  4628 ;; Registers used:
  4629 ;;		wreg, fsr0l, fsr0h, status,2, status,0
  4630 ;; Tracked objects:
  4631 ;;		On entry : 0/0
  4632 ;;		On exit  : 0/0
  4633 ;;		Unchanged: 0/0
  4634 ;; Data sizes:     COMMON   BANK0   BANK1   BANK3   BANK2
  4635 ;;      Params:         2       0       0       0       0
  4636 ;;      Locals:         0       0       0       0       0
  4637 ;;      Temps:          8       0       0       0       0
  4638 ;;      Totals:        10       0       0       0       0
  4639 ;;Total ram usage:       10 bytes
  4640 ;; Hardware stack levels used: 1
  4641 ;; This function calls:
  4642 ;;		Nothing
  4643 ;; This function is called by:
  4644 ;;		_Reloj_ObtenerFechaHora
  4645 ;; This function uses a non-reentrant model
  4646 ;;
  4647                           
  4648     0801                     _LimpiarFechaHora:	
  4649                           ;psect for function _LimpiarFechaHora
  4650                           
  4651     0801                     l3411:	
  4652                           ;incstack = 0
  4653                           ; Regs used in _LimpiarFechaHora: [wreg-fsr0h+status,2+status,0]
  4654                           
  4655                           
  4656                           ;reloj_tiempo_real.c: 75:     t->segundos=t->minutos=t->horas=0;
  4657     0801  0870               	movf	LimpiarFechaHora@t,w
  4658     0802  3E02               	addlw	2
  4659     0803  00F2               	movwf	??_LimpiarFechaHora
  4660     0804  0871               	movf	LimpiarFechaHora@t+1,w
  4661     0805  1803               	skipnc
  4662     0806  3E01               	addlw	1
  4663     0807  3E00               	addlw	0
  4664     0808  00F3               	movwf	??_LimpiarFechaHora+1
  4665     0809  0872               	movf	??_LimpiarFechaHora,w
  4666     080A  0084               	movwf	4
  4667     080B  1783               	bsf	3,7
  4668     080C  1C73               	btfss	??_LimpiarFechaHora+1,0
  4669     080D  1383               	bcf	3,7
  4670     080E  0180               	clrf	0
  4671     080F  0870               	movf	LimpiarFechaHora@t,w
  4672     0810  3E01               	addlw	1
  4673     0811  00F4               	movwf	??_LimpiarFechaHora+2
  4674     0812  0871               	movf	LimpiarFechaHora@t+1,w
  4675     0813  1803               	skipnc
  4676     0814  3E01               	addlw	1
  4677     0815  3E00               	addlw	0
  4678     0816  00F5               	movwf	??_LimpiarFechaHora+3
  4679     0817  0874               	movf	??_LimpiarFechaHora+2,w
  4680     0818  0084               	movwf	4
  4681     0819  1783               	bsf	3,7
  4682     081A  1C75               	btfss	??_LimpiarFechaHora+3,0
  4683     081B  1383               	bcf	3,7
  4684     081C  0180               	clrf	0
  4685     081D  0870               	movf	LimpiarFechaHora@t,w
  4686     081E  0084               	movwf	4
  4687     081F  1783               	bsf	3,7
  4688     0820  1C71               	btfss	LimpiarFechaHora@t+1,0
  4689     0821  1383               	bcf	3,7
  4690     0822  0180               	clrf	0
  4691                           
  4692                           ;reloj_tiempo_real.c: 76:     t->dia=t->fecha=t->mes=t->anio=0;
  4693     0823  0870               	movf	LimpiarFechaHora@t,w
  4694     0824  3E06               	addlw	6
  4695     0825  00F2               	movwf	??_LimpiarFechaHora
  4696     0826  0871               	movf	LimpiarFechaHora@t+1,w
  4697     0827  1803               	skipnc
  4698     0828  3E01               	addlw	1
  4699     0829  3E00               	addlw	0
  4700     082A  00F3               	movwf	??_LimpiarFechaHora+1
  4701     082B  0872               	movf	??_LimpiarFechaHora,w
  4702     082C  0084               	movwf	4
  4703     082D  1783               	bsf	3,7
  4704     082E  1C73               	btfss	??_LimpiarFechaHora+1,0
  4705     082F  1383               	bcf	3,7
  4706     0830  0180               	clrf	0
  4707     0831  0870               	movf	LimpiarFechaHora@t,w
  4708     0832  3E05               	addlw	5
  4709     0833  00F4               	movwf	??_LimpiarFechaHora+2
  4710     0834  0871               	movf	LimpiarFechaHora@t+1,w
  4711     0835  1803               	skipnc
  4712     0836  3E01               	addlw	1
  4713     0837  3E00               	addlw	0
  4714     0838  00F5               	movwf	??_LimpiarFechaHora+3
  4715     0839  0874               	movf	??_LimpiarFechaHora+2,w
  4716     083A  0084               	movwf	4
  4717     083B  1783               	bsf	3,7
  4718     083C  1C75               	btfss	??_LimpiarFechaHora+3,0
  4719     083D  1383               	bcf	3,7
  4720     083E  0180               	clrf	0
  4721     083F  0870               	movf	LimpiarFechaHora@t,w
  4722     0840  3E04               	addlw	4
  4723     0841  00F6               	movwf	??_LimpiarFechaHora+4
  4724     0842  0871               	movf	LimpiarFechaHora@t+1,w
  4725     0843  1803               	skipnc
  4726     0844  3E01               	addlw	1
  4727     0845  3E00               	addlw	0
  4728     0846  00F7               	movwf	??_LimpiarFechaHora+5
  4729     0847  0876               	movf	??_LimpiarFechaHora+4,w
  4730     0848  0084               	movwf	4
  4731     0849  1783               	bsf	3,7
  4732     084A  1C77               	btfss	??_LimpiarFechaHora+5,0
  4733     084B  1383               	bcf	3,7
  4734     084C  0180               	clrf	0
  4735     084D  0870               	movf	LimpiarFechaHora@t,w
  4736     084E  3E03               	addlw	3
  4737     084F  00F8               	movwf	??_LimpiarFechaHora+6
  4738     0850  0871               	movf	LimpiarFechaHora@t+1,w
  4739     0851  1803               	skipnc
  4740     0852  3E01               	addlw	1
  4741     0853  3E00               	addlw	0
  4742     0854  00F9               	movwf	??_LimpiarFechaHora+7
  4743     0855  0878               	movf	??_LimpiarFechaHora+6,w
  4744     0856  0084               	movwf	4
  4745     0857  1783               	bsf	3,7
  4746     0858  1C79               	btfss	??_LimpiarFechaHora+7,0
  4747     0859  1383               	bcf	3,7
  4748     085A  0180               	clrf	0
  4749     085B                     l122:
  4750     085B  0008               	return
  4751     085C                     __end_of_LimpiarFechaHora:
  4752                           
  4753                           	psect	text11
  4754     1D60                     __ptext11:	
  4755 ;; *************** function _I2C_LeerByte *****************
  4756 ;; Defined at:
  4757 ;;		line 43 in file "reloj_tiempo_real.c"
  4758 ;; Parameters:    Size  Location     Type
  4759 ;;  confirmacion    1    wreg     unsigned char 
  4760 ;; Auto vars:     Size  Location     Type
  4761 ;;  confirmacion    1    1[COMMON] unsigned char 
  4762 ;;  i               1    3[COMMON] unsigned char 
  4763 ;;  dato            1    2[COMMON] unsigned char 
  4764 ;; Return value:  Size  Location     Type
  4765 ;;                  1    wreg      unsigned char 
  4766 ;; Registers used:
  4767 ;;		wreg, status,2, status,0, pclath, cstack
  4768 ;; Tracked objects:
  4769 ;;		On entry : 0/0
  4770 ;;		On exit  : 0/0
  4771 ;;		Unchanged: 0/0
  4772 ;; Data sizes:     COMMON   BANK0   BANK1   BANK3   BANK2
  4773 ;;      Params:         0       0       0       0       0
  4774 ;;      Locals:         3       0       0       0       0
  4775 ;;      Temps:          1       0       0       0       0
  4776 ;;      Totals:         4       0       0       0       0
  4777 ;;Total ram usage:        4 bytes
  4778 ;; Hardware stack levels used: 1
  4779 ;; Hardware stack levels required when called: 1
  4780 ;; This function calls:
  4781 ;;		_SCL_ForzarBajo
  4782 ;;		_SCL_Liberar
  4783 ;;		_SDA_ForzarBajo
  4784 ;;		_SDA_Liberar
  4785 ;; This function is called by:
  4786 ;;		_Reloj_ObtenerFechaHora
  4787 ;; This function uses a non-reentrant model
  4788 ;;
  4789                           
  4790     1D60                     _I2C_LeerByte:	
  4791                           ;psect for function _I2C_LeerByte
  4792                           
  4793                           
  4794                           ;incstack = 0
  4795                           ; Regs used in _I2C_LeerByte: [wreg+status,2+status,0+pclath+cstack]
  4796                           ;I2C_LeerByte@confirmacion stored from wreg
  4797     1D60  00F1               	movwf	I2C_LeerByte@confirmacion
  4798     1D61                     l3359:
  4799                           
  4800                           ;reloj_tiempo_real.c: 44:     uint8_t dato=0;
  4801     1D61  01F2               	clrf	I2C_LeerByte@dato
  4802     1D62                     l3361:
  4803                           
  4804                           ;reloj_tiempo_real.c: 45:     SDA_Liberar();
  4805     1D62  160A  158A  221D  160A  158A  	fcall	_SDA_Liberar
  4806     1D67                     l3363:
  4807                           
  4808                           ;reloj_tiempo_real.c: 46:     for(uint8_t i=0;i<8;i++){
  4809     1D67  01F3               	clrf	I2C_LeerByte@i
  4810     1D68                     l3369:
  4811                           
  4812                           ;reloj_tiempo_real.c: 47:         dato <<= 1;
  4813     1D68  1003               	clrc
  4814     1D69  0DF2               	rlf	I2C_LeerByte@dato,f
  4815     1D6A                     l3371:
  4816                           
  4817                           ;reloj_tiempo_real.c: 48:         SCL_Liberar(); _delay((unsigned long)((5)*(20000000/40
      +                          00000.0)));
  4818     1D6A  160A  158A  2219  160A  158A  	fcall	_SCL_Liberar
  4819     1D6F                     l3373:
  4820     1D6F  3008               	movlw	8
  4821     1D70  00F0               	movwf	??_I2C_LeerByte
  4822     1D71                     u6027:
  4823     1D71  0BF0               	decfsz	??_I2C_LeerByte,f
  4824     1D72  2D71               	goto	u6027
  4825     1D73                     l3375:
  4826                           
  4827                           ;reloj_tiempo_real.c: 49:         if(PORTCbits.RC4) dato |= 1;
  4828     1D73  1283               	bcf	3,5	;RP0=0, select bank0
  4829     1D74  1303               	bcf	3,6	;RP1=0, select bank0
  4830     1D75  1E07               	btfss	7,4	;volatile
  4831     1D76  2D78               	goto	u4421
  4832     1D77  2D79               	goto	u4420
  4833     1D78                     u4421:
  4834     1D78  2D7A               	goto	l3379
  4835     1D79                     u4420:
  4836     1D79                     l3377:
  4837     1D79  1472               	bsf	I2C_LeerByte@dato,0
  4838     1D7A                     l3379:
  4839                           
  4840                           ;reloj_tiempo_real.c: 50:         SCL_ForzarBajo();
  4841     1D7A  160A  158A  2225  160A  158A  	fcall	_SCL_ForzarBajo
  4842     1D7F                     l3381:
  4843                           
  4844                           ;reloj_tiempo_real.c: 51:     }
  4845     1D7F  3001               	movlw	1
  4846     1D80  07F3               	addwf	I2C_LeerByte@i,f
  4847     1D81                     l3383:
  4848     1D81  3008               	movlw	8
  4849     1D82  0273               	subwf	I2C_LeerByte@i,w
  4850     1D83  1C03               	skipc
  4851     1D84  2D86               	goto	u4431
  4852     1D85  2D87               	goto	u4430
  4853     1D86                     u4431:
  4854     1D86  2D68               	goto	l3369
  4855     1D87                     u4430:
  4856     1D87                     l3385:
  4857                           
  4858                           ;reloj_tiempo_real.c: 52:     if(confirmacion) SDA_ForzarBajo(); else SDA_Liberar();
  4859     1D87  0871               	movf	I2C_LeerByte@confirmacion,w
  4860     1D88  1903               	btfsc	3,2
  4861     1D89  2D8B               	goto	u4441
  4862     1D8A  2D8C               	goto	u4440
  4863     1D8B                     u4441:
  4864     1D8B  2D92               	goto	l3389
  4865     1D8C                     u4440:
  4866     1D8C                     l3387:
  4867     1D8C  120A  118A  2071  160A  158A  	fcall	_SDA_ForzarBajo
  4868     1D91  2D97               	goto	l109
  4869     1D92                     l3389:
  4870     1D92  160A  158A  221D  160A  158A  	fcall	_SDA_Liberar
  4871     1D97                     l109:
  4872                           
  4873                           ;reloj_tiempo_real.c: 53:     SCL_Liberar(); _delay((unsigned long)((5)*(20000000/400000
      +                          0.0)));
  4874     1D97  160A  158A  2219  160A  158A  	fcall	_SCL_Liberar
  4875     1D9C                     l3391:
  4876     1D9C  3008               	movlw	8
  4877     1D9D  00F0               	movwf	??_I2C_LeerByte
  4878     1D9E                     u6037:
  4879     1D9E  0BF0               	decfsz	??_I2C_LeerByte,f
  4880     1D9F  2D9E               	goto	u6037
  4881     1DA0                     l3393:
  4882                           
  4883                           ;reloj_tiempo_real.c: 54:     SCL_ForzarBajo(); SDA_Liberar();
  4884     1DA0  160A  158A  2225  160A  158A  	fcall	_SCL_ForzarBajo
  4885     1DA5                     l3395:
  4886     1DA5  160A  158A  221D  160A  158A  	fcall	_SDA_Liberar
  4887     1DAA                     l3397:
  4888                           
  4889                           ;reloj_tiempo_real.c: 55:     return dato;
  4890     1DAA  0872               	movf	I2C_LeerByte@dato,w
  4891     1DAB                     l110:
  4892     1DAB  0008               	return
  4893     1DAC                     __end_of_I2C_LeerByte:
  4894                           
  4895                           	psect	text12
  4896     0071                     __ptext12:	
  4897 ;; *************** function _SDA_ForzarBajo *****************
  4898 ;; Defined at:
  4899 ;;		line 6 in file "reloj_tiempo_real.c"
  4900 ;; Parameters:    Size  Location     Type
  4901 ;;		None
  4902 ;; Auto vars:     Size  Location     Type
  4903 ;;		None
  4904 ;; Return value:  Size  Location     Type
  4905 ;;                  1    wreg      void 
  4906 ;; Registers used:
  4907 ;;		None
  4908 ;; Tracked objects:
  4909 ;;		On entry : 0/0
  4910 ;;		On exit  : 0/0
  4911 ;;		Unchanged: 0/0
  4912 ;; Data sizes:     COMMON   BANK0   BANK1   BANK3   BANK2
  4913 ;;      Params:         0       0       0       0       0
  4914 ;;      Locals:         0       0       0       0       0
  4915 ;;      Temps:          0       0       0       0       0
  4916 ;;      Totals:         0       0       0       0       0
  4917 ;;Total ram usage:        0 bytes
  4918 ;; Hardware stack levels used: 1
  4919 ;; This function calls:
  4920 ;;		Nothing
  4921 ;; This function is called by:
  4922 ;;		_I2C_CondicionInicio
  4923 ;;		_I2C_CondicionParo
  4924 ;;		_I2C_EscribirByte
  4925 ;;		_I2C_LeerByte
  4926 ;; This function uses a non-reentrant model
  4927 ;;
  4928                           
  4929     0071                     _SDA_ForzarBajo:	
  4930                           ;psect for function _SDA_ForzarBajo
  4931                           
  4932     0071                     l2629:	
  4933                           ;incstack = 0
  4934                           ; Regs used in _SDA_ForzarBajo: []
  4935                           
  4936     0071  1683               	bsf	3,5	;RP0=1, select bank1
  4937     0072  1303               	bcf	3,6	;RP1=0, select bank1
  4938     0073  1207               	bcf	7,4	;volatile
  4939     0074  1283               	bcf	3,5	;RP0=0, select bank0
  4940     0075  1303               	bcf	3,6	;RP1=0, select bank0
  4941     0076  1207               	bcf	7,4	;volatile
  4942     0077                     l80:
  4943     0077  0008               	return
  4944     0078                     __end_of_SDA_ForzarBajo:
  4945                           
  4946                           	psect	text13
  4947     1A25                     __ptext13:	
  4948 ;; *************** function _SCL_ForzarBajo *****************
  4949 ;; Defined at:
  4950 ;;		line 8 in file "reloj_tiempo_real.c"
  4951 ;; Parameters:    Size  Location     Type
  4952 ;;		None
  4953 ;; Auto vars:     Size  Location     Type
  4954 ;;		None
  4955 ;; Return value:  Size  Location     Type
  4956 ;;                  1    wreg      void 
  4957 ;; Registers used:
  4958 ;;		None
  4959 ;; Tracked objects:
  4960 ;;		On entry : 0/0
  4961 ;;		On exit  : 0/0
  4962 ;;		Unchanged: 0/0
  4963 ;; Data sizes:     COMMON   BANK0   BANK1   BANK3   BANK2
  4964 ;;      Params:         0       0       0       0       0
  4965 ;;      Locals:         0       0       0       0       0
  4966 ;;      Temps:          0       0       0       0       0
  4967 ;;      Totals:         0       0       0       0       0
  4968 ;;Total ram usage:        0 bytes
  4969 ;; Hardware stack levels used: 1
  4970 ;; This function calls:
  4971 ;;		Nothing
  4972 ;; This function is called by:
  4973 ;;		_I2C_CondicionInicio
  4974 ;;		_I2C_EscribirByte
  4975 ;;		_I2C_LeerByte
  4976 ;; This function uses a non-reentrant model
  4977 ;;
  4978                           
  4979     1A25                     _SCL_ForzarBajo:	
  4980                           ;psect for function _SCL_ForzarBajo
  4981                           
  4982     1A25                     l2633:	
  4983                           ;incstack = 0
  4984                           ; Regs used in _SCL_ForzarBajo: []
  4985                           
  4986     1A25  1683               	bsf	3,5	;RP0=1, select bank1
  4987     1A26  1303               	bcf	3,6	;RP1=0, select bank1
  4988     1A27  1187               	bcf	7,3	;volatile
  4989     1A28  1283               	bcf	3,5	;RP0=0, select bank0
  4990     1A29  1303               	bcf	3,6	;RP1=0, select bank0
  4991     1A2A  1187               	bcf	7,3	;volatile
  4992     1A2B                     l86:
  4993     1A2B  0008               	return
  4994     1A2C                     __end_of_SCL_ForzarBajo:
  4995                           
  4996                           	psect	text14
  4997     1A4C                     __ptext14:	
  4998 ;; *************** function _Reloj_IniciarModulo *****************
  4999 ;; Defined at:
  5000 ;;		line 62 in file "reloj_tiempo_real.c"
  5001 ;; Parameters:    Size  Location     Type
  5002 ;;		None
  5003 ;; Auto vars:     Size  Location     Type
  5004 ;;		None
  5005 ;; Return value:  Size  Location     Type
  5006 ;;                  1    wreg      void 
  5007 ;; Registers used:
  5008 ;;		wreg, status,2, status,0, pclath, cstack
  5009 ;; Tracked objects:
  5010 ;;		On entry : 0/0
  5011 ;;		On exit  : 0/0
  5012 ;;		Unchanged: 0/0
  5013 ;; Data sizes:     COMMON   BANK0   BANK1   BANK3   BANK2
  5014 ;;      Params:         0       0       0       0       0
  5015 ;;      Locals:         0       0       0       0       0
  5016 ;;      Temps:          2       0       0       0       0
  5017 ;;      Totals:         2       0       0       0       0
  5018 ;;Total ram usage:        2 bytes
  5019 ;; Hardware stack levels used: 1
  5020 ;; Hardware stack levels required when called: 2
  5021 ;; This function calls:
  5022 ;;		_I2C_IniciarBus
  5023 ;; This function is called by:
  5024 ;;		_main
  5025 ;; This function uses a non-reentrant model
  5026 ;;
  5027                           
  5028     1A4C                     _Reloj_IniciarModulo:	
  5029                           ;psect for function _Reloj_IniciarModulo
  5030                           
  5031     1A4C                     l3797:	
  5032                           ;incstack = 0
  5033                           ; Regs used in _Reloj_IniciarModulo: [wreg+status,2+status,0+pclath+cstack]
  5034                           
  5035                           
  5036                           ;reloj_tiempo_real.c: 63:     I2C_IniciarBus();
  5037     1A4C  160A  158A  225A  160A  158A  	fcall	_I2C_IniciarBus
  5038     1A51                     l3799:
  5039                           
  5040                           ;reloj_tiempo_real.c: 64:     _delay((unsigned long)((30)*(20000000/4000.0)));
  5041     1A51  30C3               	movlw	195
  5042     1A52  00F2               	movwf	??_Reloj_IniciarModulo+1
  5043     1A53  30CD               	movlw	205
  5044     1A54  00F1               	movwf	??_Reloj_IniciarModulo
  5045     1A55                     u6047:
  5046     1A55  0BF1               	decfsz	??_Reloj_IniciarModulo,f
  5047     1A56  2A55               	goto	u6047
  5048     1A57  0BF2               	decfsz	??_Reloj_IniciarModulo+1,f
  5049     1A58  2A55               	goto	u6047
  5050     1A59                     l116:
  5051     1A59  0008               	return
  5052     1A5A                     __end_of_Reloj_IniciarModulo:
  5053                           
  5054                           	psect	text15
  5055     1A5A                     __ptext15:	
  5056 ;; *************** function _I2C_IniciarBus *****************
  5057 ;; Defined at:
  5058 ;;		line 10 in file "reloj_tiempo_real.c"
  5059 ;; Parameters:    Size  Location     Type
  5060 ;;		None
  5061 ;; Auto vars:     Size  Location     Type
  5062 ;;		None
  5063 ;; Return value:  Size  Location     Type
  5064 ;;                  1    wreg      void 
  5065 ;; Registers used:
  5066 ;;		wreg, status,2, status,0, pclath, cstack
  5067 ;; Tracked objects:
  5068 ;;		On entry : 0/0
  5069 ;;		On exit  : 0/0
  5070 ;;		Unchanged: 0/0
  5071 ;; Data sizes:     COMMON   BANK0   BANK1   BANK3   BANK2
  5072 ;;      Params:         0       0       0       0       0
  5073 ;;      Locals:         0       0       0       0       0
  5074 ;;      Temps:          1       0       0       0       0
  5075 ;;      Totals:         1       0       0       0       0
  5076 ;;Total ram usage:        1 bytes
  5077 ;; Hardware stack levels used: 1
  5078 ;; Hardware stack levels required when called: 1
  5079 ;; This function calls:
  5080 ;;		_SCL_Liberar
  5081 ;;		_SDA_Liberar
  5082 ;; This function is called by:
  5083 ;;		_Reloj_IniciarModulo
  5084 ;; This function uses a non-reentrant model
  5085 ;;
  5086                           
  5087     1A5A                     _I2C_IniciarBus:	
  5088                           ;psect for function _I2C_IniciarBus
  5089                           
  5090     1A5A                     l3355:	
  5091                           ;incstack = 0
  5092                           ; Regs used in _I2C_IniciarBus: [wreg+status,2+status,0+pclath+cstack]
  5093                           
  5094                           
  5095                           ;reloj_tiempo_real.c: 11:     SDA_Liberar();
  5096     1A5A  160A  158A  221D  160A  158A  	fcall	_SDA_Liberar
  5097                           
  5098                           ;reloj_tiempo_real.c: 12:     SCL_Liberar();
  5099     1A5F  160A  158A  2219  160A  158A  	fcall	_SCL_Liberar
  5100     1A64                     l3357:
  5101                           
  5102                           ;reloj_tiempo_real.c: 13:     _delay((unsigned long)((5)*(20000000/4000000.0)));
  5103     1A64  3008               	movlw	8
  5104     1A65  00F0               	movwf	??_I2C_IniciarBus
  5105     1A66                     u6057:
  5106     1A66  0BF0               	decfsz	??_I2C_IniciarBus,f
  5107     1A67  2A66               	goto	u6057
  5108     1A68                     l89:
  5109     1A68  0008               	return
  5110     1A69                     __end_of_I2C_IniciarBus:
  5111                           
  5112                           	psect	text16
  5113     1A1D                     __ptext16:	
  5114 ;; *************** function _SDA_Liberar *****************
  5115 ;; Defined at:
  5116 ;;		line 5 in file "reloj_tiempo_real.c"
  5117 ;; Parameters:    Size  Location     Type
  5118 ;;		None
  5119 ;; Auto vars:     Size  Location     Type
  5120 ;;		None
  5121 ;; Return value:  Size  Location     Type
  5122 ;;                  1    wreg      void 
  5123 ;; Registers used:
  5124 ;;		None
  5125 ;; Tracked objects:
  5126 ;;		On entry : 0/0
  5127 ;;		On exit  : 0/0
  5128 ;;		Unchanged: 0/0
  5129 ;; Data sizes:     COMMON   BANK0   BANK1   BANK3   BANK2
  5130 ;;      Params:         0       0       0       0       0
  5131 ;;      Locals:         0       0       0       0       0
  5132 ;;      Temps:          0       0       0       0       0
  5133 ;;      Totals:         0       0       0       0       0
  5134 ;;Total ram usage:        0 bytes
  5135 ;; Hardware stack levels used: 1
  5136 ;; This function calls:
  5137 ;;		Nothing
  5138 ;; This function is called by:
  5139 ;;		_I2C_IniciarBus
  5140 ;;		_I2C_CondicionInicio
  5141 ;;		_I2C_CondicionParo
  5142 ;;		_I2C_EscribirByte
  5143 ;;		_I2C_LeerByte
  5144 ;; This function uses a non-reentrant model
  5145 ;;
  5146                           
  5147     1A1D                     _SDA_Liberar:	
  5148                           ;psect for function _SDA_Liberar
  5149                           
  5150     1A1D                     l2627:	
  5151                           ;incstack = 0
  5152                           ; Regs used in _SDA_Liberar: []
  5153                           
  5154     1A1D  1683               	bsf	3,5	;RP0=1, select bank1
  5155     1A1E  1303               	bcf	3,6	;RP1=0, select bank1
  5156     1A1F  1607               	bsf	7,4	;volatile
  5157     1A20                     l77:
  5158     1A20  0008               	return
  5159     1A21                     __end_of_SDA_Liberar:
  5160                           
  5161                           	psect	text17
  5162     1A19                     __ptext17:	
  5163 ;; *************** function _SCL_Liberar *****************
  5164 ;; Defined at:
  5165 ;;		line 7 in file "reloj_tiempo_real.c"
  5166 ;; Parameters:    Size  Location     Type
  5167 ;;		None
  5168 ;; Auto vars:     Size  Location     Type
  5169 ;;		None
  5170 ;; Return value:  Size  Location     Type
  5171 ;;                  1    wreg      void 
  5172 ;; Registers used:
  5173 ;;		None
  5174 ;; Tracked objects:
  5175 ;;		On entry : 0/0
  5176 ;;		On exit  : 0/0
  5177 ;;		Unchanged: 0/0
  5178 ;; Data sizes:     COMMON   BANK0   BANK1   BANK3   BANK2
  5179 ;;      Params:         0       0       0       0       0
  5180 ;;      Locals:         0       0       0       0       0
  5181 ;;      Temps:          0       0       0       0       0
  5182 ;;      Totals:         0       0       0       0       0
  5183 ;;Total ram usage:        0 bytes
  5184 ;; Hardware stack levels used: 1
  5185 ;; This function calls:
  5186 ;;		Nothing
  5187 ;; This function is called by:
  5188 ;;		_I2C_IniciarBus
  5189 ;;		_I2C_CondicionInicio
  5190 ;;		_I2C_CondicionParo
  5191 ;;		_I2C_EscribirByte
  5192 ;;		_I2C_LeerByte
  5193 ;; This function uses a non-reentrant model
  5194 ;;
  5195                           
  5196     1A19                     _SCL_Liberar:	
  5197                           ;psect for function _SCL_Liberar
  5198                           
  5199     1A19                     l2631:	
  5200                           ;incstack = 0
  5201                           ; Regs used in _SCL_Liberar: []
  5202                           
  5203     1A19  1683               	bsf	3,5	;RP0=1, select bank1
  5204     1A1A  1303               	bcf	3,6	;RP1=0, select bank1
  5205     1A1B  1587               	bsf	7,3	;volatile
  5206     1A1C                     l83:
  5207     1A1C  0008               	return
  5208     1A1D                     __end_of_SCL_Liberar:
  5209                           
  5210                           	psect	text18
  5211     1AA3                     __ptext18:	
  5212 ;; *************** function _Pantalla_Limpiar *****************
  5213 ;; Defined at:
  5214 ;;		line 19 in file "controlador_pantalla.c"
  5215 ;; Parameters:    Size  Location     Type
  5216 ;;		None
  5217 ;; Auto vars:     Size  Location     Type
  5218 ;;		None
  5219 ;; Return value:  Size  Location     Type
  5220 ;;                  1    wreg      void 
  5221 ;; Registers used:
  5222 ;;		wreg, status,2, status,0, pclath, cstack
  5223 ;; Tracked objects:
  5224 ;;		On entry : 0/0
  5225 ;;		On exit  : 0/0
  5226 ;;		Unchanged: 0/0
  5227 ;; Data sizes:     COMMON   BANK0   BANK1   BANK3   BANK2
  5228 ;;      Params:         0       0       0       0       0
  5229 ;;      Locals:         0       0       0       0       0
  5230 ;;      Temps:          2       0       0       0       0
  5231 ;;      Totals:         2       0       0       0       0
  5232 ;;Total ram usage:        2 bytes
  5233 ;; Hardware stack levels used: 1
  5234 ;; Hardware stack levels required when called: 1
  5235 ;; This function calls:
  5236 ;;		_Pantalla_EnviarComando
  5237 ;; This function is called by:
  5238 ;;		_main
  5239 ;; This function uses a non-reentrant model
  5240 ;;
  5241                           
  5242     1AA3                     _Pantalla_Limpiar:	
  5243                           ;psect for function _Pantalla_Limpiar
  5244                           
  5245     1AA3                     l3685:	
  5246                           ;incstack = 0
  5247                           ; Regs used in _Pantalla_Limpiar: [wreg+status,2+status,0+pclath+cstack]
  5248                           
  5249                           
  5250                           ;controlador_pantalla.c: 20:     Pantalla_EnviarComando(0);
  5251     1AA3  3000               	movlw	0
  5252     1AA4  160A  118A  2002  160A  158A  	fcall	_Pantalla_EnviarComando
  5253                           
  5254                           ;controlador_pantalla.c: 21:     Pantalla_EnviarComando(1);
  5255     1AA9  3001               	movlw	1
  5256     1AAA  160A  118A  2002  160A  158A  	fcall	_Pantalla_EnviarComando
  5257     1AAF                     l3687:
  5258                           
  5259                           ;controlador_pantalla.c: 22:     _delay((unsigned long)((20)*(20000000/4000.0)));
  5260     1AAF  3082               	movlw	130
  5261     1AB0  00F5               	movwf	??_Pantalla_Limpiar+1
  5262     1AB1  30DD               	movlw	221
  5263     1AB2  00F4               	movwf	??_Pantalla_Limpiar
  5264     1AB3                     u6067:
  5265     1AB3  0BF4               	decfsz	??_Pantalla_Limpiar,f
  5266     1AB4  2AB3               	goto	u6067
  5267     1AB5  0BF5               	decfsz	??_Pantalla_Limpiar+1,f
  5268     1AB6  2AB3               	goto	u6067
  5269     1AB7  2AB8               	nop2
  5270     1AB8                     l23:
  5271     1AB8  0008               	return
  5272     1AB9                     __end_of_Pantalla_Limpiar:
  5273                           
  5274                           	psect	text19
  5275     1EE4                     __ptext19:	
  5276 ;; *************** function _Pantalla_Inicializar *****************
  5277 ;; Defined at:
  5278 ;;		line 38 in file "controlador_pantalla.c"
  5279 ;; Parameters:    Size  Location     Type
  5280 ;;		None
  5281 ;; Auto vars:     Size  Location     Type
  5282 ;;		None
  5283 ;; Return value:  Size  Location     Type
  5284 ;;                  1    wreg      void 
  5285 ;; Registers used:
  5286 ;;		wreg, status,2, status,0, pclath, cstack
  5287 ;; Tracked objects:
  5288 ;;		On entry : 0/0
  5289 ;;		On exit  : 0/0
  5290 ;;		Unchanged: 0/0
  5291 ;; Data sizes:     COMMON   BANK0   BANK1   BANK3   BANK2
  5292 ;;      Params:         0       0       0       0       0
  5293 ;;      Locals:         0       0       0       0       0
  5294 ;;      Temps:          2       0       0       0       0
  5295 ;;      Totals:         2       0       0       0       0
  5296 ;;Total ram usage:        2 bytes
  5297 ;; Hardware stack levels used: 1
  5298 ;; Hardware stack levels required when called: 1
  5299 ;; This function calls:
  5300 ;;		_Pantalla_EnviarComando
  5301 ;; This function is called by:
  5302 ;;		_main
  5303 ;; This function uses a non-reentrant model
  5304 ;;
  5305                           
  5306     1EE4                     _Pantalla_Inicializar:	
  5307                           ;psect for function _Pantalla_Inicializar
  5308                           
  5309     1EE4                     l3689:	
  5310                           ;incstack = 0
  5311                           ; Regs used in _Pantalla_Inicializar: [wreg+status,2+status,0+pclath+cstack]
  5312                           
  5313                           
  5314                           ;controlador_pantalla.c: 39:     TRISDbits.TRISD2 = 0;
  5315     1EE4  1683               	bsf	3,5	;RP0=1, select bank1
  5316     1EE5  1303               	bcf	3,6	;RP1=0, select bank1
  5317     1EE6  1108               	bcf	8,2	;volatile
  5318                           
  5319                           ;controlador_pantalla.c: 40:     TRISDbits.TRISD3 = 0;
  5320     1EE7  1188               	bcf	8,3	;volatile
  5321                           
  5322                           ;controlador_pantalla.c: 41:     TRISDbits.TRISD4 = 0;
  5323     1EE8  1208               	bcf	8,4	;volatile
  5324                           
  5325                           ;controlador_pantalla.c: 42:     TRISDbits.TRISD5 = 0;
  5326     1EE9  1288               	bcf	8,5	;volatile
  5327                           
  5328                           ;controlador_pantalla.c: 43:     TRISDbits.TRISD6 = 0;
  5329     1EEA  1308               	bcf	8,6	;volatile
  5330                           
  5331                           ;controlador_pantalla.c: 44:     TRISDbits.TRISD7 = 0;
  5332     1EEB  1388               	bcf	8,7	;volatile
  5333     1EEC                     l3691:
  5334                           
  5335                           ;controlador_pantalla.c: 46:     _delay((unsigned long)((20)*(20000000/4000.0)));
  5336     1EEC  3082               	movlw	130
  5337     1EED  00F5               	movwf	??_Pantalla_Inicializar+1
  5338     1EEE  30DD               	movlw	221
  5339     1EEF  00F4               	movwf	??_Pantalla_Inicializar
  5340     1EF0                     u6077:
  5341     1EF0  0BF4               	decfsz	??_Pantalla_Inicializar,f
  5342     1EF1  2EF0               	goto	u6077
  5343     1EF2  0BF5               	decfsz	??_Pantalla_Inicializar+1,f
  5344     1EF3  2EF0               	goto	u6077
  5345     1EF4  2EF5               	nop2
  5346     1EF5                     l3693:
  5347                           
  5348                           ;controlador_pantalla.c: 47:     Pantalla_EnviarComando(0x03);
  5349     1EF5  3003               	movlw	3
  5350     1EF6  160A  118A  2002  160A  158A  	fcall	_Pantalla_EnviarComando
  5351     1EFB                     l3695:
  5352                           
  5353                           ;controlador_pantalla.c: 48:     _delay((unsigned long)((5)*(20000000/4000.0)));
  5354     1EFB  3021               	movlw	33
  5355     1EFC  00F5               	movwf	??_Pantalla_Inicializar+1
  5356     1EFD  3076               	movlw	118
  5357     1EFE  00F4               	movwf	??_Pantalla_Inicializar
  5358     1EFF                     u6087:
  5359     1EFF  0BF4               	decfsz	??_Pantalla_Inicializar,f
  5360     1F00  2EFF               	goto	u6087
  5361     1F01  0BF5               	decfsz	??_Pantalla_Inicializar+1,f
  5362     1F02  2EFF               	goto	u6087
  5363     1F03  0000               	nop
  5364                           
  5365                           ;controlador_pantalla.c: 49:     Pantalla_EnviarComando(0x03);
  5366     1F04  3003               	movlw	3
  5367     1F05  160A  118A  2002  160A  158A  	fcall	_Pantalla_EnviarComando
  5368     1F0A                     l3697:
  5369                           
  5370                           ;controlador_pantalla.c: 50:     _delay((unsigned long)((11)*(20000000/4000.0)));
  5371     1F0A  3048               	movlw	72
  5372     1F0B  00F5               	movwf	??_Pantalla_Inicializar+1
  5373     1F0C  306C               	movlw	108
  5374     1F0D  00F4               	movwf	??_Pantalla_Inicializar
  5375     1F0E                     u6097:
  5376     1F0E  0BF4               	decfsz	??_Pantalla_Inicializar,f
  5377     1F0F  2F0E               	goto	u6097
  5378     1F10  0BF5               	decfsz	??_Pantalla_Inicializar+1,f
  5379     1F11  2F0E               	goto	u6097
  5380     1F12  0000               	nop
  5381     1F13                     l3699:
  5382                           
  5383                           ;controlador_pantalla.c: 51:     Pantalla_EnviarComando(0x03);
  5384     1F13  3003               	movlw	3
  5385     1F14  160A  118A  2002  160A  158A  	fcall	_Pantalla_EnviarComando
  5386                           
  5387                           ;controlador_pantalla.c: 52:     _delay((unsigned long)((5)*(20000000/4000.0)));
  5388     1F19  3021               	movlw	33
  5389     1F1A  00F5               	movwf	??_Pantalla_Inicializar+1
  5390     1F1B  3076               	movlw	118
  5391     1F1C  00F4               	movwf	??_Pantalla_Inicializar
  5392     1F1D                     u6107:
  5393     1F1D  0BF4               	decfsz	??_Pantalla_Inicializar,f
  5394     1F1E  2F1D               	goto	u6107
  5395     1F1F  0BF5               	decfsz	??_Pantalla_Inicializar+1,f
  5396     1F20  2F1D               	goto	u6107
  5397     1F21  0000               	nop
  5398     1F22                     l3701:
  5399                           
  5400                           ;controlador_pantalla.c: 53:     Pantalla_EnviarComando(0x02);
  5401     1F22  3002               	movlw	2
  5402     1F23  160A  118A  2002  160A  158A  	fcall	_Pantalla_EnviarComando
  5403     1F28                     l3703:
  5404                           
  5405                           ;controlador_pantalla.c: 54:     _delay((unsigned long)((5)*(20000000/4000.0)));
  5406     1F28  3021               	movlw	33
  5407     1F29  00F5               	movwf	??_Pantalla_Inicializar+1
  5408     1F2A  3076               	movlw	118
  5409     1F2B  00F4               	movwf	??_Pantalla_Inicializar
  5410     1F2C                     u6117:
  5411     1F2C  0BF4               	decfsz	??_Pantalla_Inicializar,f
  5412     1F2D  2F2C               	goto	u6117
  5413     1F2E  0BF5               	decfsz	??_Pantalla_Inicializar+1,f
  5414     1F2F  2F2C               	goto	u6117
  5415     1F30  0000               	nop
  5416                           
  5417                           ;controlador_pantalla.c: 55:     Pantalla_EnviarComando(0x02);
  5418     1F31  3002               	movlw	2
  5419     1F32  160A  118A  2002  160A  158A  	fcall	_Pantalla_EnviarComando
  5420                           
  5421                           ;controlador_pantalla.c: 56:     Pantalla_EnviarComando(0x08);
  5422     1F37  3008               	movlw	8
  5423     1F38  160A  118A  2002  160A  158A  	fcall	_Pantalla_EnviarComando
  5424     1F3D                     l3705:
  5425                           
  5426                           ;controlador_pantalla.c: 57:     _delay((unsigned long)((5)*(20000000/4000.0)));
  5427     1F3D  3021               	movlw	33
  5428     1F3E  00F5               	movwf	??_Pantalla_Inicializar+1
  5429     1F3F  3076               	movlw	118
  5430     1F40  00F4               	movwf	??_Pantalla_Inicializar
  5431     1F41                     u6127:
  5432     1F41  0BF4               	decfsz	??_Pantalla_Inicializar,f
  5433     1F42  2F41               	goto	u6127
  5434     1F43  0BF5               	decfsz	??_Pantalla_Inicializar+1,f
  5435     1F44  2F41               	goto	u6127
  5436     1F45  0000               	nop
  5437     1F46                     l3707:
  5438                           
  5439                           ;controlador_pantalla.c: 58:     Pantalla_EnviarComando(0x00);
  5440     1F46  3000               	movlw	0
  5441     1F47  160A  118A  2002  160A  158A  	fcall	_Pantalla_EnviarComando
  5442     1F4C                     l3709:
  5443                           
  5444                           ;controlador_pantalla.c: 59:     Pantalla_EnviarComando(0x0C);
  5445     1F4C  300C               	movlw	12
  5446     1F4D  160A  118A  2002  160A  158A  	fcall	_Pantalla_EnviarComando
  5447     1F52                     l3711:
  5448                           
  5449                           ;controlador_pantalla.c: 60:     _delay((unsigned long)((5)*(20000000/4000.0)));
  5450     1F52  3021               	movlw	33
  5451     1F53  00F5               	movwf	??_Pantalla_Inicializar+1
  5452     1F54  3076               	movlw	118
  5453     1F55  00F4               	movwf	??_Pantalla_Inicializar
  5454     1F56                     u6137:
  5455     1F56  0BF4               	decfsz	??_Pantalla_Inicializar,f
  5456     1F57  2F56               	goto	u6137
  5457     1F58  0BF5               	decfsz	??_Pantalla_Inicializar+1,f
  5458     1F59  2F56               	goto	u6137
  5459     1F5A  0000               	nop
  5460                           
  5461                           ;controlador_pantalla.c: 61:     Pantalla_EnviarComando(0x00);
  5462     1F5B  3000               	movlw	0
  5463     1F5C  160A  118A  2002  160A  158A  	fcall	_Pantalla_EnviarComando
  5464                           
  5465                           ;controlador_pantalla.c: 62:     Pantalla_EnviarComando(0x01);
  5466     1F61  3001               	movlw	1
  5467     1F62  160A  118A  2002  160A  158A  	fcall	_Pantalla_EnviarComando
  5468     1F67                     l3713:
  5469                           
  5470                           ;controlador_pantalla.c: 63:     _delay((unsigned long)((20)*(20000000/4000.0)));
  5471     1F67  3082               	movlw	130
  5472     1F68  00F5               	movwf	??_Pantalla_Inicializar+1
  5473     1F69  30DD               	movlw	221
  5474     1F6A  00F4               	movwf	??_Pantalla_Inicializar
  5475     1F6B                     u6147:
  5476     1F6B  0BF4               	decfsz	??_Pantalla_Inicializar,f
  5477     1F6C  2F6B               	goto	u6147
  5478     1F6D  0BF5               	decfsz	??_Pantalla_Inicializar+1,f
  5479     1F6E  2F6B               	goto	u6147
  5480     1F6F  2F70               	nop2
  5481     1F70                     l31:
  5482     1F70  0008               	return
  5483     1F71                     __end_of_Pantalla_Inicializar:
  5484                           
  5485                           	psect	text20
  5486     1F71                     __ptext20:	
  5487 ;; *************** function _MostrarStats *****************
  5488 ;; Defined at:
  5489 ;;		line 93 in file "aplicacion.c"
  5490 ;; Parameters:    Size  Location     Type
  5491 ;;		None
  5492 ;; Auto vars:     Size  Location     Type
  5493 ;;		None
  5494 ;; Return value:  Size  Location     Type
  5495 ;;                  1    wreg      void 
  5496 ;; Registers used:
  5497 ;;		wreg, fsr0l, fsr0h, status,2, status,0, pclath, btemp1, cstack
  5498 ;; Tracked objects:
  5499 ;;		On entry : 0/0
  5500 ;;		On exit  : 0/0
  5501 ;;		Unchanged: 0/0
  5502 ;; Data sizes:     COMMON   BANK0   BANK1   BANK3   BANK2
  5503 ;;      Params:         0       0       0       0       0
  5504 ;;      Locals:         0       0       0       0       0
  5505 ;;      Temps:          0       0       2       0       0
  5506 ;;      Totals:         0       0       2       0       0
  5507 ;;Total ram usage:        2 bytes
  5508 ;; Hardware stack levels used: 1
  5509 ;; Hardware stack levels required when called: 1
  5510 ;; This function calls:
  5511 ;;		_ImprimirTemp
  5512 ;;		_Pantalla_EscribirCaracter
  5513 ;;		_Pantalla_EscribirTexto
  5514 ;;		_Pantalla_EstablecerPosicion
  5515 ;; This function is called by:
  5516 ;;		_main
  5517 ;; This function uses a non-reentrant model
  5518 ;;
  5519                           
  5520     1F71                     _MostrarStats:	
  5521                           ;psect for function _MostrarStats
  5522                           
  5523     1F71                     l4369:	
  5524                           ;incstack = 0
  5525                           ; Regs used in _MostrarStats: [wreg-fsr0h+status,2+status,0+pclath+btemp1+cstack]
  5526                           
  5527                           
  5528                           ;aplicacion.c: 94:     Pantalla_EstablecerPosicion(1, 1);
  5529     1F71  01F4               	clrf	Pantalla_EstablecerPosicion@b
  5530     1F72  0AF4               	incf	Pantalla_EstablecerPosicion@b,f
  5531     1F73  3001               	movlw	1
  5532     1F74  160A  158A  23A0  160A  158A  	fcall	_Pantalla_EstablecerPosicion
  5533     1F79                     l4371:
  5534                           
  5535                           ;aplicacion.c: 95:     Pantalla_EscribirTexto("Min:");
  5536     1F79  304B               	movlw	(low ((STR_5-__stringbase)| (0+32768)))& (0+255)
  5537     1F7A  1283               	bcf	3,5	;RP0=0, select bank0
  5538     1F7B  1303               	bcf	3,6	;RP1=0, select bank0
  5539     1F7C  00A5               	movwf	Pantalla_EscribirTexto@a
  5540     1F7D  160A  158A  2378  160A  158A  	fcall	_Pantalla_EscribirTexto
  5541     1F82                     l4373:
  5542                           
  5543                           ;aplicacion.c: 96:     ImprimirTemp(stats.min);
  5544     1F82  30E0               	movlw	low (_stats+1)
  5545     1F83  1683               	bsf	3,5	;RP0=1, select bank1
  5546     1F84  1303               	bcf	3,6	;RP1=0, select bank1
  5547     1F85  00A8               	movwf	??_MostrarStats^(0+128)
  5548     1F86  3000               	movlw	high (_stats+1)
  5549     1F87  00A9               	movwf	(??_MostrarStats+1)^(0+128)
  5550     1F88  0828               	movf	??_MostrarStats^(0+128),w
  5551     1F89  0084               	movwf	4
  5552     1F8A  1783               	bsf	3,7
  5553     1F8B  1C29               	btfss	(??_MostrarStats+1)^(0+128),0
  5554     1F8C  1383               	bcf	3,7
  5555     1F8D  0800               	movf	0,w
  5556     1F8E  00A2               	movwf	ImprimirTemp@f^(0+128)
  5557     1F8F  0A84               	incf	4,f
  5558     1F90  0800               	movf	0,w
  5559     1F91  00A3               	movwf	(ImprimirTemp@f+1)^(0+128)
  5560     1F92  0A84               	incf	4,f
  5561     1F93  0800               	movf	0,w
  5562     1F94  00A4               	movwf	(ImprimirTemp@f+2)^(0+128)
  5563     1F95  0A84               	incf	4,f
  5564     1F96  0800               	movf	0,w
  5565     1F97  00A5               	movwf	(ImprimirTemp@f+3)^(0+128)
  5566     1F98  160A  118A  233E  160A  158A  	fcall	_ImprimirTemp
  5567     1F9D                     l4375:
  5568                           
  5569                           ;aplicacion.c: 97:     Pantalla_EscribirTexto(" Max:");
  5570     1F9D  3045               	movlw	(low ((STR_6-__stringbase)| (0+32768)))& (0+255)
  5571     1F9E  1283               	bcf	3,5	;RP0=0, select bank0
  5572     1F9F  1303               	bcf	3,6	;RP1=0, select bank0
  5573     1FA0  00A5               	movwf	Pantalla_EscribirTexto@a
  5574     1FA1  160A  158A  2378  160A  158A  	fcall	_Pantalla_EscribirTexto
  5575     1FA6                     l4377:
  5576                           
  5577                           ;aplicacion.c: 98:     ImprimirTemp(stats.max);
  5578     1FA6  30E4               	movlw	low (_stats+5)
  5579     1FA7  1683               	bsf	3,5	;RP0=1, select bank1
  5580     1FA8  1303               	bcf	3,6	;RP1=0, select bank1
  5581     1FA9  00A8               	movwf	??_MostrarStats^(0+128)
  5582     1FAA  3000               	movlw	high (_stats+5)
  5583     1FAB  00A9               	movwf	(??_MostrarStats+1)^(0+128)
  5584     1FAC  0828               	movf	??_MostrarStats^(0+128),w
  5585     1FAD  0084               	movwf	4
  5586     1FAE  1783               	bsf	3,7
  5587     1FAF  1C29               	btfss	(??_MostrarStats+1)^(0+128),0
  5588     1FB0  1383               	bcf	3,7
  5589     1FB1  0800               	movf	0,w
  5590     1FB2  00A2               	movwf	ImprimirTemp@f^(0+128)
  5591     1FB3  0A84               	incf	4,f
  5592     1FB4  0800               	movf	0,w
  5593     1FB5  00A3               	movwf	(ImprimirTemp@f+1)^(0+128)
  5594     1FB6  0A84               	incf	4,f
  5595     1FB7  0800               	movf	0,w
  5596     1FB8  00A4               	movwf	(ImprimirTemp@f+2)^(0+128)
  5597     1FB9  0A84               	incf	4,f
  5598     1FBA  0800               	movf	0,w
  5599     1FBB  00A5               	movwf	(ImprimirTemp@f+3)^(0+128)
  5600     1FBC  160A  118A  233E  160A  158A  	fcall	_ImprimirTemp
  5601                           
  5602                           ;aplicacion.c: 100:     Pantalla_EstablecerPosicion(2, 1);
  5603     1FC1  01F4               	clrf	Pantalla_EstablecerPosicion@b
  5604     1FC2  0AF4               	incf	Pantalla_EstablecerPosicion@b,f
  5605     1FC3  3002               	movlw	2
  5606     1FC4  160A  158A  23A0  160A  158A  	fcall	_Pantalla_EstablecerPosicion
  5607     1FC9                     l4379:
  5608                           
  5609                           ;aplicacion.c: 101:     Pantalla_EscribirTexto("Media:");
  5610     1FC9  303E               	movlw	(low ((STR_7-__stringbase)| (0+32768)))& (0+255)
  5611     1FCA  1283               	bcf	3,5	;RP0=0, select bank0
  5612     1FCB  1303               	bcf	3,6	;RP1=0, select bank0
  5613     1FCC  00A5               	movwf	Pantalla_EscribirTexto@a
  5614     1FCD  160A  158A  2378  160A  158A  	fcall	_Pantalla_EscribirTexto
  5615     1FD2                     l4381:
  5616                           
  5617                           ;aplicacion.c: 102:     ImprimirTemp(stats.media);
  5618     1FD2  30E8               	movlw	low (_stats+9)
  5619     1FD3  1683               	bsf	3,5	;RP0=1, select bank1
  5620     1FD4  1303               	bcf	3,6	;RP1=0, select bank1
  5621     1FD5  00A8               	movwf	??_MostrarStats^(0+128)
  5622     1FD6  3000               	movlw	high (_stats+9)
  5623     1FD7  00A9               	movwf	(??_MostrarStats+1)^(0+128)
  5624     1FD8  0828               	movf	??_MostrarStats^(0+128),w
  5625     1FD9  0084               	movwf	4
  5626     1FDA  1783               	bsf	3,7
  5627     1FDB  1C29               	btfss	(??_MostrarStats+1)^(0+128),0
  5628     1FDC  1383               	bcf	3,7
  5629     1FDD  0800               	movf	0,w
  5630     1FDE  00A2               	movwf	ImprimirTemp@f^(0+128)
  5631     1FDF  0A84               	incf	4,f
  5632     1FE0  0800               	movf	0,w
  5633     1FE1  00A3               	movwf	(ImprimirTemp@f+1)^(0+128)
  5634     1FE2  0A84               	incf	4,f
  5635     1FE3  0800               	movf	0,w
  5636     1FE4  00A4               	movwf	(ImprimirTemp@f+2)^(0+128)
  5637     1FE5  0A84               	incf	4,f
  5638     1FE6  0800               	movf	0,w
  5639     1FE7  00A5               	movwf	(ImprimirTemp@f+3)^(0+128)
  5640     1FE8  160A  118A  233E  160A  158A  	fcall	_ImprimirTemp
  5641     1FED                     l4383:
  5642                           
  5643                           ;aplicacion.c: 103:     Pantalla_EscribirTexto(" n=");
  5644     1FED  3058               	movlw	(low ((STR_8-__stringbase)| (0+32768)))& (0+255)
  5645     1FEE  1283               	bcf	3,5	;RP0=0, select bank0
  5646     1FEF  1303               	bcf	3,6	;RP1=0, select bank0
  5647     1FF0  00A5               	movwf	Pantalla_EscribirTexto@a
  5648     1FF1  160A  158A  2378  160A  158A  	fcall	_Pantalla_EscribirTexto
  5649     1FF6                     l4385:
  5650                           
  5651                           ;aplicacion.c: 104:     Pantalla_EscribirCaracter('0' + stats.n);
  5652     1FF6  1683               	bsf	3,5	;RP0=1, select bank1
  5653     1FF7  1303               	bcf	3,6	;RP1=0, select bank1
  5654     1FF8  085F               	movf	_stats^(0+128),w
  5655     1FF9  3E30               	addlw	48
  5656     1FFA  160A  158A  24D4  160A  158A  	fcall	_Pantalla_EscribirCaracter
  5657     1FFF                     l291:
  5658     1FFF  0008               	return
  5659     2000                     __end_of_MostrarStats:
  5660                           
  5661                           	psect	text21
  5662     1270                     __ptext21:	
  5663 ;; *************** function _MostrarPrincipal *****************
  5664 ;; Defined at:
  5665 ;;		line 77 in file "aplicacion.c"
  5666 ;; Parameters:    Size  Location     Type
  5667 ;;  t               2    8[BANK1 ] PTR struct .
  5668 ;;		 -> main@fecha(7), 
  5669 ;;  temp            4   10[BANK1 ] float 
  5670 ;;  hum             4   14[BANK1 ] float 
  5671 ;; Auto vars:     Size  Location     Type
  5672 ;;		None
  5673 ;; Return value:  Size  Location     Type
  5674 ;;                  1    wreg      void 
  5675 ;; Registers used:
  5676 ;;		wreg, fsr0l, fsr0h, status,2, status,0, pclath, btemp1, cstack
  5677 ;; Tracked objects:
  5678 ;;		On entry : 0/0
  5679 ;;		On exit  : 0/0
  5680 ;;		Unchanged: 0/0
  5681 ;; Data sizes:     COMMON   BANK0   BANK1   BANK3   BANK2
  5682 ;;      Params:         0       0      10       0       0
  5683 ;;      Locals:         0       0       0       0       0
  5684 ;;      Temps:          0       0       2       0       0
  5685 ;;      Totals:         0       0      12       0       0
  5686 ;;Total ram usage:       12 bytes
  5687 ;; Hardware stack levels used: 1
  5688 ;; Hardware stack levels required when called: 3
  5689 ;; This function calls:
  5690 ;;		_ImprimirDigito2
  5691 ;;		_ImprimirTemp
  5692 ;;		_Pantalla_EscribirCaracter
  5693 ;;		_Pantalla_EscribirTexto
  5694 ;;		_Pantalla_EstablecerPosicion
  5695 ;; This function is called by:
  5696 ;;		_main
  5697 ;; This function uses a non-reentrant model
  5698 ;;
  5699                           
  5700     1270                     _MostrarPrincipal:	
  5701                           ;psect for function _MostrarPrincipal
  5702                           
  5703     1270                     l4019:	
  5704                           ;incstack = 0
  5705                           ; Regs used in _MostrarPrincipal: [wreg-fsr0h+status,2+status,0+pclath+btemp1+cstack]
  5706                           
  5707                           
  5708                           ;aplicacion.c: 78:     Pantalla_EstablecerPosicion(1, 1);
  5709     1270  01F4               	clrf	Pantalla_EstablecerPosicion@b
  5710     1271  0AF4               	incf	Pantalla_EstablecerPosicion@b,f
  5711     1272  3001               	movlw	1
  5712     1273  160A  158A  23A0  160A  118A  	fcall	_Pantalla_EstablecerPosicion
  5713     1278                     l4021:
  5714                           
  5715                           ;aplicacion.c: 79:     ImprimirDigito2(t->fecha); Pantalla_EscribirCaracter('/');
  5716     1278  1683               	bsf	3,5	;RP0=1, select bank1
  5717     1279  1303               	bcf	3,6	;RP1=0, select bank1
  5718     127A  0828               	movf	MostrarPrincipal@t^(0+128),w
  5719     127B  3E04               	addlw	4
  5720     127C  00B2               	movwf	??_MostrarPrincipal^(0+128)
  5721     127D  0829               	movf	(MostrarPrincipal@t+1)^(0+128),w
  5722     127E  1803               	skipnc
  5723     127F  3E01               	addlw	1
  5724     1280  3E00               	addlw	0
  5725     1281  00B3               	movwf	(??_MostrarPrincipal+1)^(0+128)
  5726     1282  0832               	movf	??_MostrarPrincipal^(0+128),w
  5727     1283  0084               	movwf	4
  5728     1284  1783               	bsf	3,7
  5729     1285  1C33               	btfss	(??_MostrarPrincipal+1)^(0+128),0
  5730     1286  1383               	bcf	3,7
  5731     1287  0800               	movf	0,w
  5732     1288  160A  158A  2426  160A  118A  	fcall	_ImprimirDigito2
  5733     128D                     l4023:
  5734     128D  302F               	movlw	47
  5735     128E  160A  158A  24D4  160A  118A  	fcall	_Pantalla_EscribirCaracter
  5736                           
  5737                           ;aplicacion.c: 80:     ImprimirDigito2(t->mes); Pantalla_EscribirCaracter('/');
  5738     1293  1683               	bsf	3,5	;RP0=1, select bank1
  5739     1294  1303               	bcf	3,6	;RP1=0, select bank1
  5740     1295  0828               	movf	MostrarPrincipal@t^(0+128),w
  5741     1296  3E05               	addlw	5
  5742     1297  00B2               	movwf	??_MostrarPrincipal^(0+128)
  5743     1298  0829               	movf	(MostrarPrincipal@t+1)^(0+128),w
  5744     1299  1803               	skipnc
  5745     129A  3E01               	addlw	1
  5746     129B  3E00               	addlw	0
  5747     129C  00B3               	movwf	(??_MostrarPrincipal+1)^(0+128)
  5748     129D  0832               	movf	??_MostrarPrincipal^(0+128),w
  5749     129E  0084               	movwf	4
  5750     129F  1783               	bsf	3,7
  5751     12A0  1C33               	btfss	(??_MostrarPrincipal+1)^(0+128),0
  5752     12A1  1383               	bcf	3,7
  5753     12A2  0800               	movf	0,w
  5754     12A3  160A  158A  2426  160A  118A  	fcall	_ImprimirDigito2
  5755     12A8                     l4025:
  5756     12A8  302F               	movlw	47
  5757     12A9  160A  158A  24D4  160A  118A  	fcall	_Pantalla_EscribirCaracter
  5758     12AE                     l4027:
  5759                           
  5760                           ;aplicacion.c: 81:     ImprimirDigito2(t->anio); Pantalla_EscribirTexto(" ");
  5761     12AE  1683               	bsf	3,5	;RP0=1, select bank1
  5762     12AF  1303               	bcf	3,6	;RP1=0, select bank1
  5763     12B0  0828               	movf	MostrarPrincipal@t^(0+128),w
  5764     12B1  3E06               	addlw	6
  5765     12B2  00B2               	movwf	??_MostrarPrincipal^(0+128)
  5766     12B3  0829               	movf	(MostrarPrincipal@t+1)^(0+128),w
  5767     12B4  1803               	skipnc
  5768     12B5  3E01               	addlw	1
  5769     12B6  3E00               	addlw	0
  5770     12B7  00B3               	movwf	(??_MostrarPrincipal+1)^(0+128)
  5771     12B8  0832               	movf	??_MostrarPrincipal^(0+128),w
  5772     12B9  0084               	movwf	4
  5773     12BA  1783               	bsf	3,7
  5774     12BB  1C33               	btfss	(??_MostrarPrincipal+1)^(0+128),0
  5775     12BC  1383               	bcf	3,7
  5776     12BD  0800               	movf	0,w
  5777     12BE  160A  158A  2426  160A  118A  	fcall	_ImprimirDigito2
  5778     12C3                     l4029:
  5779     12C3  3052               	movlw	(low (((STR_4+2)-__stringbase)| (0+32768)))& (0+255)
  5780     12C4  1283               	bcf	3,5	;RP0=0, select bank0
  5781     12C5  1303               	bcf	3,6	;RP1=0, select bank0
  5782     12C6  00A5               	movwf	Pantalla_EscribirTexto@a
  5783     12C7  160A  158A  2378  160A  118A  	fcall	_Pantalla_EscribirTexto
  5784     12CC                     l4031:
  5785                           
  5786                           ;aplicacion.c: 82:     ImprimirDigito2(t->horas); Pantalla_EscribirCaracter(':');
  5787     12CC  1683               	bsf	3,5	;RP0=1, select bank1
  5788     12CD  1303               	bcf	3,6	;RP1=0, select bank1
  5789     12CE  0828               	movf	MostrarPrincipal@t^(0+128),w
  5790     12CF  3E02               	addlw	2
  5791     12D0  00B2               	movwf	??_MostrarPrincipal^(0+128)
  5792     12D1  0829               	movf	(MostrarPrincipal@t+1)^(0+128),w
  5793     12D2  1803               	skipnc
  5794     12D3  3E01               	addlw	1
  5795     12D4  3E00               	addlw	0
  5796     12D5  00B3               	movwf	(??_MostrarPrincipal+1)^(0+128)
  5797     12D6  0832               	movf	??_MostrarPrincipal^(0+128),w
  5798     12D7  0084               	movwf	4
  5799     12D8  1783               	bsf	3,7
  5800     12D9  1C33               	btfss	(??_MostrarPrincipal+1)^(0+128),0
  5801     12DA  1383               	bcf	3,7
  5802     12DB  0800               	movf	0,w
  5803     12DC  160A  158A  2426  160A  118A  	fcall	_ImprimirDigito2
  5804     12E1  303A               	movlw	58
  5805     12E2  160A  158A  24D4  160A  118A  	fcall	_Pantalla_EscribirCaracter
  5806     12E7                     l4033:
  5807                           
  5808                           ;aplicacion.c: 83:     ImprimirDigito2(t->minutos);
  5809     12E7  1683               	bsf	3,5	;RP0=1, select bank1
  5810     12E8  1303               	bcf	3,6	;RP1=0, select bank1
  5811     12E9  0828               	movf	MostrarPrincipal@t^(0+128),w
  5812     12EA  3E01               	addlw	1
  5813     12EB  00B2               	movwf	??_MostrarPrincipal^(0+128)
  5814     12EC  0829               	movf	(MostrarPrincipal@t+1)^(0+128),w
  5815     12ED  1803               	skipnc
  5816     12EE  3E01               	addlw	1
  5817     12EF  3E00               	addlw	0
  5818     12F0  00B3               	movwf	(??_MostrarPrincipal+1)^(0+128)
  5819     12F1  0832               	movf	??_MostrarPrincipal^(0+128),w
  5820     12F2  0084               	movwf	4
  5821     12F3  1783               	bsf	3,7
  5822     12F4  1C33               	btfss	(??_MostrarPrincipal+1)^(0+128),0
  5823     12F5  1383               	bcf	3,7
  5824     12F6  0800               	movf	0,w
  5825     12F7  160A  158A  2426  160A  118A  	fcall	_ImprimirDigito2
  5826     12FC                     l4035:
  5827                           
  5828                           ;aplicacion.c: 85:     Pantalla_EstablecerPosicion(2, 1);
  5829     12FC  01F4               	clrf	Pantalla_EstablecerPosicion@b
  5830     12FD  0AF4               	incf	Pantalla_EstablecerPosicion@b,f
  5831     12FE  3002               	movlw	2
  5832     12FF  160A  158A  23A0  160A  118A  	fcall	_Pantalla_EstablecerPosicion
  5833                           
  5834                           ;aplicacion.c: 86:     Pantalla_EscribirTexto("T:");
  5835     1304  305C               	movlw	(low ((STR_2-__stringbase)| (0+32768)))& (0+255)
  5836     1305  1283               	bcf	3,5	;RP0=0, select bank0
  5837     1306  1303               	bcf	3,6	;RP1=0, select bank0
  5838     1307  00A5               	movwf	Pantalla_EscribirTexto@a
  5839     1308  160A  158A  2378  160A  118A  	fcall	_Pantalla_EscribirTexto
  5840     130D                     l4037:
  5841                           
  5842                           ;aplicacion.c: 87:     ImprimirTemp(temp);
  5843     130D  1683               	bsf	3,5	;RP0=1, select bank1
  5844     130E  1303               	bcf	3,6	;RP1=0, select bank1
  5845     130F  082D               	movf	(MostrarPrincipal@temp+3)^(0+128),w
  5846     1310  00A5               	movwf	(ImprimirTemp@f+3)^(0+128)
  5847     1311  082C               	movf	(MostrarPrincipal@temp+2)^(0+128),w
  5848     1312  00A4               	movwf	(ImprimirTemp@f+2)^(0+128)
  5849     1313  082B               	movf	(MostrarPrincipal@temp+1)^(0+128),w
  5850     1314  00A3               	movwf	(ImprimirTemp@f+1)^(0+128)
  5851     1315  082A               	movf	MostrarPrincipal@temp^(0+128),w
  5852     1316  00A2               	movwf	ImprimirTemp@f^(0+128)
  5853     1317  160A  118A  233E  160A  118A  	fcall	_ImprimirTemp
  5854     131C                     l4039:
  5855                           
  5856                           ;aplicacion.c: 88:     Pantalla_EscribirTexto(" H:");
  5857     131C  3054               	movlw	(low ((STR_3-__stringbase)| (0+32768)))& (0+255)
  5858     131D  1283               	bcf	3,5	;RP0=0, select bank0
  5859     131E  1303               	bcf	3,6	;RP1=0, select bank0
  5860     131F  00A5               	movwf	Pantalla_EscribirTexto@a
  5861     1320  160A  158A  2378  160A  118A  	fcall	_Pantalla_EscribirTexto
  5862                           
  5863                           ;aplicacion.c: 89:     ImprimirTemp(hum);
  5864     1325  1683               	bsf	3,5	;RP0=1, select bank1
  5865     1326  1303               	bcf	3,6	;RP1=0, select bank1
  5866     1327  0831               	movf	(MostrarPrincipal@hum+3)^(0+128),w
  5867     1328  00A5               	movwf	(ImprimirTemp@f+3)^(0+128)
  5868     1329  0830               	movf	(MostrarPrincipal@hum+2)^(0+128),w
  5869     132A  00A4               	movwf	(ImprimirTemp@f+2)^(0+128)
  5870     132B  082F               	movf	(MostrarPrincipal@hum+1)^(0+128),w
  5871     132C  00A3               	movwf	(ImprimirTemp@f+1)^(0+128)
  5872     132D  082E               	movf	MostrarPrincipal@hum^(0+128),w
  5873     132E  00A2               	movwf	ImprimirTemp@f^(0+128)
  5874     132F  160A  118A  233E  160A  118A  	fcall	_ImprimirTemp
  5875     1334                     l4041:
  5876                           
  5877                           ;aplicacion.c: 90:     Pantalla_EscribirTexto("%  ");
  5878     1334  3050               	movlw	(low ((STR_4-__stringbase)| (0+32768)))& (0+255)
  5879     1335  1283               	bcf	3,5	;RP0=0, select bank0
  5880     1336  1303               	bcf	3,6	;RP1=0, select bank0
  5881     1337  00A5               	movwf	Pantalla_EscribirTexto@a
  5882     1338  160A  158A  2378  160A  118A  	fcall	_Pantalla_EscribirTexto
  5883     133D                     l288:
  5884     133D  0008               	return
  5885     133E                     __end_of_MostrarPrincipal:
  5886                           
  5887                           	psect	text22
  5888     1BA0                     __ptext22:	
  5889 ;; *************** function _Pantalla_EstablecerPosicion *****************
  5890 ;; Defined at:
  5891 ;;		line 25 in file "controlador_pantalla.c"
  5892 ;; Parameters:    Size  Location     Type
  5893 ;;  a               1    wreg     unsigned char 
  5894 ;;  b               1    4[COMMON] unsigned char 
  5895 ;; Auto vars:     Size  Location     Type
  5896 ;;  a               1    6[COMMON] unsigned char 
  5897 ;;  temp            1    9[COMMON] unsigned char 
  5898 ;;  y               1    8[COMMON] unsigned char 
  5899 ;;  z               1    7[COMMON] unsigned char 
  5900 ;; Return value:  Size  Location     Type
  5901 ;;                  1    wreg      void 
  5902 ;; Registers used:
  5903 ;;		wreg, status,2, status,0, pclath, cstack
  5904 ;; Tracked objects:
  5905 ;;		On entry : 0/0
  5906 ;;		On exit  : 0/0
  5907 ;;		Unchanged: 0/0
  5908 ;; Data sizes:     COMMON   BANK0   BANK1   BANK3   BANK2
  5909 ;;      Params:         1       0       0       0       0
  5910 ;;      Locals:         4       0       0       0       0
  5911 ;;      Temps:          1       0       0       0       0
  5912 ;;      Totals:         6       0       0       0       0
  5913 ;;Total ram usage:        6 bytes
  5914 ;; Hardware stack levels used: 1
  5915 ;; This function calls:
  5916 ;;		_Pantalla_EnviarComando
  5917 ;; This function is called by:
  5918 ;;		_MostrarPrincipal
  5919 ;;		_MostrarStats
  5920 ;;		_main
  5921 ;; This function uses a non-reentrant model
  5922 ;;
  5923                           
  5924     1BA0                     _Pantalla_EstablecerPosicion:	
  5925                           ;psect for function _Pantalla_EstablecerPosicion
  5926                           
  5927                           
  5928                           ;incstack = 0
  5929                           ; Regs used in _Pantalla_EstablecerPosicion: [wreg+status,2+status,0+pclath+cstack]
  5930                           ;Pantalla_EstablecerPosicion@a stored from wreg
  5931     1BA0  00F6               	movwf	Pantalla_EstablecerPosicion@a
  5932     1BA1                     l3333:
  5933                           
  5934                           ;controlador_pantalla.c: 26:     char temp, z, y;;controlador_pantalla.c: 27:     if(a =
      +                          = 1) {
  5935     1BA1  0376               	decf	Pantalla_EstablecerPosicion@a,w
  5936     1BA2  1D03               	btfss	3,2
  5937     1BA3  2BA5               	goto	u4391
  5938     1BA4  2BA6               	goto	u4390
  5939     1BA5                     u4391:
  5940     1BA5  2BAA               	goto	l3337
  5941     1BA6                     u4390:
  5942     1BA6                     l3335:
  5943                           
  5944                           ;controlador_pantalla.c: 28:         temp = 0x80 + b - 1;
  5945     1BA6  0874               	movf	Pantalla_EstablecerPosicion@b,w
  5946     1BA7  3E7F               	addlw	127
  5947     1BA8  00F9               	movwf	Pantalla_EstablecerPosicion@temp
  5948                           
  5949                           ;controlador_pantalla.c: 29:     } else {
  5950     1BA9  2BAD               	goto	l27
  5951     1BAA                     l3337:
  5952                           
  5953                           ;controlador_pantalla.c: 30:         temp = 0xC0 + b - 1;
  5954     1BAA  0874               	movf	Pantalla_EstablecerPosicion@b,w
  5955     1BAB  3EBF               	addlw	191
  5956     1BAC  00F9               	movwf	Pantalla_EstablecerPosicion@temp
  5957     1BAD                     l27:	
  5958                           ;controlador_pantalla.c: 31:     }
  5959                           
  5960                           
  5961                           ;controlador_pantalla.c: 32:     z = temp >> 4;
  5962     1BAD  0879               	movf	Pantalla_EstablecerPosicion@temp,w
  5963     1BAE  00F5               	movwf	??_Pantalla_EstablecerPosicion
  5964     1BAF  3004               	movlw	4
  5965     1BB0                     u4405:
  5966     1BB0  1003               	clrc
  5967     1BB1  0CF5               	rrf	??_Pantalla_EstablecerPosicion,f
  5968     1BB2  3EFF               	addlw	-1
  5969     1BB3  1D03               	skipz
  5970     1BB4  2BB0               	goto	u4405
  5971     1BB5  0875               	movf	??_Pantalla_EstablecerPosicion,w
  5972     1BB6  00F7               	movwf	Pantalla_EstablecerPosicion@z
  5973     1BB7                     l3339:
  5974                           
  5975                           ;controlador_pantalla.c: 33:     y = temp & 0x0F;
  5976     1BB7  0879               	movf	Pantalla_EstablecerPosicion@temp,w
  5977     1BB8  00F8               	movwf	Pantalla_EstablecerPosicion@y
  5978     1BB9                     l3341:
  5979     1BB9  300F               	movlw	15
  5980     1BBA  05F8               	andwf	Pantalla_EstablecerPosicion@y,f
  5981     1BBB                     l3343:
  5982                           
  5983                           ;controlador_pantalla.c: 34:     Pantalla_EnviarComando(z);
  5984     1BBB  0877               	movf	Pantalla_EstablecerPosicion@z,w
  5985     1BBC  160A  118A  2002  160A  158A  	fcall	_Pantalla_EnviarComando
  5986     1BC1                     l3345:
  5987                           
  5988                           ;controlador_pantalla.c: 35:     Pantalla_EnviarComando(y);
  5989     1BC1  0878               	movf	Pantalla_EstablecerPosicion@y,w
  5990     1BC2  160A  118A  2002  160A  158A  	fcall	_Pantalla_EnviarComando
  5991     1BC7                     l28:
  5992     1BC7  0008               	return
  5993     1BC8                     __end_of_Pantalla_EstablecerPosicion:
  5994                           
  5995                           	psect	text23
  5996     1002                     __ptext23:	
  5997 ;; *************** function _Pantalla_EnviarComando *****************
  5998 ;; Defined at:
  5999 ;;		line 10 in file "controlador_pantalla.c"
  6000 ;; Parameters:    Size  Location     Type
  6001 ;;  a               1    wreg     unsigned char 
  6002 ;; Auto vars:     Size  Location     Type
  6003 ;;  a               1    3[COMMON] unsigned char 
  6004 ;; Return value:  Size  Location     Type
  6005 ;;                  1    wreg      void 
  6006 ;; Registers used:
  6007 ;;		wreg, status,2, status,0, pclath, cstack
  6008 ;; Tracked objects:
  6009 ;;		On entry : 0/0
  6010 ;;		On exit  : 0/0
  6011 ;;		Unchanged: 0/0
  6012 ;; Data sizes:     COMMON   BANK0   BANK1   BANK3   BANK2
  6013 ;;      Params:         0       0       0       0       0
  6014 ;;      Locals:         1       0       0       0       0
  6015 ;;      Temps:          2       0       0       0       0
  6016 ;;      Totals:         3       0       0       0       0
  6017 ;;Total ram usage:        3 bytes
  6018 ;; Hardware stack levels used: 1
  6019 ;; This function calls:
  6020 ;;		_Pantalla_ConfigurarPuerto
  6021 ;; This function is called by:
  6022 ;;		_Pantalla_Limpiar
  6023 ;;		_Pantalla_EstablecerPosicion
  6024 ;;		_Pantalla_Inicializar
  6025 ;; This function uses a non-reentrant model
  6026 ;;
  6027                           
  6028     1002                     _Pantalla_EnviarComando:	
  6029                           ;psect for function _Pantalla_EnviarComando
  6030                           
  6031                           
  6032                           ;incstack = 0
  6033                           ; Regs used in _Pantalla_EnviarComando: [wreg+status,2+status,0+pclath+cstack]
  6034                           ;Pantalla_EnviarComando@a stored from wreg
  6035     1002  00F3               	movwf	Pantalla_EnviarComando@a
  6036     1003                     l2673:
  6037                           
  6038                           ;controlador_pantalla.c: 11:     PORTDbits.RD2 = 0;
  6039     1003  1283               	bcf	3,5	;RP0=0, select bank0
  6040     1004  1303               	bcf	3,6	;RP1=0, select bank0
  6041     1005  1108               	bcf	8,2	;volatile
  6042     1006                     l2675:
  6043                           
  6044                           ;controlador_pantalla.c: 12:     Pantalla_ConfigurarPuerto(a);
  6045     1006  0873               	movf	Pantalla_EnviarComando@a,w
  6046     1007  160A  158A  2308  160A  118A  	fcall	_Pantalla_ConfigurarPuerto
  6047     100C                     l2677:
  6048                           
  6049                           ;controlador_pantalla.c: 13:     PORTDbits.RD3 = 1;
  6050     100C  1283               	bcf	3,5	;RP0=0, select bank0
  6051     100D  1303               	bcf	3,6	;RP1=0, select bank0
  6052     100E  1588               	bsf	8,3	;volatile
  6053     100F                     l2679:
  6054                           
  6055                           ;controlador_pantalla.c: 14:     _delay((unsigned long)((4)*(20000000/4000.0)));
  6056     100F  301A               	movlw	26
  6057     1010  00F2               	movwf	??_Pantalla_EnviarComando+1
  6058     1011  30F8               	movlw	248
  6059     1012  00F1               	movwf	??_Pantalla_EnviarComando
  6060     1013                     u6157:
  6061     1013  0BF1               	decfsz	??_Pantalla_EnviarComando,f
  6062     1014  2813               	goto	u6157
  6063     1015  0BF2               	decfsz	??_Pantalla_EnviarComando+1,f
  6064     1016  2813               	goto	u6157
  6065     1017  0000               	nop
  6066     1018                     l2681:
  6067                           
  6068                           ;controlador_pantalla.c: 15:     PORTDbits.RD3 = 0;
  6069     1018  1283               	bcf	3,5	;RP0=0, select bank0
  6070     1019  1303               	bcf	3,6	;RP1=0, select bank0
  6071     101A  1188               	bcf	8,3	;volatile
  6072     101B                     l2683:
  6073                           
  6074                           ;controlador_pantalla.c: 16:     _delay((unsigned long)((4)*(20000000/4000.0)));
  6075     101B  301A               	movlw	26
  6076     101C  00F2               	movwf	??_Pantalla_EnviarComando+1
  6077     101D  30F8               	movlw	248
  6078     101E  00F1               	movwf	??_Pantalla_EnviarComando
  6079     101F                     u6167:
  6080     101F  0BF1               	decfsz	??_Pantalla_EnviarComando,f
  6081     1020  281F               	goto	u6167
  6082     1021  0BF2               	decfsz	??_Pantalla_EnviarComando+1,f
  6083     1022  281F               	goto	u6167
  6084     1023  0000               	nop
  6085     1024                     l20:
  6086     1024  0008               	return
  6087     1025                     __end_of_Pantalla_EnviarComando:
  6088                           
  6089                           	psect	text24
  6090     1B78                     __ptext24:	
  6091 ;; *************** function _Pantalla_EscribirTexto *****************
  6092 ;; Defined at:
  6093 ;;		line 82 in file "controlador_pantalla.c"
  6094 ;; Parameters:    Size  Location     Type
  6095 ;;  a               1    5[BANK0 ] PTR const unsigned char 
  6096 ;;		 -> STR_13(10), STR_10(7), STR_9(13), STR_8(4), 
  6097 ;;		 -> STR_7(7), STR_6(6), STR_5(5), STR_4(4), 
  6098 ;;		 -> STR_3(4), STR_2(3), STR_1(2), 
  6099 ;; Auto vars:     Size  Location     Type
  6100 ;;  i               2    6[BANK0 ] int 
  6101 ;; Return value:  Size  Location     Type
  6102 ;;                  1    wreg      void 
  6103 ;; Registers used:
  6104 ;;		wreg, fsr0l, fsr0h, status,2, status,0, pclath, cstack
  6105 ;; Tracked objects:
  6106 ;;		On entry : 0/0
  6107 ;;		On exit  : 0/0
  6108 ;;		Unchanged: 0/0
  6109 ;; Data sizes:     COMMON   BANK0   BANK1   BANK3   BANK2
  6110 ;;      Params:         0       1       0       0       0
  6111 ;;      Locals:         0       2       0       0       0
  6112 ;;      Temps:          0       0       0       0       0
  6113 ;;      Totals:         0       3       0       0       0
  6114 ;;Total ram usage:        3 bytes
  6115 ;; Hardware stack levels used: 1
  6116 ;; This function calls:
  6117 ;;		_Pantalla_EscribirCaracter
  6118 ;; This function is called by:
  6119 ;;		_MostrarPrincipal
  6120 ;;		_MostrarStats
  6121 ;;		_main
  6122 ;; This function uses a non-reentrant model
  6123 ;;
  6124                           
  6125     1B78                     _Pantalla_EscribirTexto:	
  6126                           ;psect for function _Pantalla_EscribirTexto
  6127                           
  6128     1B78                     l3347:	
  6129                           ;incstack = 0
  6130                           ; Regs used in _Pantalla_EscribirTexto: [wreg-fsr0h+status,2+status,0+pclath+cstack]
  6131                           
  6132                           
  6133                           ;controlador_pantalla.c: 83:     int i;;controlador_pantalla.c: 84:     for(i = 0; a[i] 
      +                          != '\0'; i++)
  6134     1B78  1283               	bcf	3,5	;RP0=0, select bank0
  6135     1B79  1303               	bcf	3,6	;RP1=0, select bank0
  6136     1B7A  01A6               	clrf	Pantalla_EscribirTexto@i
  6137     1B7B  01A7               	clrf	Pantalla_EscribirTexto@i+1
  6138     1B7C  2B92               	goto	l3353
  6139     1B7D                     l3349:
  6140                           
  6141                           ;controlador_pantalla.c: 85:         Pantalla_EscribirCaracter(a[i]);
  6142     1B7D  0826               	movf	Pantalla_EscribirTexto@i,w
  6143     1B7E  0725               	addwf	Pantalla_EscribirTexto@a,w
  6144     1B7F  0084               	movwf	4
  6145     1B80  120A  118A  200D  160A  158A  	fcall	stringdir
  6146     1B85  160A  158A  24D4  160A  158A  	fcall	_Pantalla_EscribirCaracter
  6147     1B8A                     l3351:
  6148     1B8A  3001               	movlw	1
  6149     1B8B  1283               	bcf	3,5	;RP0=0, select bank0
  6150     1B8C  1303               	bcf	3,6	;RP1=0, select bank0
  6151     1B8D  07A6               	addwf	Pantalla_EscribirTexto@i,f
  6152     1B8E  1803               	skipnc
  6153     1B8F  0AA7               	incf	Pantalla_EscribirTexto@i+1,f
  6154     1B90  3000               	movlw	0
  6155     1B91  07A7               	addwf	Pantalla_EscribirTexto@i+1,f
  6156     1B92                     l3353:
  6157     1B92  0826               	movf	Pantalla_EscribirTexto@i,w
  6158     1B93  0725               	addwf	Pantalla_EscribirTexto@a,w
  6159     1B94  0084               	movwf	4
  6160     1B95  120A  118A  200D  160A  158A  	fcall	stringdir
  6161     1B9A  3A00               	xorlw	0
  6162     1B9B  1D03               	skipz
  6163     1B9C  2B9E               	goto	u4411
  6164     1B9D  2B9F               	goto	u4410
  6165     1B9E                     u4411:
  6166     1B9E  2B7D               	goto	l3349
  6167     1B9F                     u4410:
  6168     1B9F                     l40:
  6169     1B9F  0008               	return
  6170     1BA0                     __end_of_Pantalla_EscribirTexto:
  6171                           
  6172                           	psect	text25
  6173     133E                     __ptext25:	
  6174 ;; *************** function _ImprimirTemp *****************
  6175 ;; Defined at:
  6176 ;;		line 43 in file "aplicacion.c"
  6177 ;; Parameters:    Size  Location     Type
  6178 ;;  f               4    2[BANK1 ] float 
  6179 ;; Auto vars:     Size  Location     Type
  6180 ;;  v               2    6[BANK1 ] unsigned short 
  6181 ;; Return value:  Size  Location     Type
  6182 ;;                  1    wreg      void 
  6183 ;; Registers used:
  6184 ;;		wreg, status,2, status,0, pclath, btemp1, cstack
  6185 ;; Tracked objects:
  6186 ;;		On entry : 0/0
  6187 ;;		On exit  : 0/0
  6188 ;;		Unchanged: 0/0
  6189 ;; Data sizes:     COMMON   BANK0   BANK1   BANK3   BANK2
  6190 ;;      Params:         0       0       4       0       0
  6191 ;;      Locals:         0       0       2       0       0
  6192 ;;      Temps:          0       0       0       0       0
  6193 ;;      Totals:         0       0       6       0       0
  6194 ;;Total ram usage:        6 bytes
  6195 ;; Hardware stack levels used: 1
  6196 ;; This function calls:
  6197 ;;		_Pantalla_EscribirCaracter
  6198 ;;		___fladd
  6199 ;;		___flge
  6200 ;;		___flmul
  6201 ;;		___fltol
  6202 ;;		___lwdiv
  6203 ;;		___lwmod
  6204 ;; This function is called by:
  6205 ;;		_MostrarPrincipal
  6206 ;;		_MostrarStats
  6207 ;; This function uses a non-reentrant model
  6208 ;;
  6209                           
  6210     133E                     _ImprimirTemp:	
  6211                           ;psect for function _ImprimirTemp
  6212                           
  6213     133E                     l3483:	
  6214                           ;incstack = 0
  6215                           ; Regs used in _ImprimirTemp: [wreg+status,2+status,0+pclath+btemp1+cstack]
  6216                           
  6217                           
  6218                           ;aplicacion.c: 44:     uint16_t v = (uint16_t)(f * 10.0 + 0.5);
  6219     133E  1683               	bsf	3,5	;RP0=1, select bank1
  6220     133F  1303               	bcf	3,6	;RP1=0, select bank1
  6221     1340  0825               	movf	(ImprimirTemp@f+3)^(0+128),w
  6222     1341  1283               	bcf	3,5	;RP0=0, select bank0
  6223     1342  1303               	bcf	3,6	;RP1=0, select bank0
  6224     1343  00C1               	movwf	___flmul@a+3
  6225     1344  1683               	bsf	3,5	;RP0=1, select bank1
  6226     1345  1303               	bcf	3,6	;RP1=0, select bank1
  6227     1346  0824               	movf	(ImprimirTemp@f+2)^(0+128),w
  6228     1347  1283               	bcf	3,5	;RP0=0, select bank0
  6229     1348  1303               	bcf	3,6	;RP1=0, select bank0
  6230     1349  00C0               	movwf	___flmul@a+2
  6231     134A  1683               	bsf	3,5	;RP0=1, select bank1
  6232     134B  1303               	bcf	3,6	;RP1=0, select bank1
  6233     134C  0823               	movf	(ImprimirTemp@f+1)^(0+128),w
  6234     134D  1283               	bcf	3,5	;RP0=0, select bank0
  6235     134E  1303               	bcf	3,6	;RP1=0, select bank0
  6236     134F  00BF               	movwf	___flmul@a+1
  6237     1350  1683               	bsf	3,5	;RP0=1, select bank1
  6238     1351  1303               	bcf	3,6	;RP1=0, select bank1
  6239     1352  0822               	movf	ImprimirTemp@f^(0+128),w
  6240     1353  1283               	bcf	3,5	;RP0=0, select bank0
  6241     1354  1303               	bcf	3,6	;RP1=0, select bank0
  6242     1355  00BE               	movwf	___flmul@a
  6243     1356  3041               	movlw	65
  6244     1357  00BD               	movwf	___flmul@b+3
  6245     1358  3020               	movlw	32
  6246     1359  00BC               	movwf	___flmul@b+2
  6247     135A  3000               	movlw	0
  6248     135B  00BB               	movwf	___flmul@b+1
  6249     135C  3000               	movlw	0
  6250     135D  00BA               	movwf	___flmul@b
  6251     135E  120A  158A  24BE  160A  118A  	fcall	___flmul
  6252     1363  1283               	bcf	3,5	;RP0=0, select bank0
  6253     1364  1303               	bcf	3,6	;RP1=0, select bank0
  6254     1365  083D               	movf	?___flmul+3,w
  6255     1366  00DB               	movwf	___fladd@a+3
  6256     1367  083C               	movf	?___flmul+2,w
  6257     1368  00DA               	movwf	___fladd@a+2
  6258     1369  083B               	movf	?___flmul+1,w
  6259     136A  00D9               	movwf	___fladd@a+1
  6260     136B  083A               	movf	?___flmul,w
  6261     136C  00D8               	movwf	___fladd@a
  6262     136D  303F               	movlw	63
  6263     136E  00D7               	movwf	___fladd@b+3
  6264     136F  3000               	movlw	0
  6265     1370  00D6               	movwf	___fladd@b+2
  6266     1371  3000               	movlw	0
  6267     1372  00D5               	movwf	___fladd@b+1
  6268     1373  3000               	movlw	0
  6269     1374  00D4               	movwf	___fladd@b
  6270     1375  120A  118A  2078  160A  118A  	fcall	___fladd
  6271     137A  1283               	bcf	3,5	;RP0=0, select bank0
  6272     137B  1303               	bcf	3,6	;RP1=0, select bank0
  6273     137C  0857               	movf	?___fladd+3,w
  6274     137D  00EB               	movwf	___fltol@f1+3
  6275     137E  0856               	movf	?___fladd+2,w
  6276     137F  00EA               	movwf	___fltol@f1+2
  6277     1380  0855               	movf	?___fladd+1,w
  6278     1381  00E9               	movwf	___fltol@f1+1
  6279     1382  0854               	movf	?___fladd,w
  6280     1383  00E8               	movwf	___fltol@f1
  6281     1384  160A  158A  2658  160A  118A  	fcall	___fltol
  6282     1389  1283               	bcf	3,5	;RP0=0, select bank0
  6283     138A  1303               	bcf	3,6	;RP1=0, select bank0
  6284     138B  0869               	movf	?___fltol+1,w
  6285     138C  1683               	bsf	3,5	;RP0=1, select bank1
  6286     138D  1303               	bcf	3,6	;RP1=0, select bank1
  6287     138E  00A7               	movwf	(ImprimirTemp@v+1)^(0+128)
  6288     138F  1283               	bcf	3,5	;RP0=0, select bank0
  6289     1390  1303               	bcf	3,6	;RP1=0, select bank0
  6290     1391  0868               	movf	?___fltol,w
  6291     1392  1683               	bsf	3,5	;RP0=1, select bank1
  6292     1393  1303               	bcf	3,6	;RP1=0, select bank1
  6293     1394  00A6               	movwf	ImprimirTemp@v^(0+128)
  6294     1395                     l3485:
  6295                           
  6296                           ;aplicacion.c: 45:     if(f < 0) { Pantalla_EscribirCaracter('-'); v = -v; }
  6297     1395  0825               	movf	(ImprimirTemp@f+3)^(0+128),w
  6298     1396  00F3               	movwf	___flge@ff1+3
  6299     1397  0824               	movf	(ImprimirTemp@f+2)^(0+128),w
  6300     1398  00F2               	movwf	___flge@ff1+2
  6301     1399  0823               	movf	(ImprimirTemp@f+1)^(0+128),w
  6302     139A  00F1               	movwf	___flge@ff1+1
  6303     139B  0822               	movf	ImprimirTemp@f^(0+128),w
  6304     139C  00F0               	movwf	___flge@ff1
  6305     139D  3000               	movlw	0
  6306     139E  00F7               	movwf	___flge@ff2+3
  6307     139F  3000               	movlw	0
  6308     13A0  00F6               	movwf	___flge@ff2+2
  6309     13A1  3000               	movlw	0
  6310     13A2  00F5               	movwf	___flge@ff2+1
  6311     13A3  3000               	movlw	0
  6312     13A4  00F4               	movwf	___flge@ff2
  6313     13A5  160A  118A  211A  160A  118A  	fcall	___flge
  6314     13AA  1803               	btfsc	3,0
  6315     13AB  2BAD               	goto	u4531
  6316     13AC  2BAE               	goto	u4530
  6317     13AD                     u4531:
  6318     13AD  2BBB               	goto	l3491
  6319     13AE                     u4530:
  6320     13AE                     l3487:
  6321     13AE  302D               	movlw	45
  6322     13AF  160A  158A  24D4  160A  118A  	fcall	_Pantalla_EscribirCaracter
  6323     13B4                     l3489:
  6324     13B4  1683               	bsf	3,5	;RP0=1, select bank1
  6325     13B5  1303               	bcf	3,6	;RP1=0, select bank1
  6326     13B6  09A6               	comf	ImprimirTemp@v^(0+128),f
  6327     13B7  09A7               	comf	(ImprimirTemp@v+1)^(0+128),f
  6328     13B8  0AA6               	incf	ImprimirTemp@v^(0+128),f
  6329     13B9  1903               	skipnz
  6330     13BA  0AA7               	incf	(ImprimirTemp@v+1)^(0+128),f
  6331     13BB                     l3491:
  6332                           
  6333                           ;aplicacion.c: 46:     Pantalla_EscribirCaracter('0' + (v / 100));
  6334     13BB  3064               	movlw	100
  6335     13BC  00F0               	movwf	___lwdiv@divisor
  6336     13BD  3000               	movlw	0
  6337     13BE  00F1               	movwf	___lwdiv@divisor+1
  6338     13BF  1683               	bsf	3,5	;RP0=1, select bank1
  6339     13C0  1303               	bcf	3,6	;RP1=0, select bank1
  6340     13C1  0827               	movf	(ImprimirTemp@v+1)^(0+128),w
  6341     13C2  00F3               	movwf	___lwdiv@dividend+1
  6342     13C3  0826               	movf	ImprimirTemp@v^(0+128),w
  6343     13C4  00F2               	movwf	___lwdiv@dividend
  6344     13C5  160A  158A  2492  160A  118A  	fcall	___lwdiv
  6345     13CA  0870               	movf	?___lwdiv,w
  6346     13CB  3E30               	addlw	48
  6347     13CC  160A  158A  24D4  160A  118A  	fcall	_Pantalla_EscribirCaracter
  6348     13D1                     l3493:
  6349                           
  6350                           ;aplicacion.c: 47:     Pantalla_EscribirCaracter('0' + ((v / 10) % 10));
  6351     13D1  300A               	movlw	10
  6352     13D2  00F7               	movwf	___lwmod@divisor
  6353     13D3  3000               	movlw	0
  6354     13D4  00F8               	movwf	___lwmod@divisor+1
  6355     13D5  300A               	movlw	10
  6356     13D6  00F0               	movwf	___lwdiv@divisor
  6357     13D7  3000               	movlw	0
  6358     13D8  00F1               	movwf	___lwdiv@divisor+1
  6359     13D9  1683               	bsf	3,5	;RP0=1, select bank1
  6360     13DA  1303               	bcf	3,6	;RP1=0, select bank1
  6361     13DB  0827               	movf	(ImprimirTemp@v+1)^(0+128),w
  6362     13DC  00F3               	movwf	___lwdiv@dividend+1
  6363     13DD  0826               	movf	ImprimirTemp@v^(0+128),w
  6364     13DE  00F2               	movwf	___lwdiv@dividend
  6365     13DF  160A  158A  2492  160A  118A  	fcall	___lwdiv
  6366     13E4  0871               	movf	?___lwdiv+1,w
  6367     13E5  00FA               	movwf	___lwmod@dividend+1
  6368     13E6  0870               	movf	?___lwdiv,w
  6369     13E7  00F9               	movwf	___lwmod@dividend
  6370     13E8  160A  158A  245A  160A  118A  	fcall	___lwmod
  6371     13ED  0877               	movf	?___lwmod,w
  6372     13EE  3E30               	addlw	48
  6373     13EF  160A  158A  24D4  160A  118A  	fcall	_Pantalla_EscribirCaracter
  6374     13F4                     l3495:
  6375                           
  6376                           ;aplicacion.c: 48:     Pantalla_EscribirCaracter('.');
  6377     13F4  302E               	movlw	46
  6378     13F5  160A  158A  24D4  160A  118A  	fcall	_Pantalla_EscribirCaracter
  6379     13FA                     l3497:
  6380                           
  6381                           ;aplicacion.c: 49:     Pantalla_EscribirCaracter('0' + (v % 10));
  6382     13FA  300A               	movlw	10
  6383     13FB  00F7               	movwf	___lwmod@divisor
  6384     13FC  3000               	movlw	0
  6385     13FD  00F8               	movwf	___lwmod@divisor+1
  6386     13FE  1683               	bsf	3,5	;RP0=1, select bank1
  6387     13FF  1303               	bcf	3,6	;RP1=0, select bank1
  6388     1400  0827               	movf	(ImprimirTemp@v+1)^(0+128),w
  6389     1401  00FA               	movwf	___lwmod@dividend+1
  6390     1402  0826               	movf	ImprimirTemp@v^(0+128),w
  6391     1403  00F9               	movwf	___lwmod@dividend
  6392     1404  160A  158A  245A  160A  118A  	fcall	___lwmod
  6393     1409  0877               	movf	?___lwmod,w
  6394     140A  3E30               	addlw	48
  6395     140B  160A  158A  24D4  160A  118A  	fcall	_Pantalla_EscribirCaracter
  6396     1410                     l268:
  6397     1410  0008               	return
  6398     1411                     __end_of_ImprimirTemp:
  6399                           
  6400                           	psect	text26
  6401     1C5A                     __ptext26:	
  6402 ;; *************** function ___lwmod *****************
  6403 ;; Defined at:
  6404 ;;		line 5 in file "C:\Program Files\Microchip\xc8\v3.10\pic\sources\c99\common\lwmod.c"
  6405 ;; Parameters:    Size  Location     Type
  6406 ;;  divisor         2    7[COMMON] unsigned int 
  6407 ;;  dividend        2    9[COMMON] unsigned int 
  6408 ;; Auto vars:     Size  Location     Type
  6409 ;;  counter         1   11[COMMON] unsigned char 
  6410 ;; Return value:  Size  Location     Type
  6411 ;;                  2    7[COMMON] unsigned int 
  6412 ;; Registers used:
  6413 ;;		wreg, status,2, status,0
  6414 ;; Tracked objects:
  6415 ;;		On entry : 0/0
  6416 ;;		On exit  : 0/0
  6417 ;;		Unchanged: 0/0
  6418 ;; Data sizes:     COMMON   BANK0   BANK1   BANK3   BANK2
  6419 ;;      Params:         4       0       0       0       0
  6420 ;;      Locals:         1       0       0       0       0
  6421 ;;      Temps:          0       0       0       0       0
  6422 ;;      Totals:         5       0       0       0       0
  6423 ;;Total ram usage:        5 bytes
  6424 ;; Hardware stack levels used: 1
  6425 ;; This function calls:
  6426 ;;		Nothing
  6427 ;; This function is called by:
  6428 ;;		_ImprimirTemp
  6429 ;;		_main
  6430 ;; This function uses a non-reentrant model
  6431 ;;
  6432                           
  6433     1C5A                     ___lwmod:	
  6434                           ;psect for function ___lwmod
  6435                           
  6436     1C5A                     l2971:	
  6437                           ;incstack = 0
  6438                           ; Regs used in ___lwmod: [wreg+status,2+status,0]
  6439                           
  6440     1C5A  0877               	movf	___lwmod@divisor,w
  6441     1C5B  0478               	iorwf	___lwmod@divisor+1,w
  6442     1C5C  1903               	btfsc	3,2
  6443     1C5D  2C5F               	goto	u3501
  6444     1C5E  2C60               	goto	u3500
  6445     1C5F                     u3501:
  6446     1C5F  2C8D               	goto	l2989
  6447     1C60                     u3500:
  6448     1C60                     l2973:
  6449     1C60  3001               	movlw	1
  6450     1C61  00FB               	movwf	___lwmod@counter
  6451     1C62  2C6C               	goto	l2979
  6452     1C63                     l2975:
  6453     1C63  3001               	movlw	1
  6454     1C64                     u3515:
  6455     1C64  1003               	clrc
  6456     1C65  0DF7               	rlf	___lwmod@divisor,f
  6457     1C66  0DF8               	rlf	___lwmod@divisor+1,f
  6458     1C67  3EFF               	addlw	-1
  6459     1C68  1D03               	skipz
  6460     1C69  2C64               	goto	u3515
  6461     1C6A                     l2977:
  6462     1C6A  3001               	movlw	1
  6463     1C6B  07FB               	addwf	___lwmod@counter,f
  6464     1C6C                     l2979:
  6465     1C6C  1FF8               	btfss	___lwmod@divisor+1,7
  6466     1C6D  2C6F               	goto	u3521
  6467     1C6E  2C70               	goto	u3520
  6468     1C6F                     u3521:
  6469     1C6F  2C63               	goto	l2975
  6470     1C70                     u3520:
  6471     1C70                     l2981:
  6472     1C70  0878               	movf	___lwmod@divisor+1,w
  6473     1C71  027A               	subwf	___lwmod@dividend+1,w
  6474     1C72  1D03               	skipz
  6475     1C73  2C76               	goto	u3535
  6476     1C74  0877               	movf	___lwmod@divisor,w
  6477     1C75  0279               	subwf	___lwmod@dividend,w
  6478     1C76                     u3535:
  6479     1C76  1C03               	skipc
  6480     1C77  2C79               	goto	u3531
  6481     1C78  2C7A               	goto	u3530
  6482     1C79                     u3531:
  6483     1C79  2C80               	goto	l2985
  6484     1C7A                     u3530:
  6485     1C7A                     l2983:
  6486     1C7A  0877               	movf	___lwmod@divisor,w
  6487     1C7B  02F9               	subwf	___lwmod@dividend,f
  6488     1C7C  0878               	movf	___lwmod@divisor+1,w
  6489     1C7D  1C03               	skipc
  6490     1C7E  03FA               	decf	___lwmod@dividend+1,f
  6491     1C7F  02FA               	subwf	___lwmod@dividend+1,f
  6492     1C80                     l2985:
  6493     1C80  3001               	movlw	1
  6494     1C81                     u3545:
  6495     1C81  1003               	clrc
  6496     1C82  0CF8               	rrf	___lwmod@divisor+1,f
  6497     1C83  0CF7               	rrf	___lwmod@divisor,f
  6498     1C84  3EFF               	addlw	-1
  6499     1C85  1D03               	skipz
  6500     1C86  2C81               	goto	u3545
  6501     1C87                     l2987:
  6502     1C87  3001               	movlw	1
  6503     1C88  02FB               	subwf	___lwmod@counter,f
  6504     1C89  1D03               	btfss	3,2
  6505     1C8A  2C8C               	goto	u3551
  6506     1C8B  2C8D               	goto	u3550
  6507     1C8C                     u3551:
  6508     1C8C  2C70               	goto	l2981
  6509     1C8D                     u3550:
  6510     1C8D                     l2989:
  6511     1C8D  087A               	movf	___lwmod@dividend+1,w
  6512     1C8E  00F8               	movwf	?___lwmod+1
  6513     1C8F  0879               	movf	___lwmod@dividend,w
  6514     1C90  00F7               	movwf	?___lwmod
  6515     1C91                     l697:
  6516     1C91  0008               	return
  6517     1C92                     __end_of___lwmod:
  6518                           
  6519                           	psect	text27
  6520     1C92                     __ptext27:	
  6521 ;; *************** function ___lwdiv *****************
  6522 ;; Defined at:
  6523 ;;		line 5 in file "C:\Program Files\Microchip\xc8\v3.10\pic\sources\c99\common\lwdiv.c"
  6524 ;; Parameters:    Size  Location     Type
  6525 ;;  divisor         2    0[COMMON] unsigned int 
  6526 ;;  dividend        2    2[COMMON] unsigned int 
  6527 ;; Auto vars:     Size  Location     Type
  6528 ;;  quotient        2    4[COMMON] unsigned int 
  6529 ;;  counter         1    6[COMMON] unsigned char 
  6530 ;; Return value:  Size  Location     Type
  6531 ;;                  2    0[COMMON] unsigned int 
  6532 ;; Registers used:
  6533 ;;		wreg, status,2, status,0
  6534 ;; Tracked objects:
  6535 ;;		On entry : 0/0
  6536 ;;		On exit  : 0/0
  6537 ;;		Unchanged: 0/0
  6538 ;; Data sizes:     COMMON   BANK0   BANK1   BANK3   BANK2
  6539 ;;      Params:         4       0       0       0       0
  6540 ;;      Locals:         3       0       0       0       0
  6541 ;;      Temps:          0       0       0       0       0
  6542 ;;      Totals:         7       0       0       0       0
  6543 ;;Total ram usage:        7 bytes
  6544 ;; Hardware stack levels used: 1
  6545 ;; This function calls:
  6546 ;;		Nothing
  6547 ;; This function is called by:
  6548 ;;		_ImprimirTemp
  6549 ;;		_main
  6550 ;; This function uses a non-reentrant model
  6551 ;;
  6552                           
  6553     1C92                     ___lwdiv:	
  6554                           ;psect for function ___lwdiv
  6555                           
  6556     1C92                     l2945:	
  6557                           ;incstack = 0
  6558                           ; Regs used in ___lwdiv: [wreg+status,2+status,0]
  6559                           
  6560     1C92  01F4               	clrf	___lwdiv@quotient
  6561     1C93  01F5               	clrf	___lwdiv@quotient+1
  6562     1C94                     l2947:
  6563     1C94  0870               	movf	___lwdiv@divisor,w
  6564     1C95  0471               	iorwf	___lwdiv@divisor+1,w
  6565     1C96  1903               	btfsc	3,2
  6566     1C97  2C99               	goto	u3431
  6567     1C98  2C9A               	goto	u3430
  6568     1C99                     u3431:
  6569     1C99  2CCF               	goto	l2967
  6570     1C9A                     u3430:
  6571     1C9A                     l2949:
  6572     1C9A  3001               	movlw	1
  6573     1C9B  00F6               	movwf	___lwdiv@counter
  6574     1C9C  2CA6               	goto	l2955
  6575     1C9D                     l2951:
  6576     1C9D  3001               	movlw	1
  6577     1C9E                     u3445:
  6578     1C9E  1003               	clrc
  6579     1C9F  0DF0               	rlf	___lwdiv@divisor,f
  6580     1CA0  0DF1               	rlf	___lwdiv@divisor+1,f
  6581     1CA1  3EFF               	addlw	-1
  6582     1CA2  1D03               	skipz
  6583     1CA3  2C9E               	goto	u3445
  6584     1CA4                     l2953:
  6585     1CA4  3001               	movlw	1
  6586     1CA5  07F6               	addwf	___lwdiv@counter,f
  6587     1CA6                     l2955:
  6588     1CA6  1FF1               	btfss	___lwdiv@divisor+1,7
  6589     1CA7  2CA9               	goto	u3451
  6590     1CA8  2CAA               	goto	u3450
  6591     1CA9                     u3451:
  6592     1CA9  2C9D               	goto	l2951
  6593     1CAA                     u3450:
  6594     1CAA                     l2957:
  6595     1CAA  3001               	movlw	1
  6596     1CAB                     u3465:
  6597     1CAB  1003               	clrc
  6598     1CAC  0DF4               	rlf	___lwdiv@quotient,f
  6599     1CAD  0DF5               	rlf	___lwdiv@quotient+1,f
  6600     1CAE  3EFF               	addlw	-1
  6601     1CAF  1D03               	skipz
  6602     1CB0  2CAB               	goto	u3465
  6603     1CB1  0871               	movf	___lwdiv@divisor+1,w
  6604     1CB2  0273               	subwf	___lwdiv@dividend+1,w
  6605     1CB3  1D03               	skipz
  6606     1CB4  2CB7               	goto	u3475
  6607     1CB5  0870               	movf	___lwdiv@divisor,w
  6608     1CB6  0272               	subwf	___lwdiv@dividend,w
  6609     1CB7                     u3475:
  6610     1CB7  1C03               	skipc
  6611     1CB8  2CBA               	goto	u3471
  6612     1CB9  2CBB               	goto	u3470
  6613     1CBA                     u3471:
  6614     1CBA  2CC2               	goto	l2963
  6615     1CBB                     u3470:
  6616     1CBB                     l2959:
  6617     1CBB  0870               	movf	___lwdiv@divisor,w
  6618     1CBC  02F2               	subwf	___lwdiv@dividend,f
  6619     1CBD  0871               	movf	___lwdiv@divisor+1,w
  6620     1CBE  1C03               	skipc
  6621     1CBF  03F3               	decf	___lwdiv@dividend+1,f
  6622     1CC0  02F3               	subwf	___lwdiv@dividend+1,f
  6623     1CC1                     l2961:
  6624     1CC1  1474               	bsf	___lwdiv@quotient,0
  6625     1CC2                     l2963:
  6626     1CC2  3001               	movlw	1
  6627     1CC3                     u3485:
  6628     1CC3  1003               	clrc
  6629     1CC4  0CF1               	rrf	___lwdiv@divisor+1,f
  6630     1CC5  0CF0               	rrf	___lwdiv@divisor,f
  6631     1CC6  3EFF               	addlw	-1
  6632     1CC7  1D03               	skipz
  6633     1CC8  2CC3               	goto	u3485
  6634     1CC9                     l2965:
  6635     1CC9  3001               	movlw	1
  6636     1CCA  02F6               	subwf	___lwdiv@counter,f
  6637     1CCB  1D03               	btfss	3,2
  6638     1CCC  2CCE               	goto	u3491
  6639     1CCD  2CCF               	goto	u3490
  6640     1CCE                     u3491:
  6641     1CCE  2CAA               	goto	l2957
  6642     1CCF                     u3490:
  6643     1CCF                     l2967:
  6644     1CCF  0875               	movf	___lwdiv@quotient+1,w
  6645     1CD0  00F1               	movwf	?___lwdiv+1
  6646     1CD1  0874               	movf	___lwdiv@quotient,w
  6647     1CD2  00F0               	movwf	?___lwdiv
  6648     1CD3                     l687:
  6649     1CD3  0008               	return
  6650     1CD4                     __end_of___lwdiv:
  6651                           
  6652                           	psect	text28
  6653     1E58                     __ptext28:	
  6654 ;; *************** function ___fltol *****************
  6655 ;; Defined at:
  6656 ;;		line 43 in file "C:\Program Files\Microchip\xc8\v3.10\pic\sources\c99\common\fltol.c"
  6657 ;; Parameters:    Size  Location     Type
  6658 ;;  f1              4   72[BANK0 ] unsigned int 
  6659 ;; Auto vars:     Size  Location     Type
  6660 ;;  exp1            1    1[BANK1 ] unsigned char 
  6661 ;;  sign1           1    0[BANK1 ] unsigned char 
  6662 ;; Return value:  Size  Location     Type
  6663 ;;                  4   72[BANK0 ] long 
  6664 ;; Registers used:
  6665 ;;		wreg, status,2, status,0
  6666 ;; Tracked objects:
  6667 ;;		On entry : 0/0
  6668 ;;		On exit  : 0/0
  6669 ;;		Unchanged: 0/0
  6670 ;; Data sizes:     COMMON   BANK0   BANK1   BANK3   BANK2
  6671 ;;      Params:         0       4       0       0       0
  6672 ;;      Locals:         0       0       2       0       0
  6673 ;;      Temps:          0       4       0       0       0
  6674 ;;      Totals:         0       8       2       0       0
  6675 ;;Total ram usage:       10 bytes
  6676 ;; Hardware stack levels used: 1
  6677 ;; This function calls:
  6678 ;;		Nothing
  6679 ;; This function is called by:
  6680 ;;		_ImprimirTemp
  6681 ;;		_main
  6682 ;; This function uses a non-reentrant model
  6683 ;;
  6684                           
  6685     1E58                     ___fltol:	
  6686                           ;psect for function ___fltol
  6687                           
  6688     1E58                     l2909:	
  6689                           ;incstack = 0
  6690                           ; Regs used in ___fltol: [wreg+status,2+status,0]
  6691                           
  6692     1E58  1003               	clrc
  6693     1E59  1283               	bcf	3,5	;RP0=0, select bank0
  6694     1E5A  1303               	bcf	3,6	;RP1=0, select bank0
  6695     1E5B  0D6A               	rlf	___fltol@f1+2,w
  6696     1E5C  0D6B               	rlf	___fltol@f1+3,w
  6697     1E5D  1683               	bsf	3,5	;RP0=1, select bank1
  6698     1E5E  1303               	bcf	3,6	;RP1=0, select bank1
  6699     1E5F  00A1               	movwf	___fltol@exp1^(0+128)
  6700     1E60  0821               	movf	___fltol@exp1^(0+128),w
  6701     1E61  1D03               	btfss	3,2
  6702     1E62  2E64               	goto	u3331
  6703     1E63  2E65               	goto	u3330
  6704     1E64                     u3331:
  6705     1E64  2E70               	goto	l2915
  6706     1E65                     u3330:
  6707     1E65                     l2911:
  6708     1E65  3000               	movlw	0
  6709     1E66  1283               	bcf	3,5	;RP0=0, select bank0
  6710     1E67  1303               	bcf	3,6	;RP1=0, select bank0
  6711     1E68  00EB               	movwf	?___fltol+3
  6712     1E69  3000               	movlw	0
  6713     1E6A  00EA               	movwf	?___fltol+2
  6714     1E6B  3000               	movlw	0
  6715     1E6C  00E9               	movwf	?___fltol+1
  6716     1E6D  3000               	movlw	0
  6717     1E6E  00E8               	movwf	?___fltol
  6718     1E6F  2EE3               	goto	l601
  6719     1E70                     l2915:
  6720     1E70  1283               	bcf	3,5	;RP0=0, select bank0
  6721     1E71  1303               	bcf	3,6	;RP1=0, select bank0
  6722     1E72  0868               	movf	___fltol@f1,w
  6723     1E73  00EC               	movwf	??___fltol
  6724     1E74  0869               	movf	___fltol@f1+1,w
  6725     1E75  00ED               	movwf	??___fltol+1
  6726     1E76  086A               	movf	___fltol@f1+2,w
  6727     1E77  00EE               	movwf	??___fltol+2
  6728     1E78  086B               	movf	___fltol@f1+3,w
  6729     1E79  00EF               	movwf	??___fltol+3
  6730     1E7A  301F               	movlw	31
  6731     1E7B                     u3345:
  6732     1E7B  1003               	clrc
  6733     1E7C  0CEF               	rrf	??___fltol+3,f
  6734     1E7D  0CEE               	rrf	??___fltol+2,f
  6735     1E7E  0CED               	rrf	??___fltol+1,f
  6736     1E7F  0CEC               	rrf	??___fltol,f
  6737     1E80                     u3340:
  6738     1E80  3EFF               	addlw	-1
  6739     1E81  1D03               	skipz
  6740     1E82  2E7B               	goto	u3345
  6741     1E83  086C               	movf	??___fltol,w
  6742     1E84  1683               	bsf	3,5	;RP0=1, select bank1
  6743     1E85  1303               	bcf	3,6	;RP1=0, select bank1
  6744     1E86  00A0               	movwf	___fltol@sign1^(0+128)
  6745     1E87                     l2917:
  6746     1E87  1283               	bcf	3,5	;RP0=0, select bank0
  6747     1E88  1303               	bcf	3,6	;RP1=0, select bank0
  6748     1E89  17EA               	bsf	___fltol@f1+2,7
  6749     1E8A                     l2919:
  6750     1E8A  30FF               	movlw	255
  6751     1E8B  05E8               	andwf	___fltol@f1,f
  6752     1E8C  30FF               	movlw	255
  6753     1E8D  05E9               	andwf	___fltol@f1+1,f
  6754     1E8E  30FF               	movlw	255
  6755     1E8F  05EA               	andwf	___fltol@f1+2,f
  6756     1E90  3000               	movlw	0
  6757     1E91  05EB               	andwf	___fltol@f1+3,f
  6758     1E92                     l2921:
  6759     1E92  3096               	movlw	150
  6760     1E93  1683               	bsf	3,5	;RP0=1, select bank1
  6761     1E94  1303               	bcf	3,6	;RP1=0, select bank1
  6762     1E95  02A1               	subwf	___fltol@exp1^(0+128),f
  6763     1E96                     l2923:
  6764     1E96  1FA1               	btfss	___fltol@exp1^(0+128),7
  6765     1E97  2E99               	goto	u3351
  6766     1E98  2E9A               	goto	u3350
  6767     1E99                     u3351:
  6768     1E99  2EB6               	goto	l2933
  6769     1E9A                     u3350:
  6770     1E9A                     l2925:
  6771     1E9A  0821               	movf	___fltol@exp1^(0+128),w
  6772     1E9B  3A80               	xorlw	128
  6773     1E9C  3E97               	addlw	151
  6774     1E9D  1803               	skipnc
  6775     1E9E  2EA0               	goto	u3361
  6776     1E9F  2EA1               	goto	u3360
  6777     1EA0                     u3361:
  6778     1EA0  2EA2               	goto	l2931
  6779     1EA1                     u3360:
  6780     1EA1  2E65               	goto	l2911
  6781     1EA2                     l2931:
  6782     1EA2  3001               	movlw	1
  6783     1EA3                     u3375:
  6784     1EA3  1003               	clrc
  6785     1EA4  1283               	bcf	3,5	;RP0=0, select bank0
  6786     1EA5  1303               	bcf	3,6	;RP1=0, select bank0
  6787     1EA6  0CEB               	rrf	___fltol@f1+3,f
  6788     1EA7  0CEA               	rrf	___fltol@f1+2,f
  6789     1EA8  0CE9               	rrf	___fltol@f1+1,f
  6790     1EA9  0CE8               	rrf	___fltol@f1,f
  6791     1EAA  3EFF               	addlw	-1
  6792     1EAB  1D03               	skipz
  6793     1EAC  2EA3               	goto	u3375
  6794     1EAD  3001               	movlw	1
  6795     1EAE  1683               	bsf	3,5	;RP0=1, select bank1
  6796     1EAF  1303               	bcf	3,6	;RP1=0, select bank1
  6797     1EB0  07A1               	addwf	___fltol@exp1^(0+128),f
  6798     1EB1  1D03               	btfss	3,2
  6799     1EB2  2EB4               	goto	u3381
  6800     1EB3  2EB5               	goto	u3380
  6801     1EB4                     u3381:
  6802     1EB4  2EA2               	goto	l2931
  6803     1EB5                     u3380:
  6804     1EB5  2ED1               	goto	l2941
  6805     1EB6                     l2933:
  6806     1EB6  3020               	movlw	32
  6807     1EB7  0221               	subwf	___fltol@exp1^(0+128),w
  6808     1EB8  1C03               	skipc
  6809     1EB9  2EBB               	goto	u3391
  6810     1EBA  2EBC               	goto	u3390
  6811     1EBB                     u3391:
  6812     1EBB  2ECC               	goto	l608
  6813     1EBC                     u3390:
  6814     1EBC  2E65               	goto	l2911
  6815     1EBD                     l2939:
  6816     1EBD  3001               	movlw	1
  6817     1EBE  1283               	bcf	3,5	;RP0=0, select bank0
  6818     1EBF  1303               	bcf	3,6	;RP1=0, select bank0
  6819     1EC0  00EC               	movwf	??___fltol
  6820     1EC1                     u3405:
  6821     1EC1  1003               	clrc
  6822     1EC2  0DE8               	rlf	___fltol@f1,f
  6823     1EC3  0DE9               	rlf	___fltol@f1+1,f
  6824     1EC4  0DEA               	rlf	___fltol@f1+2,f
  6825     1EC5  0DEB               	rlf	___fltol@f1+3,f
  6826     1EC6  0BEC               	decfsz	??___fltol,f
  6827     1EC7  2EC1               	goto	u3405
  6828     1EC8  3001               	movlw	1
  6829     1EC9  1683               	bsf	3,5	;RP0=1, select bank1
  6830     1ECA  1303               	bcf	3,6	;RP1=0, select bank1
  6831     1ECB  02A1               	subwf	___fltol@exp1^(0+128),f
  6832     1ECC                     l608:
  6833     1ECC  0821               	movf	___fltol@exp1^(0+128),w
  6834     1ECD  1D03               	btfss	3,2
  6835     1ECE  2ED0               	goto	u3411
  6836     1ECF  2ED1               	goto	u3410
  6837     1ED0                     u3411:
  6838     1ED0  2EBD               	goto	l2939
  6839     1ED1                     u3410:
  6840     1ED1                     l2941:
  6841     1ED1  0820               	movf	___fltol@sign1^(0+128),w
  6842     1ED2  1903               	btfsc	3,2
  6843     1ED3  2ED5               	goto	u3421
  6844     1ED4  2ED6               	goto	u3420
  6845     1ED5                     u3421:
  6846     1ED5  2EE3               	goto	l611
  6847     1ED6                     u3420:
  6848     1ED6                     l2943:
  6849     1ED6  1283               	bcf	3,5	;RP0=0, select bank0
  6850     1ED7  1303               	bcf	3,6	;RP1=0, select bank0
  6851     1ED8  09E8               	comf	___fltol@f1,f
  6852     1ED9  09E9               	comf	___fltol@f1+1,f
  6853     1EDA  09EA               	comf	___fltol@f1+2,f
  6854     1EDB  09EB               	comf	___fltol@f1+3,f
  6855     1EDC  0AE8               	incf	___fltol@f1,f
  6856     1EDD  1903               	skipnz
  6857     1EDE  0AE9               	incf	___fltol@f1+1,f
  6858     1EDF  1903               	skipnz
  6859     1EE0  0AEA               	incf	___fltol@f1+2,f
  6860     1EE1  1903               	skipnz
  6861     1EE2  0AEB               	incf	___fltol@f1+3,f
  6862     1EE3                     l611:
  6863     1EE3                     l601:
  6864     1EE3  0008               	return
  6865     1EE4                     __end_of___fltol:
  6866                           
  6867                           	psect	text29
  6868     0CBE                     __ptext29:	
  6869 ;; *************** function ___flmul *****************
  6870 ;; Defined at:
  6871 ;;		line 8 in file "C:\Program Files\Microchip\xc8\v3.10\pic\sources\c99\common\sprcmul.c"
  6872 ;; Parameters:    Size  Location     Type
  6873 ;;  b               4   26[BANK0 ] long 
  6874 ;;  a               4   30[BANK0 ] long 
  6875 ;; Auto vars:     Size  Location     Type
  6876 ;;  prod            4   46[BANK0 ] struct .
  6877 ;;  grs             4   40[BANK0 ] unsigned long 
  6878 ;;  temp            2   50[BANK0 ] struct .
  6879 ;;  bexp            1   45[BANK0 ] unsigned char 
  6880 ;;  aexp            1   44[BANK0 ] unsigned char 
  6881 ;;  sign            1   39[BANK0 ] unsigned char 
  6882 ;; Return value:  Size  Location     Type
  6883 ;;                  4   26[BANK0 ] unsigned char 
  6884 ;; Registers used:
  6885 ;;		wreg, status,2, status,0, pclath, btemp1, cstack
  6886 ;; Tracked objects:
  6887 ;;		On entry : 0/0
  6888 ;;		On exit  : 0/0
  6889 ;;		Unchanged: 0/0
  6890 ;; Data sizes:     COMMON   BANK0   BANK1   BANK3   BANK2
  6891 ;;      Params:         0       8       0       0       0
  6892 ;;      Locals:         0      13       0       0       0
  6893 ;;      Temps:          0       5       0       0       0
  6894 ;;      Totals:         0      26       0       0       0
  6895 ;;Total ram usage:       26 bytes
  6896 ;; Hardware stack levels used: 1
  6897 ;; This function calls:
  6898 ;;		__Umul8_16
  6899 ;; This function is called by:
  6900 ;;		_SensorHumedad_ObtenerDatos
  6901 ;;		_ImprimirTemp
  6902 ;;		_main
  6903 ;; This function uses a non-reentrant model
  6904 ;;
  6905                           
  6906     0CBE                     ___flmul:	
  6907                           ;psect for function ___flmul
  6908                           
  6909     0CBE                     l3191:	
  6910                           ;incstack = 0
  6911                           ; Regs used in ___flmul: [wreg+status,2+status,0+pclath+btemp1+cstack]
  6912                           
  6913     0CBE  1283               	bcf	3,5	;RP0=0, select bank0
  6914     0CBF  1303               	bcf	3,6	;RP1=0, select bank0
  6915     0CC0  083D               	movf	___flmul@b+3,w
  6916     0CC1  00C7               	movwf	___flmul@sign
  6917     0CC2                     l3193:
  6918     0CC2  3080               	movlw	128
  6919     0CC3  05C7               	andwf	___flmul@sign,f
  6920     0CC4                     l3195:
  6921     0CC4  083D               	movf	___flmul@b+3,w
  6922     0CC5  00C2               	movwf	??___flmul
  6923     0CC6  0742               	addwf	??___flmul,w
  6924     0CC7  00CD               	movwf	___flmul@bexp
  6925     0CC8                     l3197:
  6926     0CC8  1FBC               	btfss	___flmul@b+2,7
  6927     0CC9  2CCB               	goto	u4021
  6928     0CCA  2CCC               	goto	u4020
  6929     0CCB                     u4021:
  6930     0CCB  2CCD               	goto	l3201
  6931     0CCC                     u4020:
  6932     0CCC                     l3199:
  6933     0CCC  144D               	bsf	___flmul@bexp,0
  6934     0CCD                     l3201:
  6935     0CCD  084D               	movf	___flmul@bexp,w
  6936     0CCE  1903               	btfsc	3,2
  6937     0CCF  2CD1               	goto	u4031
  6938     0CD0  2CD2               	goto	u4030
  6939     0CD1                     u4031:
  6940     0CD1  2CE1               	goto	l3209
  6941     0CD2                     u4030:
  6942     0CD2                     l3203:
  6943     0CD2  0A4D               	incf	___flmul@bexp,w
  6944     0CD3  1D03               	btfss	3,2
  6945     0CD4  2CD6               	goto	u4041
  6946     0CD5  2CD7               	goto	u4040
  6947     0CD6                     u4041:
  6948     0CD6  2CDF               	goto	l3207
  6949     0CD7                     u4040:
  6950     0CD7                     l3205:
  6951     0CD7  3000               	movlw	0
  6952     0CD8  00BD               	movwf	___flmul@b+3
  6953     0CD9  3000               	movlw	0
  6954     0CDA  00BC               	movwf	___flmul@b+2
  6955     0CDB  3000               	movlw	0
  6956     0CDC  00BB               	movwf	___flmul@b+1
  6957     0CDD  3000               	movlw	0
  6958     0CDE  00BA               	movwf	___flmul@b
  6959     0CDF                     l3207:
  6960     0CDF  17BC               	bsf	___flmul@b+2,7
  6961     0CE0  2CE9               	goto	l3211
  6962     0CE1                     l3209:
  6963     0CE1  3000               	movlw	0
  6964     0CE2  00BD               	movwf	___flmul@b+3
  6965     0CE3  3000               	movlw	0
  6966     0CE4  00BC               	movwf	___flmul@b+2
  6967     0CE5  3000               	movlw	0
  6968     0CE6  00BB               	movwf	___flmul@b+1
  6969     0CE7  3000               	movlw	0
  6970     0CE8  00BA               	movwf	___flmul@b
  6971     0CE9                     l3211:
  6972     0CE9  0841               	movf	___flmul@a+3,w
  6973     0CEA  3980               	andlw	128
  6974     0CEB  06C7               	xorwf	___flmul@sign,f
  6975     0CEC                     l3213:
  6976     0CEC  0841               	movf	___flmul@a+3,w
  6977     0CED  00C2               	movwf	??___flmul
  6978     0CEE  0742               	addwf	??___flmul,w
  6979     0CEF  00CC               	movwf	___flmul@aexp
  6980     0CF0                     l3215:
  6981     0CF0  1FC0               	btfss	___flmul@a+2,7
  6982     0CF1  2CF3               	goto	u4051
  6983     0CF2  2CF4               	goto	u4050
  6984     0CF3                     u4051:
  6985     0CF3  2CF5               	goto	l3219
  6986     0CF4                     u4050:
  6987     0CF4                     l3217:
  6988     0CF4  144C               	bsf	___flmul@aexp,0
  6989     0CF5                     l3219:
  6990     0CF5  084C               	movf	___flmul@aexp,w
  6991     0CF6  1903               	btfsc	3,2
  6992     0CF7  2CF9               	goto	u4061
  6993     0CF8  2CFA               	goto	u4060
  6994     0CF9                     u4061:
  6995     0CF9  2D09               	goto	l3227
  6996     0CFA                     u4060:
  6997     0CFA                     l3221:
  6998     0CFA  0A4C               	incf	___flmul@aexp,w
  6999     0CFB  1D03               	btfss	3,2
  7000     0CFC  2CFE               	goto	u4071
  7001     0CFD  2CFF               	goto	u4070
  7002     0CFE                     u4071:
  7003     0CFE  2D07               	goto	l3225
  7004     0CFF                     u4070:
  7005     0CFF                     l3223:
  7006     0CFF  3000               	movlw	0
  7007     0D00  00C1               	movwf	___flmul@a+3
  7008     0D01  3000               	movlw	0
  7009     0D02  00C0               	movwf	___flmul@a+2
  7010     0D03  3000               	movlw	0
  7011     0D04  00BF               	movwf	___flmul@a+1
  7012     0D05  3000               	movlw	0
  7013     0D06  00BE               	movwf	___flmul@a
  7014     0D07                     l3225:
  7015     0D07  17C0               	bsf	___flmul@a+2,7
  7016     0D08  2D11               	goto	l3229
  7017     0D09                     l3227:
  7018     0D09  3000               	movlw	0
  7019     0D0A  00C1               	movwf	___flmul@a+3
  7020     0D0B  3000               	movlw	0
  7021     0D0C  00C0               	movwf	___flmul@a+2
  7022     0D0D  3000               	movlw	0
  7023     0D0E  00BF               	movwf	___flmul@a+1
  7024     0D0F  3000               	movlw	0
  7025     0D10  00BE               	movwf	___flmul@a
  7026     0D11                     l3229:
  7027     0D11  084C               	movf	___flmul@aexp,w
  7028     0D12  1903               	btfsc	3,2
  7029     0D13  2D15               	goto	u4081
  7030     0D14  2D16               	goto	u4080
  7031     0D15                     u4081:
  7032     0D15  2D1B               	goto	l3233
  7033     0D16                     u4080:
  7034     0D16                     l3231:
  7035     0D16  084D               	movf	___flmul@bexp,w
  7036     0D17  1D03               	btfss	3,2
  7037     0D18  2D1A               	goto	u4091
  7038     0D19  2D1B               	goto	u4090
  7039     0D1A                     u4091:
  7040     0D1A  2D24               	goto	l3237
  7041     0D1B                     u4090:
  7042     0D1B                     l3233:
  7043     0D1B  3000               	movlw	0
  7044     0D1C  00BD               	movwf	?___flmul+3
  7045     0D1D  3000               	movlw	0
  7046     0D1E  00BC               	movwf	?___flmul+2
  7047     0D1F  3000               	movlw	0
  7048     0D20  00BB               	movwf	?___flmul+1
  7049     0D21  3000               	movlw	0
  7050     0D22  00BA               	movwf	?___flmul
  7051     0D23  2FFF               	goto	l804
  7052     0D24                     l3237:
  7053     0D24  083A               	movf	___flmul@b,w
  7054     0D25  00F0               	movwf	__Umul8_16@multiplicand
  7055     0D26  0840               	movf	___flmul@a+2,w
  7056     0D27  160A  158A  2351  120A  158A  	fcall	__Umul8_16
  7057     0D2C  0871               	movf	?__Umul8_16+1,w
  7058     0D2D  1283               	bcf	3,5	;RP0=0, select bank0
  7059     0D2E  1303               	bcf	3,6	;RP1=0, select bank0
  7060     0D2F  00D3               	movwf	___flmul@temp+1
  7061     0D30  0870               	movf	?__Umul8_16,w
  7062     0D31  00D2               	movwf	___flmul@temp
  7063     0D32                     l3239:
  7064     0D32  0852               	movf	___flmul@temp,w
  7065     0D33  00C2               	movwf	??___flmul
  7066     0D34  01C3               	clrf	??___flmul+1
  7067     0D35  01C4               	clrf	??___flmul+2
  7068     0D36  01C5               	clrf	??___flmul+3
  7069     0D37  0845               	movf	??___flmul+3,w
  7070     0D38  00CB               	movwf	___flmul@grs+3
  7071     0D39  0844               	movf	??___flmul+2,w
  7072     0D3A  00CA               	movwf	___flmul@grs+2
  7073     0D3B  0843               	movf	??___flmul+1,w
  7074     0D3C  00C9               	movwf	___flmul@grs+1
  7075     0D3D  0842               	movf	??___flmul,w
  7076     0D3E  00C8               	movwf	___flmul@grs
  7077     0D3F                     l3241:
  7078     0D3F  0853               	movf	___flmul@temp+1,w
  7079     0D40  00C2               	movwf	??___flmul
  7080     0D41  01C3               	clrf	??___flmul+1
  7081     0D42  01C4               	clrf	??___flmul+2
  7082     0D43  01C5               	clrf	??___flmul+3
  7083     0D44  0845               	movf	??___flmul+3,w
  7084     0D45  00D1               	movwf	___flmul@prod+3
  7085     0D46  0844               	movf	??___flmul+2,w
  7086     0D47  00D0               	movwf	___flmul@prod+2
  7087     0D48  0843               	movf	??___flmul+1,w
  7088     0D49  00CF               	movwf	___flmul@prod+1
  7089     0D4A  0842               	movf	??___flmul,w
  7090     0D4B  00CE               	movwf	___flmul@prod
  7091     0D4C  083B               	movf	___flmul@b+1,w
  7092     0D4D  00F0               	movwf	__Umul8_16@multiplicand
  7093     0D4E  083F               	movf	___flmul@a+1,w
  7094     0D4F  160A  158A  2351  120A  158A  	fcall	__Umul8_16
  7095     0D54  0871               	movf	?__Umul8_16+1,w
  7096     0D55  1283               	bcf	3,5	;RP0=0, select bank0
  7097     0D56  1303               	bcf	3,6	;RP1=0, select bank0
  7098     0D57  00D3               	movwf	___flmul@temp+1
  7099     0D58  0870               	movf	?__Umul8_16,w
  7100     0D59  00D2               	movwf	___flmul@temp
  7101     0D5A                     l3243:
  7102     0D5A  0852               	movf	___flmul@temp,w
  7103     0D5B  00C2               	movwf	??___flmul
  7104     0D5C  01C3               	clrf	??___flmul+1
  7105     0D5D  01C4               	clrf	??___flmul+2
  7106     0D5E  01C5               	clrf	??___flmul+3
  7107     0D5F  0842               	movf	??___flmul,w
  7108     0D60  07C8               	addwf	___flmul@grs,f
  7109     0D61  0843               	movf	??___flmul+1,w
  7110     0D62  1103               	clrz
  7111     0D63  1803               	skipnc
  7112     0D64  3E01               	addlw	1
  7113     0D65  1903               	skipnz
  7114     0D66  2D68               	goto	u4101
  7115     0D67  07C9               	addwf	___flmul@grs+1,f
  7116     0D68                     u4101:
  7117     0D68  0844               	movf	??___flmul+2,w
  7118     0D69  1103               	clrz
  7119     0D6A  1803               	skipnc
  7120     0D6B  3E01               	addlw	1
  7121     0D6C  1903               	skipnz
  7122     0D6D  2D6F               	goto	u4102
  7123     0D6E  07CA               	addwf	___flmul@grs+2,f
  7124     0D6F                     u4102:
  7125     0D6F  0845               	movf	??___flmul+3,w
  7126     0D70  1103               	clrz
  7127     0D71  1803               	skipnc
  7128     0D72  3E01               	addlw	1
  7129     0D73  1903               	skipnz
  7130     0D74  2D76               	goto	u4103
  7131     0D75  07CB               	addwf	___flmul@grs+3,f
  7132     0D76                     u4103:
  7133     0D76                     l3245:
  7134     0D76  0853               	movf	___flmul@temp+1,w
  7135     0D77  00C2               	movwf	??___flmul
  7136     0D78  01C3               	clrf	??___flmul+1
  7137     0D79  01C4               	clrf	??___flmul+2
  7138     0D7A  01C5               	clrf	??___flmul+3
  7139     0D7B  0842               	movf	??___flmul,w
  7140     0D7C  07CE               	addwf	___flmul@prod,f
  7141     0D7D  0843               	movf	??___flmul+1,w
  7142     0D7E  1103               	clrz
  7143     0D7F  1803               	skipnc
  7144     0D80  3E01               	addlw	1
  7145     0D81  1903               	skipnz
  7146     0D82  2D84               	goto	u4111
  7147     0D83  07CF               	addwf	___flmul@prod+1,f
  7148     0D84                     u4111:
  7149     0D84  0844               	movf	??___flmul+2,w
  7150     0D85  1103               	clrz
  7151     0D86  1803               	skipnc
  7152     0D87  3E01               	addlw	1
  7153     0D88  1903               	skipnz
  7154     0D89  2D8B               	goto	u4112
  7155     0D8A  07D0               	addwf	___flmul@prod+2,f
  7156     0D8B                     u4112:
  7157     0D8B  0845               	movf	??___flmul+3,w
  7158     0D8C  1103               	clrz
  7159     0D8D  1803               	skipnc
  7160     0D8E  3E01               	addlw	1
  7161     0D8F  1903               	skipnz
  7162     0D90  2D92               	goto	u4113
  7163     0D91  07D1               	addwf	___flmul@prod+3,f
  7164     0D92                     u4113:
  7165     0D92  083C               	movf	___flmul@b+2,w
  7166     0D93  00F0               	movwf	__Umul8_16@multiplicand
  7167     0D94  083E               	movf	___flmul@a,w
  7168     0D95  160A  158A  2351  120A  158A  	fcall	__Umul8_16
  7169     0D9A  0871               	movf	?__Umul8_16+1,w
  7170     0D9B  1283               	bcf	3,5	;RP0=0, select bank0
  7171     0D9C  1303               	bcf	3,6	;RP1=0, select bank0
  7172     0D9D  00D3               	movwf	___flmul@temp+1
  7173     0D9E  0870               	movf	?__Umul8_16,w
  7174     0D9F  00D2               	movwf	___flmul@temp
  7175     0DA0                     l3247:
  7176     0DA0  0852               	movf	___flmul@temp,w
  7177     0DA1  00C2               	movwf	??___flmul
  7178     0DA2  01C3               	clrf	??___flmul+1
  7179     0DA3  01C4               	clrf	??___flmul+2
  7180     0DA4  01C5               	clrf	??___flmul+3
  7181     0DA5  0842               	movf	??___flmul,w
  7182     0DA6  07C8               	addwf	___flmul@grs,f
  7183     0DA7  0843               	movf	??___flmul+1,w
  7184     0DA8  1103               	clrz
  7185     0DA9  1803               	skipnc
  7186     0DAA  3E01               	addlw	1
  7187     0DAB  1903               	skipnz
  7188     0DAC  2DAE               	goto	u4121
  7189     0DAD  07C9               	addwf	___flmul@grs+1,f
  7190     0DAE                     u4121:
  7191     0DAE  0844               	movf	??___flmul+2,w
  7192     0DAF  1103               	clrz
  7193     0DB0  1803               	skipnc
  7194     0DB1  3E01               	addlw	1
  7195     0DB2  1903               	skipnz
  7196     0DB3  2DB5               	goto	u4122
  7197     0DB4  07CA               	addwf	___flmul@grs+2,f
  7198     0DB5                     u4122:
  7199     0DB5  0845               	movf	??___flmul+3,w
  7200     0DB6  1103               	clrz
  7201     0DB7  1803               	skipnc
  7202     0DB8  3E01               	addlw	1
  7203     0DB9  1903               	skipnz
  7204     0DBA  2DBC               	goto	u4123
  7205     0DBB  07CB               	addwf	___flmul@grs+3,f
  7206     0DBC                     u4123:
  7207     0DBC                     l3249:
  7208     0DBC  0853               	movf	___flmul@temp+1,w
  7209     0DBD  00C2               	movwf	??___flmul
  7210     0DBE  01C3               	clrf	??___flmul+1
  7211     0DBF  01C4               	clrf	??___flmul+2
  7212     0DC0  01C5               	clrf	??___flmul+3
  7213     0DC1  0842               	movf	??___flmul,w
  7214     0DC2  07CE               	addwf	___flmul@prod,f
  7215     0DC3  0843               	movf	??___flmul+1,w
  7216     0DC4  1103               	clrz
  7217     0DC5  1803               	skipnc
  7218     0DC6  3E01               	addlw	1
  7219     0DC7  1903               	skipnz
  7220     0DC8  2DCA               	goto	u4131
  7221     0DC9  07CF               	addwf	___flmul@prod+1,f
  7222     0DCA                     u4131:
  7223     0DCA  0844               	movf	??___flmul+2,w
  7224     0DCB  1103               	clrz
  7225     0DCC  1803               	skipnc
  7226     0DCD  3E01               	addlw	1
  7227     0DCE  1903               	skipnz
  7228     0DCF  2DD1               	goto	u4132
  7229     0DD0  07D0               	addwf	___flmul@prod+2,f
  7230     0DD1                     u4132:
  7231     0DD1  0845               	movf	??___flmul+3,w
  7232     0DD2  1103               	clrz
  7233     0DD3  1803               	skipnc
  7234     0DD4  3E01               	addlw	1
  7235     0DD5  1903               	skipnz
  7236     0DD6  2DD8               	goto	u4133
  7237     0DD7  07D1               	addwf	___flmul@prod+3,f
  7238     0DD8                     u4133:
  7239     0DD8                     l3251:
  7240     0DD8  3008               	movlw	8
  7241     0DD9  00C2               	movwf	??___flmul
  7242     0DDA                     u4145:
  7243     0DDA  1003               	clrc
  7244     0DDB  0DC8               	rlf	___flmul@grs,f
  7245     0DDC  0DC9               	rlf	___flmul@grs+1,f
  7246     0DDD  0DCA               	rlf	___flmul@grs+2,f
  7247     0DDE  0DCB               	rlf	___flmul@grs+3,f
  7248     0DDF  0BC2               	decfsz	??___flmul,f
  7249     0DE0  2DDA               	goto	u4145
  7250     0DE1                     l3253:
  7251     0DE1  083B               	movf	___flmul@b+1,w
  7252     0DE2  00F0               	movwf	__Umul8_16@multiplicand
  7253     0DE3  083E               	movf	___flmul@a,w
  7254     0DE4  160A  158A  2351  120A  158A  	fcall	__Umul8_16
  7255     0DE9  0871               	movf	?__Umul8_16+1,w
  7256     0DEA  1283               	bcf	3,5	;RP0=0, select bank0
  7257     0DEB  1303               	bcf	3,6	;RP1=0, select bank0
  7258     0DEC  00D3               	movwf	___flmul@temp+1
  7259     0DED  0870               	movf	?__Umul8_16,w
  7260     0DEE  00D2               	movwf	___flmul@temp
  7261     0DEF                     l3255:
  7262     0DEF  0852               	movf	___flmul@temp,w
  7263     0DF0  00C2               	movwf	??___flmul
  7264     0DF1  0853               	movf	___flmul@temp+1,w
  7265     0DF2  00C3               	movwf	??___flmul+1
  7266     0DF3  01C4               	clrf	??___flmul+2
  7267     0DF4  01C5               	clrf	??___flmul+3
  7268     0DF5  0842               	movf	??___flmul,w
  7269     0DF6  07C8               	addwf	___flmul@grs,f
  7270     0DF7  0843               	movf	??___flmul+1,w
  7271     0DF8  1103               	clrz
  7272     0DF9  1803               	skipnc
  7273     0DFA  3E01               	addlw	1
  7274     0DFB  1903               	skipnz
  7275     0DFC  2DFE               	goto	u4151
  7276     0DFD  07C9               	addwf	___flmul@grs+1,f
  7277     0DFE                     u4151:
  7278     0DFE  0844               	movf	??___flmul+2,w
  7279     0DFF  1103               	clrz
  7280     0E00  1803               	skipnc
  7281     0E01  3E01               	addlw	1
  7282     0E02  1903               	skipnz
  7283     0E03  2E05               	goto	u4152
  7284     0E04  07CA               	addwf	___flmul@grs+2,f
  7285     0E05                     u4152:
  7286     0E05  0845               	movf	??___flmul+3,w
  7287     0E06  1103               	clrz
  7288     0E07  1803               	skipnc
  7289     0E08  3E01               	addlw	1
  7290     0E09  1903               	skipnz
  7291     0E0A  2E0C               	goto	u4153
  7292     0E0B  07CB               	addwf	___flmul@grs+3,f
  7293     0E0C                     u4153:
  7294     0E0C                     l3257:
  7295     0E0C  083A               	movf	___flmul@b,w
  7296     0E0D  00F0               	movwf	__Umul8_16@multiplicand
  7297     0E0E  083F               	movf	___flmul@a+1,w
  7298     0E0F  160A  158A  2351  120A  158A  	fcall	__Umul8_16
  7299     0E14  0871               	movf	?__Umul8_16+1,w
  7300     0E15  1283               	bcf	3,5	;RP0=0, select bank0
  7301     0E16  1303               	bcf	3,6	;RP1=0, select bank0
  7302     0E17  00D3               	movwf	___flmul@temp+1
  7303     0E18  0870               	movf	?__Umul8_16,w
  7304     0E19  00D2               	movwf	___flmul@temp
  7305     0E1A                     l3259:
  7306     0E1A  0852               	movf	___flmul@temp,w
  7307     0E1B  00C2               	movwf	??___flmul
  7308     0E1C  0853               	movf	___flmul@temp+1,w
  7309     0E1D  00C3               	movwf	??___flmul+1
  7310     0E1E  01C4               	clrf	??___flmul+2
  7311     0E1F  01C5               	clrf	??___flmul+3
  7312     0E20  0842               	movf	??___flmul,w
  7313     0E21  07C8               	addwf	___flmul@grs,f
  7314     0E22  0843               	movf	??___flmul+1,w
  7315     0E23  1103               	clrz
  7316     0E24  1803               	skipnc
  7317     0E25  3E01               	addlw	1
  7318     0E26  1903               	skipnz
  7319     0E27  2E29               	goto	u4161
  7320     0E28  07C9               	addwf	___flmul@grs+1,f
  7321     0E29                     u4161:
  7322     0E29  0844               	movf	??___flmul+2,w
  7323     0E2A  1103               	clrz
  7324     0E2B  1803               	skipnc
  7325     0E2C  3E01               	addlw	1
  7326     0E2D  1903               	skipnz
  7327     0E2E  2E30               	goto	u4162
  7328     0E2F  07CA               	addwf	___flmul@grs+2,f
  7329     0E30                     u4162:
  7330     0E30  0845               	movf	??___flmul+3,w
  7331     0E31  1103               	clrz
  7332     0E32  1803               	skipnc
  7333     0E33  3E01               	addlw	1
  7334     0E34  1903               	skipnz
  7335     0E35  2E37               	goto	u4163
  7336     0E36  07CB               	addwf	___flmul@grs+3,f
  7337     0E37                     u4163:
  7338     0E37                     l3261:
  7339     0E37  3008               	movlw	8
  7340     0E38  00C2               	movwf	??___flmul
  7341     0E39                     u4175:
  7342     0E39  1003               	clrc
  7343     0E3A  0DC8               	rlf	___flmul@grs,f
  7344     0E3B  0DC9               	rlf	___flmul@grs+1,f
  7345     0E3C  0DCA               	rlf	___flmul@grs+2,f
  7346     0E3D  0DCB               	rlf	___flmul@grs+3,f
  7347     0E3E  0BC2               	decfsz	??___flmul,f
  7348     0E3F  2E39               	goto	u4175
  7349     0E40  083A               	movf	___flmul@b,w
  7350     0E41  00F0               	movwf	__Umul8_16@multiplicand
  7351     0E42  083E               	movf	___flmul@a,w
  7352     0E43  160A  158A  2351  120A  158A  	fcall	__Umul8_16
  7353     0E48  0871               	movf	?__Umul8_16+1,w
  7354     0E49  1283               	bcf	3,5	;RP0=0, select bank0
  7355     0E4A  1303               	bcf	3,6	;RP1=0, select bank0
  7356     0E4B  00D3               	movwf	___flmul@temp+1
  7357     0E4C  0870               	movf	?__Umul8_16,w
  7358     0E4D  00D2               	movwf	___flmul@temp
  7359     0E4E                     l3263:
  7360     0E4E  0852               	movf	___flmul@temp,w
  7361     0E4F  00C2               	movwf	??___flmul
  7362     0E50  0853               	movf	___flmul@temp+1,w
  7363     0E51  00C3               	movwf	??___flmul+1
  7364     0E52  01C4               	clrf	??___flmul+2
  7365     0E53  01C5               	clrf	??___flmul+3
  7366     0E54  0842               	movf	??___flmul,w
  7367     0E55  07C8               	addwf	___flmul@grs,f
  7368     0E56  0843               	movf	??___flmul+1,w
  7369     0E57  1103               	clrz
  7370     0E58  1803               	skipnc
  7371     0E59  3E01               	addlw	1
  7372     0E5A  1903               	skipnz
  7373     0E5B  2E5D               	goto	u4181
  7374     0E5C  07C9               	addwf	___flmul@grs+1,f
  7375     0E5D                     u4181:
  7376     0E5D  0844               	movf	??___flmul+2,w
  7377     0E5E  1103               	clrz
  7378     0E5F  1803               	skipnc
  7379     0E60  3E01               	addlw	1
  7380     0E61  1903               	skipnz
  7381     0E62  2E64               	goto	u4182
  7382     0E63  07CA               	addwf	___flmul@grs+2,f
  7383     0E64                     u4182:
  7384     0E64  0845               	movf	??___flmul+3,w
  7385     0E65  1103               	clrz
  7386     0E66  1803               	skipnc
  7387     0E67  3E01               	addlw	1
  7388     0E68  1903               	skipnz
  7389     0E69  2E6B               	goto	u4183
  7390     0E6A  07CB               	addwf	___flmul@grs+3,f
  7391     0E6B                     u4183:
  7392     0E6B                     l3265:
  7393     0E6B  083B               	movf	___flmul@b+1,w
  7394     0E6C  00F0               	movwf	__Umul8_16@multiplicand
  7395     0E6D  0840               	movf	___flmul@a+2,w
  7396     0E6E  160A  158A  2351  120A  158A  	fcall	__Umul8_16
  7397     0E73  0871               	movf	?__Umul8_16+1,w
  7398     0E74  1283               	bcf	3,5	;RP0=0, select bank0
  7399     0E75  1303               	bcf	3,6	;RP1=0, select bank0
  7400     0E76  00D3               	movwf	___flmul@temp+1
  7401     0E77  0870               	movf	?__Umul8_16,w
  7402     0E78  00D2               	movwf	___flmul@temp
  7403     0E79  0852               	movf	___flmul@temp,w
  7404     0E7A  00C2               	movwf	??___flmul
  7405     0E7B  0853               	movf	___flmul@temp+1,w
  7406     0E7C  00C3               	movwf	??___flmul+1
  7407     0E7D  01C4               	clrf	??___flmul+2
  7408     0E7E  01C5               	clrf	??___flmul+3
  7409     0E7F  0842               	movf	??___flmul,w
  7410     0E80  07CE               	addwf	___flmul@prod,f
  7411     0E81  0843               	movf	??___flmul+1,w
  7412     0E82  1103               	clrz
  7413     0E83  1803               	skipnc
  7414     0E84  3E01               	addlw	1
  7415     0E85  1903               	skipnz
  7416     0E86  2E88               	goto	u4191
  7417     0E87  07CF               	addwf	___flmul@prod+1,f
  7418     0E88                     u4191:
  7419     0E88  0844               	movf	??___flmul+2,w
  7420     0E89  1103               	clrz
  7421     0E8A  1803               	skipnc
  7422     0E8B  3E01               	addlw	1
  7423     0E8C  1903               	skipnz
  7424     0E8D  2E8F               	goto	u4192
  7425     0E8E  07D0               	addwf	___flmul@prod+2,f
  7426     0E8F                     u4192:
  7427     0E8F  0845               	movf	??___flmul+3,w
  7428     0E90  1103               	clrz
  7429     0E91  1803               	skipnc
  7430     0E92  3E01               	addlw	1
  7431     0E93  1903               	skipnz
  7432     0E94  2E96               	goto	u4193
  7433     0E95  07D1               	addwf	___flmul@prod+3,f
  7434     0E96                     u4193:
  7435     0E96                     l3267:
  7436     0E96  083C               	movf	___flmul@b+2,w
  7437     0E97  00F0               	movwf	__Umul8_16@multiplicand
  7438     0E98  083F               	movf	___flmul@a+1,w
  7439     0E99  160A  158A  2351  120A  158A  	fcall	__Umul8_16
  7440     0E9E  0871               	movf	?__Umul8_16+1,w
  7441     0E9F  1283               	bcf	3,5	;RP0=0, select bank0
  7442     0EA0  1303               	bcf	3,6	;RP1=0, select bank0
  7443     0EA1  00D3               	movwf	___flmul@temp+1
  7444     0EA2  0870               	movf	?__Umul8_16,w
  7445     0EA3  00D2               	movwf	___flmul@temp
  7446     0EA4                     l3269:
  7447     0EA4  0852               	movf	___flmul@temp,w
  7448     0EA5  00C2               	movwf	??___flmul
  7449     0EA6  0853               	movf	___flmul@temp+1,w
  7450     0EA7  00C3               	movwf	??___flmul+1
  7451     0EA8  01C4               	clrf	??___flmul+2
  7452     0EA9  01C5               	clrf	??___flmul+3
  7453     0EAA  0842               	movf	??___flmul,w
  7454     0EAB  07CE               	addwf	___flmul@prod,f
  7455     0EAC  0843               	movf	??___flmul+1,w
  7456     0EAD  1103               	clrz
  7457     0EAE  1803               	skipnc
  7458     0EAF  3E01               	addlw	1
  7459     0EB0  1903               	skipnz
  7460     0EB1  2EB3               	goto	u4201
  7461     0EB2  07CF               	addwf	___flmul@prod+1,f
  7462     0EB3                     u4201:
  7463     0EB3  0844               	movf	??___flmul+2,w
  7464     0EB4  1103               	clrz
  7465     0EB5  1803               	skipnc
  7466     0EB6  3E01               	addlw	1
  7467     0EB7  1903               	skipnz
  7468     0EB8  2EBA               	goto	u4202
  7469     0EB9  07D0               	addwf	___flmul@prod+2,f
  7470     0EBA                     u4202:
  7471     0EBA  0845               	movf	??___flmul+3,w
  7472     0EBB  1103               	clrz
  7473     0EBC  1803               	skipnc
  7474     0EBD  3E01               	addlw	1
  7475     0EBE  1903               	skipnz
  7476     0EBF  2EC1               	goto	u4203
  7477     0EC0  07D1               	addwf	___flmul@prod+3,f
  7478     0EC1                     u4203:
  7479     0EC1  083C               	movf	___flmul@b+2,w
  7480     0EC2  00F0               	movwf	__Umul8_16@multiplicand
  7481     0EC3  0840               	movf	___flmul@a+2,w
  7482     0EC4  160A  158A  2351  120A  158A  	fcall	__Umul8_16
  7483     0EC9  0871               	movf	?__Umul8_16+1,w
  7484     0ECA  1283               	bcf	3,5	;RP0=0, select bank0
  7485     0ECB  1303               	bcf	3,6	;RP1=0, select bank0
  7486     0ECC  00D3               	movwf	___flmul@temp+1
  7487     0ECD  0870               	movf	?__Umul8_16,w
  7488     0ECE  00D2               	movwf	___flmul@temp
  7489     0ECF                     l3271:
  7490     0ECF  0852               	movf	___flmul@temp,w
  7491     0ED0  00C2               	movwf	??___flmul
  7492     0ED1  0853               	movf	___flmul@temp+1,w
  7493     0ED2  00C3               	movwf	??___flmul+1
  7494     0ED3  01C4               	clrf	??___flmul+2
  7495     0ED4  01C5               	clrf	??___flmul+3
  7496     0ED5  3008               	movlw	8
  7497     0ED6                     u4215:
  7498     0ED6  1003               	clrc
  7499     0ED7  0DC2               	rlf	??___flmul,f
  7500     0ED8  0DC3               	rlf	??___flmul+1,f
  7501     0ED9  0DC4               	rlf	??___flmul+2,f
  7502     0EDA  0DC5               	rlf	??___flmul+3,f
  7503     0EDB                     u4210:
  7504     0EDB  3EFF               	addlw	-1
  7505     0EDC  1D03               	skipz
  7506     0EDD  2ED6               	goto	u4215
  7507     0EDE  0842               	movf	??___flmul,w
  7508     0EDF  07CE               	addwf	___flmul@prod,f
  7509     0EE0  0843               	movf	??___flmul+1,w
  7510     0EE1  1103               	clrz
  7511     0EE2  1803               	skipnc
  7512     0EE3  3E01               	addlw	1
  7513     0EE4  1903               	skipnz
  7514     0EE5  2EE7               	goto	u4221
  7515     0EE6  07CF               	addwf	___flmul@prod+1,f
  7516     0EE7                     u4221:
  7517     0EE7  0844               	movf	??___flmul+2,w
  7518     0EE8  1103               	clrz
  7519     0EE9  1803               	skipnc
  7520     0EEA  3E01               	addlw	1
  7521     0EEB  1903               	skipnz
  7522     0EEC  2EEE               	goto	u4222
  7523     0EED  07D0               	addwf	___flmul@prod+2,f
  7524     0EEE                     u4222:
  7525     0EEE  0845               	movf	??___flmul+3,w
  7526     0EEF  1103               	clrz
  7527     0EF0  1803               	skipnc
  7528     0EF1  3E01               	addlw	1
  7529     0EF2  1903               	skipnz
  7530     0EF3  2EF5               	goto	u4223
  7531     0EF4  07D1               	addwf	___flmul@prod+3,f
  7532     0EF5                     u4223:
  7533     0EF5                     l3273:
  7534     0EF5  0848               	movf	___flmul@grs,w
  7535     0EF6  00C2               	movwf	??___flmul
  7536     0EF7  0849               	movf	___flmul@grs+1,w
  7537     0EF8  00C3               	movwf	??___flmul+1
  7538     0EF9  084A               	movf	___flmul@grs+2,w
  7539     0EFA  00C4               	movwf	??___flmul+2
  7540     0EFB  084B               	movf	___flmul@grs+3,w
  7541     0EFC  00C5               	movwf	??___flmul+3
  7542     0EFD  3018               	movlw	24
  7543     0EFE                     u4235:
  7544     0EFE  1003               	clrc
  7545     0EFF  0CC5               	rrf	??___flmul+3,f
  7546     0F00  0CC4               	rrf	??___flmul+2,f
  7547     0F01  0CC3               	rrf	??___flmul+1,f
  7548     0F02  0CC2               	rrf	??___flmul,f
  7549     0F03                     u4230:
  7550     0F03  3EFF               	addlw	-1
  7551     0F04  1D03               	skipz
  7552     0F05  2EFE               	goto	u4235
  7553     0F06  0842               	movf	??___flmul,w
  7554     0F07  07CE               	addwf	___flmul@prod,f
  7555     0F08  0843               	movf	??___flmul+1,w
  7556     0F09  1103               	clrz
  7557     0F0A  1803               	skipnc
  7558     0F0B  3E01               	addlw	1
  7559     0F0C  1903               	skipnz
  7560     0F0D  2F0F               	goto	u4241
  7561     0F0E  07CF               	addwf	___flmul@prod+1,f
  7562     0F0F                     u4241:
  7563     0F0F  0844               	movf	??___flmul+2,w
  7564     0F10  1103               	clrz
  7565     0F11  1803               	skipnc
  7566     0F12  3E01               	addlw	1
  7567     0F13  1903               	skipnz
  7568     0F14  2F16               	goto	u4242
  7569     0F15  07D0               	addwf	___flmul@prod+2,f
  7570     0F16                     u4242:
  7571     0F16  0845               	movf	??___flmul+3,w
  7572     0F17  1103               	clrz
  7573     0F18  1803               	skipnc
  7574     0F19  3E01               	addlw	1
  7575     0F1A  1903               	skipnz
  7576     0F1B  2F1D               	goto	u4243
  7577     0F1C  07D1               	addwf	___flmul@prod+3,f
  7578     0F1D                     u4243:
  7579     0F1D                     l3275:
  7580     0F1D  3008               	movlw	8
  7581     0F1E  00C2               	movwf	??___flmul
  7582     0F1F                     u4255:
  7583     0F1F  1003               	clrc
  7584     0F20  0DC8               	rlf	___flmul@grs,f
  7585     0F21  0DC9               	rlf	___flmul@grs+1,f
  7586     0F22  0DCA               	rlf	___flmul@grs+2,f
  7587     0F23  0DCB               	rlf	___flmul@grs+3,f
  7588     0F24  0BC2               	decfsz	??___flmul,f
  7589     0F25  2F1F               	goto	u4255
  7590     0F26                     l3277:
  7591     0F26  084D               	movf	___flmul@bexp,w
  7592     0F27  074C               	addwf	___flmul@aexp,w
  7593     0F28  00C2               	movwf	??___flmul
  7594     0F29  01C3               	clrf	??___flmul+1
  7595     0F2A  0DC3               	rlf	??___flmul+1,f
  7596     0F2B  0842               	movf	??___flmul,w
  7597     0F2C  3E82               	addlw	130
  7598     0F2D  00D2               	movwf	___flmul@temp
  7599     0F2E  0843               	movf	??___flmul+1,w
  7600     0F2F  1803               	skipnc
  7601     0F30  3E01               	addlw	1
  7602     0F31  3EFF               	addlw	255
  7603     0F32  00D3               	movwf	___flmul@temp+1
  7604     0F33  2F51               	goto	l3289
  7605     0F34                     l3279:
  7606     0F34  3001               	movlw	1
  7607     0F35  00C2               	movwf	??___flmul
  7608     0F36                     u4265:
  7609     0F36  1003               	clrc
  7610     0F37  0DCE               	rlf	___flmul@prod,f
  7611     0F38  0DCF               	rlf	___flmul@prod+1,f
  7612     0F39  0DD0               	rlf	___flmul@prod+2,f
  7613     0F3A  0DD1               	rlf	___flmul@prod+3,f
  7614     0F3B  0BC2               	decfsz	??___flmul,f
  7615     0F3C  2F36               	goto	u4265
  7616     0F3D                     l3281:
  7617     0F3D  1FCB               	btfss	___flmul@grs+3,7
  7618     0F3E  2F40               	goto	u4271
  7619     0F3F  2F41               	goto	u4270
  7620     0F40                     u4271:
  7621     0F40  2F42               	goto	l3285
  7622     0F41                     u4270:
  7623     0F41                     l3283:
  7624     0F41  144E               	bsf	___flmul@prod,0
  7625     0F42                     l3285:
  7626     0F42  3001               	movlw	1
  7627     0F43  00C2               	movwf	??___flmul
  7628     0F44                     u4285:
  7629     0F44  1003               	clrc
  7630     0F45  0DC8               	rlf	___flmul@grs,f
  7631     0F46  0DC9               	rlf	___flmul@grs+1,f
  7632     0F47  0DCA               	rlf	___flmul@grs+2,f
  7633     0F48  0DCB               	rlf	___flmul@grs+3,f
  7634     0F49  0BC2               	decfsz	??___flmul,f
  7635     0F4A  2F44               	goto	u4285
  7636     0F4B                     l3287:
  7637     0F4B  30FF               	movlw	255
  7638     0F4C  07D2               	addwf	___flmul@temp,f
  7639     0F4D  1803               	skipnc
  7640     0F4E  0AD3               	incf	___flmul@temp+1,f
  7641     0F4F  30FF               	movlw	255
  7642     0F50  07D3               	addwf	___flmul@temp+1,f
  7643     0F51                     l3289:
  7644     0F51  1FD0               	btfss	___flmul@prod+2,7
  7645     0F52  2F54               	goto	u4291
  7646     0F53  2F55               	goto	u4290
  7647     0F54                     u4291:
  7648     0F54  2F34               	goto	l3279
  7649     0F55                     u4290:
  7650     0F55                     l3291:
  7651     0F55  01CC               	clrf	___flmul@aexp
  7652     0F56                     l3293:
  7653     0F56  1FCB               	btfss	___flmul@grs+3,7
  7654     0F57  2F59               	goto	u4301
  7655     0F58  2F5A               	goto	u4300
  7656     0F59                     u4301:
  7657     0F59  2F76               	goto	l3301
  7658     0F5A                     u4300:
  7659     0F5A                     l3295:
  7660     0F5A  30FF               	movlw	255
  7661     0F5B  0548               	andwf	___flmul@grs,w
  7662     0F5C  00C2               	movwf	??___flmul
  7663     0F5D  30FF               	movlw	255
  7664     0F5E  0549               	andwf	___flmul@grs+1,w
  7665     0F5F  00C3               	movwf	??___flmul+1
  7666     0F60  30FF               	movlw	255
  7667     0F61  054A               	andwf	___flmul@grs+2,w
  7668     0F62  00C4               	movwf	??___flmul+2
  7669     0F63  307F               	movlw	127
  7670     0F64  054B               	andwf	___flmul@grs+3,w
  7671     0F65  00C5               	movwf	??___flmul+3
  7672     0F66  0845               	movf	??___flmul+3,w
  7673     0F67  0444               	iorwf	??___flmul+2,w
  7674     0F68  0443               	iorwf	??___flmul+1,w
  7675     0F69  0442               	iorwf	??___flmul,w
  7676     0F6A  1903               	skipnz
  7677     0F6B  2F6D               	goto	u4311
  7678     0F6C  2F6E               	goto	u4310
  7679     0F6D                     u4311:
  7680     0F6D  2F71               	goto	l810
  7681     0F6E                     u4310:
  7682     0F6E                     l3297:
  7683     0F6E  3001               	movlw	1
  7684     0F6F  00CC               	movwf	___flmul@aexp
  7685     0F70  2F76               	goto	l3301
  7686     0F71                     l810:
  7687     0F71  1C4E               	btfss	___flmul@prod,0
  7688     0F72  2F74               	goto	u4321
  7689     0F73  2F75               	goto	u4320
  7690     0F74                     u4321:
  7691     0F74  2F76               	goto	l3301
  7692     0F75                     u4320:
  7693     0F75  2F6E               	goto	l3297
  7694     0F76                     l3301:
  7695     0F76  084C               	movf	___flmul@aexp,w
  7696     0F77  1903               	btfsc	3,2
  7697     0F78  2F7A               	goto	u4331
  7698     0F79  2F7B               	goto	u4330
  7699     0F7A                     u4331:
  7700     0F7A  2FAC               	goto	l3311
  7701     0F7B                     u4330:
  7702     0F7B                     l3303:
  7703     0F7B  3001               	movlw	1
  7704     0F7C  07CE               	addwf	___flmul@prod,f
  7705     0F7D  3000               	movlw	0
  7706     0F7E  1803               	skipnc
  7707     0F7F  3001               	movlw	1
  7708     0F80  07CF               	addwf	___flmul@prod+1,f
  7709     0F81  3000               	movlw	0
  7710     0F82  1803               	skipnc
  7711     0F83  3001               	movlw	1
  7712     0F84  07D0               	addwf	___flmul@prod+2,f
  7713     0F85  3000               	movlw	0
  7714     0F86  1803               	skipnc
  7715     0F87  3001               	movlw	1
  7716     0F88  07D1               	addwf	___flmul@prod+3,f
  7717     0F89                     l3305:
  7718     0F89  1C51               	btfss	___flmul@prod+3,0
  7719     0F8A  2F8C               	goto	u4341
  7720     0F8B  2F8D               	goto	u4340
  7721     0F8C                     u4341:
  7722     0F8C  2FAC               	goto	l3311
  7723     0F8D                     u4340:
  7724     0F8D                     l3307:
  7725     0F8D  084E               	movf	___flmul@prod,w
  7726     0F8E  00C2               	movwf	??___flmul
  7727     0F8F  084F               	movf	___flmul@prod+1,w
  7728     0F90  00C3               	movwf	??___flmul+1
  7729     0F91  0850               	movf	___flmul@prod+2,w
  7730     0F92  00C4               	movwf	??___flmul+2
  7731     0F93  0851               	movf	___flmul@prod+3,w
  7732     0F94  00C5               	movwf	??___flmul+3
  7733     0F95  3001               	movlw	1
  7734     0F96  00C6               	movwf	??___flmul+4
  7735     0F97                     u4355:
  7736     0F97  0D45               	rlf	??___flmul+3,w
  7737     0F98  0CC5               	rrf	??___flmul+3,f
  7738     0F99  0CC4               	rrf	??___flmul+2,f
  7739     0F9A  0CC3               	rrf	??___flmul+1,f
  7740     0F9B  0CC2               	rrf	??___flmul,f
  7741     0F9C                     u4350:
  7742     0F9C  0BC6               	decfsz	??___flmul+4,f
  7743     0F9D  2F97               	goto	u4355
  7744     0F9E  0845               	movf	??___flmul+3,w
  7745     0F9F  00D1               	movwf	___flmul@prod+3
  7746     0FA0  0844               	movf	??___flmul+2,w
  7747     0FA1  00D0               	movwf	___flmul@prod+2
  7748     0FA2  0843               	movf	??___flmul+1,w
  7749     0FA3  00CF               	movwf	___flmul@prod+1
  7750     0FA4  0842               	movf	??___flmul,w
  7751     0FA5  00CE               	movwf	___flmul@prod
  7752     0FA6                     l3309:
  7753     0FA6  3001               	movlw	1
  7754     0FA7  07D2               	addwf	___flmul@temp,f
  7755     0FA8  1803               	skipnc
  7756     0FA9  0AD3               	incf	___flmul@temp+1,f
  7757     0FAA  3000               	movlw	0
  7758     0FAB  07D3               	addwf	___flmul@temp+1,f
  7759     0FAC                     l3311:
  7760     0FAC  0853               	movf	___flmul@temp+1,w
  7761     0FAD  3A80               	xorlw	128
  7762     0FAE  00FF               	movwf	btemp1
  7763     0FAF  3080               	movlw	128
  7764     0FB0  027F               	subwf	btemp1,w
  7765     0FB1  1D03               	skipz
  7766     0FB2  2FB5               	goto	u4365
  7767     0FB3  30FF               	movlw	255
  7768     0FB4  0252               	subwf	___flmul@temp,w
  7769     0FB5                     u4365:
  7770     0FB5  1C03               	skipc
  7771     0FB6  2FB8               	goto	u4361
  7772     0FB7  2FB9               	goto	u4360
  7773     0FB8                     u4361:
  7774     0FB8  2FC4               	goto	l3315
  7775     0FB9                     u4360:
  7776     0FB9                     l3313:
  7777     0FB9  307F               	movlw	127
  7778     0FBA  1283               	bcf	3,5	;RP0=0, select bank0
  7779     0FBB  1303               	bcf	3,6	;RP1=0, select bank0
  7780     0FBC  00D1               	movwf	___flmul@prod+3
  7781     0FBD  3080               	movlw	128
  7782     0FBE  00D0               	movwf	___flmul@prod+2
  7783     0FBF  3000               	movlw	0
  7784     0FC0  00CF               	movwf	___flmul@prod+1
  7785     0FC1  3000               	movlw	0
  7786     0FC2  00CE               	movwf	___flmul@prod
  7787     0FC3  2FF5               	goto	l816
  7788     0FC4                     l3315:
  7789     0FC4  1283               	bcf	3,5	;RP0=0, select bank0
  7790     0FC5  1303               	bcf	3,6	;RP1=0, select bank0
  7791     0FC6  0853               	movf	___flmul@temp+1,w
  7792     0FC7  3A80               	xorlw	128
  7793     0FC8  00FF               	movwf	btemp1
  7794     0FC9  3080               	movlw	128
  7795     0FCA  027F               	subwf	btemp1,w
  7796     0FCB  1D03               	skipz
  7797     0FCC  2FCF               	goto	u4375
  7798     0FCD  3001               	movlw	1
  7799     0FCE  0252               	subwf	___flmul@temp,w
  7800     0FCF                     u4375:
  7801     0FCF  1803               	skipnc
  7802     0FD0  2FD2               	goto	u4371
  7803     0FD1  2FD3               	goto	u4370
  7804     0FD2                     u4371:
  7805     0FD2  2FDF               	goto	l3321
  7806     0FD3                     u4370:
  7807     0FD3                     l3317:
  7808     0FD3  3000               	movlw	0
  7809     0FD4  1283               	bcf	3,5	;RP0=0, select bank0
  7810     0FD5  1303               	bcf	3,6	;RP1=0, select bank0
  7811     0FD6  00D1               	movwf	___flmul@prod+3
  7812     0FD7  3000               	movlw	0
  7813     0FD8  00D0               	movwf	___flmul@prod+2
  7814     0FD9  3000               	movlw	0
  7815     0FDA  00CF               	movwf	___flmul@prod+1
  7816     0FDB  3000               	movlw	0
  7817     0FDC  00CE               	movwf	___flmul@prod
  7818     0FDD                     l3319:
  7819     0FDD  01C7               	clrf	___flmul@sign
  7820     0FDE  2FF5               	goto	l816
  7821     0FDF                     l3321:
  7822     0FDF  1283               	bcf	3,5	;RP0=0, select bank0
  7823     0FE0  1303               	bcf	3,6	;RP1=0, select bank0
  7824     0FE1  0852               	movf	___flmul@temp,w
  7825     0FE2  00CD               	movwf	___flmul@bexp
  7826     0FE3  30FF               	movlw	255
  7827     0FE4  05CE               	andwf	___flmul@prod,f
  7828     0FE5  30FF               	movlw	255
  7829     0FE6  05CF               	andwf	___flmul@prod+1,f
  7830     0FE7  307F               	movlw	127
  7831     0FE8  05D0               	andwf	___flmul@prod+2,f
  7832     0FE9  3000               	movlw	0
  7833     0FEA  05D1               	andwf	___flmul@prod+3,f
  7834     0FEB                     l3323:
  7835     0FEB  1C4D               	btfss	___flmul@bexp,0
  7836     0FEC  2FEE               	goto	u4381
  7837     0FED  2FEF               	goto	u4380
  7838     0FEE                     u4381:
  7839     0FEE  2FF0               	goto	l3327
  7840     0FEF                     u4380:
  7841     0FEF                     l3325:
  7842     0FEF  17D0               	bsf	___flmul@prod+2,7
  7843     0FF0                     l3327:
  7844     0FF0  084D               	movf	___flmul@bexp,w
  7845     0FF1  00C2               	movwf	??___flmul
  7846     0FF2  1003               	clrc
  7847     0FF3  0C42               	rrf	??___flmul,w
  7848     0FF4  00D1               	movwf	___flmul@prod+3
  7849     0FF5                     l816:
  7850     0FF5  0847               	movf	___flmul@sign,w
  7851     0FF6  04D1               	iorwf	___flmul@prod+3,f
  7852     0FF7                     l3329:
  7853     0FF7  0851               	movf	___flmul@prod+3,w
  7854     0FF8  00BD               	movwf	?___flmul+3
  7855     0FF9  0850               	movf	___flmul@prod+2,w
  7856     0FFA  00BC               	movwf	?___flmul+2
  7857     0FFB  084F               	movf	___flmul@prod+1,w
  7858     0FFC  00BB               	movwf	?___flmul+1
  7859     0FFD  084E               	movf	___flmul@prod,w
  7860     0FFE  00BA               	movwf	?___flmul
  7861     0FFF                     l804:
  7862     0FFF  0008               	return
  7863     1000                     __end_of___flmul:
  7864                           
  7865                           	psect	text30
  7866     1B51                     __ptext30:	
  7867 ;; *************** function __Umul8_16 *****************
  7868 ;; Defined at:
  7869 ;;		line 4 in file "C:\Program Files\Microchip\xc8\v3.10\pic\sources\c99\common\Umul8_16.c"
  7870 ;; Parameters:    Size  Location     Type
  7871 ;;  multiplier      1    wreg     unsigned char 
  7872 ;;  multiplicand    1    0[COMMON] unsigned char 
  7873 ;; Auto vars:     Size  Location     Type
  7874 ;;  multiplier      1    8[COMMON] unsigned char 
  7875 ;;  word_mpld       2    6[COMMON] unsigned short 
  7876 ;;  product         2    4[COMMON] unsigned short 
  7877 ;; Return value:  Size  Location     Type
  7878 ;;                  2    0[COMMON] unsigned int 
  7879 ;; Registers used:
  7880 ;;		wreg, status,2, status,0
  7881 ;; Tracked objects:
  7882 ;;		On entry : 0/0
  7883 ;;		On exit  : 0/0
  7884 ;;		Unchanged: 0/0
  7885 ;; Data sizes:     COMMON   BANK0   BANK1   BANK3   BANK2
  7886 ;;      Params:         2       0       0       0       0
  7887 ;;      Locals:         5       0       0       0       0
  7888 ;;      Temps:          2       0       0       0       0
  7889 ;;      Totals:         9       0       0       0       0
  7890 ;;Total ram usage:        9 bytes
  7891 ;; Hardware stack levels used: 1
  7892 ;; This function calls:
  7893 ;;		Nothing
  7894 ;; This function is called by:
  7895 ;;		___flmul
  7896 ;; This function uses a non-reentrant model
  7897 ;;
  7898                           
  7899     1B51                     __Umul8_16:	
  7900                           ;psect for function __Umul8_16
  7901                           
  7902                           
  7903                           ;incstack = 0
  7904                           ; Regs used in __Umul8_16: [wreg+status,2+status,0]
  7905                           ;__Umul8_16@multiplier stored from wreg
  7906     1B51  00F8               	movwf	__Umul8_16@multiplier
  7907     1B52                     l2659:
  7908     1B52  01F4               	clrf	__Umul8_16@product
  7909     1B53  01F5               	clrf	__Umul8_16@product+1
  7910     1B54                     l2661:
  7911     1B54  0870               	movf	__Umul8_16@multiplicand,w
  7912     1B55  00F2               	movwf	??__Umul8_16
  7913     1B56  01F3               	clrf	??__Umul8_16+1
  7914     1B57  0872               	movf	??__Umul8_16,w
  7915     1B58  00F6               	movwf	__Umul8_16@word_mpld
  7916     1B59  0873               	movf	??__Umul8_16+1,w
  7917     1B5A  00F7               	movwf	__Umul8_16@word_mpld+1
  7918     1B5B                     l2663:
  7919     1B5B  1C78               	btfss	__Umul8_16@multiplier,0
  7920     1B5C  2B5E               	goto	u2921
  7921     1B5D  2B5F               	goto	u2920
  7922     1B5E                     u2921:
  7923     1B5E  2B65               	goto	l823
  7924     1B5F                     u2920:
  7925     1B5F                     l2665:
  7926     1B5F  0876               	movf	__Umul8_16@word_mpld,w
  7927     1B60  07F4               	addwf	__Umul8_16@product,f
  7928     1B61  1803               	skipnc
  7929     1B62  0AF5               	incf	__Umul8_16@product+1,f
  7930     1B63  0877               	movf	__Umul8_16@word_mpld+1,w
  7931     1B64  07F5               	addwf	__Umul8_16@product+1,f
  7932     1B65                     l823:
  7933     1B65  3001               	movlw	1
  7934     1B66                     u2935:
  7935     1B66  1003               	clrc
  7936     1B67  0DF6               	rlf	__Umul8_16@word_mpld,f
  7937     1B68  0DF7               	rlf	__Umul8_16@word_mpld+1,f
  7938     1B69  3EFF               	addlw	-1
  7939     1B6A  1D03               	skipz
  7940     1B6B  2B66               	goto	u2935
  7941     1B6C  1003               	clrc
  7942     1B6D  0CF8               	rrf	__Umul8_16@multiplier,f
  7943     1B6E                     l2667:
  7944     1B6E  0878               	movf	__Umul8_16@multiplier,w
  7945     1B6F  1D03               	btfss	3,2
  7946     1B70  2B72               	goto	u2941
  7947     1B71  2B73               	goto	u2940
  7948     1B72                     u2941:
  7949     1B72  2B5B               	goto	l2663
  7950     1B73                     u2940:
  7951     1B73                     l2669:
  7952     1B73  0875               	movf	__Umul8_16@product+1,w
  7953     1B74  00F1               	movwf	?__Umul8_16+1
  7954     1B75  0874               	movf	__Umul8_16@product,w
  7955     1B76  00F0               	movwf	?__Umul8_16
  7956     1B77                     l825:
  7957     1B77  0008               	return
  7958     1B78                     __end_of__Umul8_16:
  7959                           
  7960                           	psect	text31
  7961     1C26                     __ptext31:	
  7962 ;; *************** function _ImprimirDigito2 *****************
  7963 ;; Defined at:
  7964 ;;		line 38 in file "aplicacion.c"
  7965 ;; Parameters:    Size  Location     Type
  7966 ;;  v               1    wreg     unsigned char 
  7967 ;; Auto vars:     Size  Location     Type
  7968 ;;  v               1    7[BANK0 ] unsigned char 
  7969 ;; Return value:  Size  Location     Type
  7970 ;;                  1    wreg      void 
  7971 ;; Registers used:
  7972 ;;		wreg, status,2, status,0, pclath, cstack
  7973 ;; Tracked objects:
  7974 ;;		On entry : 0/0
  7975 ;;		On exit  : 0/0
  7976 ;;		Unchanged: 0/0
  7977 ;; Data sizes:     COMMON   BANK0   BANK1   BANK3   BANK2
  7978 ;;      Params:         0       0       0       0       0
  7979 ;;      Locals:         0       1       0       0       0
  7980 ;;      Temps:          0       2       0       0       0
  7981 ;;      Totals:         0       3       0       0       0
  7982 ;;Total ram usage:        3 bytes
  7983 ;; Hardware stack levels used: 1
  7984 ;; Hardware stack levels required when called: 2
  7985 ;; This function calls:
  7986 ;;		_Pantalla_EscribirCaracter
  7987 ;;		___awdiv
  7988 ;;		___awmod
  7989 ;; This function is called by:
  7990 ;;		_MostrarPrincipal
  7991 ;; This function uses a non-reentrant model
  7992 ;;
  7993                           
  7994     1C26                     _ImprimirDigito2:	
  7995                           ;psect for function _ImprimirDigito2
  7996                           
  7997                           
  7998                           ;incstack = 0
  7999                           ; Regs used in _ImprimirDigito2: [wreg+status,2+status,0+pclath+cstack]
  8000                           ;ImprimirDigito2@v stored from wreg
  8001     1C26  1283               	bcf	3,5	;RP0=0, select bank0
  8002     1C27  1303               	bcf	3,6	;RP1=0, select bank0
  8003     1C28  00A7               	movwf	ImprimirDigito2@v
  8004     1C29                     l3481:
  8005                           
  8006                           ;aplicacion.c: 39:     Pantalla_EscribirCaracter('0' + (v / 10));
  8007     1C29  300A               	movlw	10
  8008     1C2A  00F0               	movwf	___awdiv@divisor
  8009     1C2B  3000               	movlw	0
  8010     1C2C  00F1               	movwf	___awdiv@divisor+1
  8011     1C2D  0827               	movf	ImprimirDigito2@v,w
  8012     1C2E  00A5               	movwf	??_ImprimirDigito2
  8013     1C2F  01A6               	clrf	??_ImprimirDigito2+1
  8014     1C30  0825               	movf	??_ImprimirDigito2,w
  8015     1C31  00F2               	movwf	___awdiv@dividend
  8016     1C32  0826               	movf	??_ImprimirDigito2+1,w
  8017     1C33  00F3               	movwf	___awdiv@dividend+1
  8018     1C34  160A  118A  2025  160A  158A  	fcall	___awdiv
  8019     1C39  0870               	movf	?___awdiv,w
  8020     1C3A  3E30               	addlw	48
  8021     1C3B  160A  158A  24D4  160A  158A  	fcall	_Pantalla_EscribirCaracter
  8022                           
  8023                           ;aplicacion.c: 40:     Pantalla_EscribirCaracter('0' + (v % 10));
  8024     1C40  300A               	movlw	10
  8025     1C41  00F8               	movwf	___awmod@divisor
  8026     1C42  3000               	movlw	0
  8027     1C43  00F9               	movwf	___awmod@divisor+1
  8028     1C44  1283               	bcf	3,5	;RP0=0, select bank0
  8029     1C45  1303               	bcf	3,6	;RP1=0, select bank0
  8030     1C46  0827               	movf	ImprimirDigito2@v,w
  8031     1C47  00A5               	movwf	??_ImprimirDigito2
  8032     1C48  01A6               	clrf	??_ImprimirDigito2+1
  8033     1C49  0825               	movf	??_ImprimirDigito2,w
  8034     1C4A  00FA               	movwf	___awmod@dividend
  8035     1C4B  0826               	movf	??_ImprimirDigito2+1,w
  8036     1C4C  00FB               	movwf	___awmod@dividend+1
  8037     1C4D  160A  158A  2601  160A  158A  	fcall	___awmod
  8038     1C52  0878               	movf	?___awmod,w
  8039     1C53  3E30               	addlw	48
  8040     1C54  160A  158A  24D4  160A  158A  	fcall	_Pantalla_EscribirCaracter
  8041     1C59                     l264:
  8042     1C59  0008               	return
  8043     1C5A                     __end_of_ImprimirDigito2:
  8044                           
  8045                           	psect	text32
  8046     1E01                     __ptext32:	
  8047 ;; *************** function ___awmod *****************
  8048 ;; Defined at:
  8049 ;;		line 5 in file "C:\Program Files\Microchip\xc8\v3.10\pic\sources\c99\common\awmod.c"
  8050 ;; Parameters:    Size  Location     Type
  8051 ;;  divisor         2    8[COMMON] int 
  8052 ;;  dividend        2   10[COMMON] int 
  8053 ;; Auto vars:     Size  Location     Type
  8054 ;;  sign            1   13[COMMON] unsigned char 
  8055 ;;  counter         1   12[COMMON] unsigned char 
  8056 ;; Return value:  Size  Location     Type
  8057 ;;                  2    8[COMMON] int 
  8058 ;; Registers used:
  8059 ;;		wreg, status,2, status,0
  8060 ;; Tracked objects:
  8061 ;;		On entry : 0/0
  8062 ;;		On exit  : 0/0
  8063 ;;		Unchanged: 0/0
  8064 ;; Data sizes:     COMMON   BANK0   BANK1   BANK3   BANK2
  8065 ;;      Params:         4       0       0       0       0
  8066 ;;      Locals:         2       0       0       0       0
  8067 ;;      Temps:          0       0       0       0       0
  8068 ;;      Totals:         6       0       0       0       0
  8069 ;;Total ram usage:        6 bytes
  8070 ;; Hardware stack levels used: 1
  8071 ;; This function calls:
  8072 ;;		Nothing
  8073 ;; This function is called by:
  8074 ;;		_ImprimirDigito2
  8075 ;;		_main
  8076 ;; This function uses a non-reentrant model
  8077 ;;
  8078                           
  8079     1E01                     ___awmod:	
  8080                           ;psect for function ___awmod
  8081                           
  8082     1E01                     l2851:	
  8083                           ;incstack = 0
  8084                           ; Regs used in ___awmod: [wreg+status,2+status,0]
  8085                           
  8086     1E01  01FD               	clrf	___awmod@sign
  8087     1E02                     l2853:
  8088     1E02  1FFB               	btfss	___awmod@dividend+1,7
  8089     1E03  2E05               	goto	u3171
  8090     1E04  2E06               	goto	u3170
  8091     1E05                     u3171:
  8092     1E05  2E0D               	goto	l2859
  8093     1E06                     u3170:
  8094     1E06                     l2855:
  8095     1E06  09FA               	comf	___awmod@dividend,f
  8096     1E07  09FB               	comf	___awmod@dividend+1,f
  8097     1E08  0AFA               	incf	___awmod@dividend,f
  8098     1E09  1903               	skipnz
  8099     1E0A  0AFB               	incf	___awmod@dividend+1,f
  8100     1E0B                     l2857:
  8101     1E0B  3001               	movlw	1
  8102     1E0C  00FD               	movwf	___awmod@sign
  8103     1E0D                     l2859:
  8104     1E0D  1FF9               	btfss	___awmod@divisor+1,7
  8105     1E0E  2E10               	goto	u3181
  8106     1E0F  2E11               	goto	u3180
  8107     1E10                     u3181:
  8108     1E10  2E16               	goto	l2863
  8109     1E11                     u3180:
  8110     1E11                     l2861:
  8111     1E11  09F8               	comf	___awmod@divisor,f
  8112     1E12  09F9               	comf	___awmod@divisor+1,f
  8113     1E13  0AF8               	incf	___awmod@divisor,f
  8114     1E14  1903               	skipnz
  8115     1E15  0AF9               	incf	___awmod@divisor+1,f
  8116     1E16                     l2863:
  8117     1E16  0878               	movf	___awmod@divisor,w
  8118     1E17  0479               	iorwf	___awmod@divisor+1,w
  8119     1E18  1903               	btfsc	3,2
  8120     1E19  2E1B               	goto	u3191
  8121     1E1A  2E1C               	goto	u3190
  8122     1E1B                     u3191:
  8123     1E1B  2E49               	goto	l2881
  8124     1E1C                     u3190:
  8125     1E1C                     l2865:
  8126     1E1C  3001               	movlw	1
  8127     1E1D  00FC               	movwf	___awmod@counter
  8128     1E1E  2E28               	goto	l2871
  8129     1E1F                     l2867:
  8130     1E1F  3001               	movlw	1
  8131     1E20                     u3205:
  8132     1E20  1003               	clrc
  8133     1E21  0DF8               	rlf	___awmod@divisor,f
  8134     1E22  0DF9               	rlf	___awmod@divisor+1,f
  8135     1E23  3EFF               	addlw	-1
  8136     1E24  1D03               	skipz
  8137     1E25  2E20               	goto	u3205
  8138     1E26                     l2869:
  8139     1E26  3001               	movlw	1
  8140     1E27  07FC               	addwf	___awmod@counter,f
  8141     1E28                     l2871:
  8142     1E28  1FF9               	btfss	___awmod@divisor+1,7
  8143     1E29  2E2B               	goto	u3211
  8144     1E2A  2E2C               	goto	u3210
  8145     1E2B                     u3211:
  8146     1E2B  2E1F               	goto	l2867
  8147     1E2C                     u3210:
  8148     1E2C                     l2873:
  8149     1E2C  0879               	movf	___awmod@divisor+1,w
  8150     1E2D  027B               	subwf	___awmod@dividend+1,w
  8151     1E2E  1D03               	skipz
  8152     1E2F  2E32               	goto	u3225
  8153     1E30  0878               	movf	___awmod@divisor,w
  8154     1E31  027A               	subwf	___awmod@dividend,w
  8155     1E32                     u3225:
  8156     1E32  1C03               	skipc
  8157     1E33  2E35               	goto	u3221
  8158     1E34  2E36               	goto	u3220
  8159     1E35                     u3221:
  8160     1E35  2E3C               	goto	l2877
  8161     1E36                     u3220:
  8162     1E36                     l2875:
  8163     1E36  0878               	movf	___awmod@divisor,w
  8164     1E37  02FA               	subwf	___awmod@dividend,f
  8165     1E38  0879               	movf	___awmod@divisor+1,w
  8166     1E39  1C03               	skipc
  8167     1E3A  03FB               	decf	___awmod@dividend+1,f
  8168     1E3B  02FB               	subwf	___awmod@dividend+1,f
  8169     1E3C                     l2877:
  8170     1E3C  3001               	movlw	1
  8171     1E3D                     u3235:
  8172     1E3D  1003               	clrc
  8173     1E3E  0CF9               	rrf	___awmod@divisor+1,f
  8174     1E3F  0CF8               	rrf	___awmod@divisor,f
  8175     1E40  3EFF               	addlw	-1
  8176     1E41  1D03               	skipz
  8177     1E42  2E3D               	goto	u3235
  8178     1E43                     l2879:
  8179     1E43  3001               	movlw	1
  8180     1E44  02FC               	subwf	___awmod@counter,f
  8181     1E45  1D03               	btfss	3,2
  8182     1E46  2E48               	goto	u3241
  8183     1E47  2E49               	goto	u3240
  8184     1E48                     u3241:
  8185     1E48  2E2C               	goto	l2873
  8186     1E49                     u3240:
  8187     1E49                     l2881:
  8188     1E49  087D               	movf	___awmod@sign,w
  8189     1E4A  1903               	btfsc	3,2
  8190     1E4B  2E4D               	goto	u3251
  8191     1E4C  2E4E               	goto	u3250
  8192     1E4D                     u3251:
  8193     1E4D  2E53               	goto	l2885
  8194     1E4E                     u3250:
  8195     1E4E                     l2883:
  8196     1E4E  09FA               	comf	___awmod@dividend,f
  8197     1E4F  09FB               	comf	___awmod@dividend+1,f
  8198     1E50  0AFA               	incf	___awmod@dividend,f
  8199     1E51  1903               	skipnz
  8200     1E52  0AFB               	incf	___awmod@dividend+1,f
  8201     1E53                     l2885:
  8202     1E53  087B               	movf	___awmod@dividend+1,w
  8203     1E54  00F9               	movwf	?___awmod+1
  8204     1E55  087A               	movf	___awmod@dividend,w
  8205     1E56  00F8               	movwf	?___awmod
  8206     1E57                     l573:
  8207     1E57  0008               	return
  8208     1E58                     __end_of___awmod:
  8209                           
  8210                           	psect	text33
  8211     1025                     __ptext33:	
  8212 ;; *************** function ___awdiv *****************
  8213 ;; Defined at:
  8214 ;;		line 5 in file "C:\Program Files\Microchip\xc8\v3.10\pic\sources\c99\common\awdiv.c"
  8215 ;; Parameters:    Size  Location     Type
  8216 ;;  divisor         2    0[COMMON] int 
  8217 ;;  dividend        2    2[COMMON] int 
  8218 ;; Auto vars:     Size  Location     Type
  8219 ;;  quotient        2    6[COMMON] int 
  8220 ;;  sign            1    5[COMMON] unsigned char 
  8221 ;;  counter         1    4[COMMON] unsigned char 
  8222 ;; Return value:  Size  Location     Type
  8223 ;;                  2    0[COMMON] int 
  8224 ;; Registers used:
  8225 ;;		wreg, status,2, status,0
  8226 ;; Tracked objects:
  8227 ;;		On entry : 0/0
  8228 ;;		On exit  : 0/0
  8229 ;;		Unchanged: 0/0
  8230 ;; Data sizes:     COMMON   BANK0   BANK1   BANK3   BANK2
  8231 ;;      Params:         4       0       0       0       0
  8232 ;;      Locals:         4       0       0       0       0
  8233 ;;      Temps:          0       0       0       0       0
  8234 ;;      Totals:         8       0       0       0       0
  8235 ;;Total ram usage:        8 bytes
  8236 ;; Hardware stack levels used: 1
  8237 ;; This function calls:
  8238 ;;		Nothing
  8239 ;; This function is called by:
  8240 ;;		_ImprimirDigito2
  8241 ;;		_main
  8242 ;; This function uses a non-reentrant model
  8243 ;;
  8244                           
  8245     1025                     ___awdiv:	
  8246                           ;psect for function ___awdiv
  8247                           
  8248     1025                     l2807:	
  8249                           ;incstack = 0
  8250                           ; Regs used in ___awdiv: [wreg+status,2+status,0]
  8251                           
  8252     1025  01F5               	clrf	___awdiv@sign
  8253     1026                     l2809:
  8254     1026  1FF1               	btfss	___awdiv@divisor+1,7
  8255     1027  2829               	goto	u3071
  8256     1028  282A               	goto	u3070
  8257     1029                     u3071:
  8258     1029  2831               	goto	l2815
  8259     102A                     u3070:
  8260     102A                     l2811:
  8261     102A  09F0               	comf	___awdiv@divisor,f
  8262     102B  09F1               	comf	___awdiv@divisor+1,f
  8263     102C  0AF0               	incf	___awdiv@divisor,f
  8264     102D  1903               	skipnz
  8265     102E  0AF1               	incf	___awdiv@divisor+1,f
  8266     102F                     l2813:
  8267     102F  3001               	movlw	1
  8268     1030  00F5               	movwf	___awdiv@sign
  8269     1031                     l2815:
  8270     1031  1FF3               	btfss	___awdiv@dividend+1,7
  8271     1032  2834               	goto	u3081
  8272     1033  2835               	goto	u3080
  8273     1034                     u3081:
  8274     1034  283C               	goto	l2821
  8275     1035                     u3080:
  8276     1035                     l2817:
  8277     1035  09F2               	comf	___awdiv@dividend,f
  8278     1036  09F3               	comf	___awdiv@dividend+1,f
  8279     1037  0AF2               	incf	___awdiv@dividend,f
  8280     1038  1903               	skipnz
  8281     1039  0AF3               	incf	___awdiv@dividend+1,f
  8282     103A                     l2819:
  8283     103A  3001               	movlw	1
  8284     103B  06F5               	xorwf	___awdiv@sign,f
  8285     103C                     l2821:
  8286     103C  01F6               	clrf	___awdiv@quotient
  8287     103D  01F7               	clrf	___awdiv@quotient+1
  8288     103E                     l2823:
  8289     103E  0870               	movf	___awdiv@divisor,w
  8290     103F  0471               	iorwf	___awdiv@divisor+1,w
  8291     1040  1903               	btfsc	3,2
  8292     1041  2843               	goto	u3091
  8293     1042  2844               	goto	u3090
  8294     1043                     u3091:
  8295     1043  2879               	goto	l2843
  8296     1044                     u3090:
  8297     1044                     l2825:
  8298     1044  3001               	movlw	1
  8299     1045  00F4               	movwf	___awdiv@counter
  8300     1046  2850               	goto	l2831
  8301     1047                     l2827:
  8302     1047  3001               	movlw	1
  8303     1048                     u3105:
  8304     1048  1003               	clrc
  8305     1049  0DF0               	rlf	___awdiv@divisor,f
  8306     104A  0DF1               	rlf	___awdiv@divisor+1,f
  8307     104B  3EFF               	addlw	-1
  8308     104C  1D03               	skipz
  8309     104D  2848               	goto	u3105
  8310     104E                     l2829:
  8311     104E  3001               	movlw	1
  8312     104F  07F4               	addwf	___awdiv@counter,f
  8313     1050                     l2831:
  8314     1050  1FF1               	btfss	___awdiv@divisor+1,7
  8315     1051  2853               	goto	u3111
  8316     1052  2854               	goto	u3110
  8317     1053                     u3111:
  8318     1053  2847               	goto	l2827
  8319     1054                     u3110:
  8320     1054                     l2833:
  8321     1054  3001               	movlw	1
  8322     1055                     u3125:
  8323     1055  1003               	clrc
  8324     1056  0DF6               	rlf	___awdiv@quotient,f
  8325     1057  0DF7               	rlf	___awdiv@quotient+1,f
  8326     1058  3EFF               	addlw	-1
  8327     1059  1D03               	skipz
  8328     105A  2855               	goto	u3125
  8329     105B  0871               	movf	___awdiv@divisor+1,w
  8330     105C  0273               	subwf	___awdiv@dividend+1,w
  8331     105D  1D03               	skipz
  8332     105E  2861               	goto	u3135
  8333     105F  0870               	movf	___awdiv@divisor,w
  8334     1060  0272               	subwf	___awdiv@dividend,w
  8335     1061                     u3135:
  8336     1061  1C03               	skipc
  8337     1062  2864               	goto	u3131
  8338     1063  2865               	goto	u3130
  8339     1064                     u3131:
  8340     1064  286C               	goto	l2839
  8341     1065                     u3130:
  8342     1065                     l2835:
  8343     1065  0870               	movf	___awdiv@divisor,w
  8344     1066  02F2               	subwf	___awdiv@dividend,f
  8345     1067  0871               	movf	___awdiv@divisor+1,w
  8346     1068  1C03               	skipc
  8347     1069  03F3               	decf	___awdiv@dividend+1,f
  8348     106A  02F3               	subwf	___awdiv@dividend+1,f
  8349     106B                     l2837:
  8350     106B  1476               	bsf	___awdiv@quotient,0
  8351     106C                     l2839:
  8352     106C  3001               	movlw	1
  8353     106D                     u3145:
  8354     106D  1003               	clrc
  8355     106E  0CF1               	rrf	___awdiv@divisor+1,f
  8356     106F  0CF0               	rrf	___awdiv@divisor,f
  8357     1070  3EFF               	addlw	-1
  8358     1071  1D03               	skipz
  8359     1072  286D               	goto	u3145
  8360     1073                     l2841:
  8361     1073  3001               	movlw	1
  8362     1074  02F4               	subwf	___awdiv@counter,f
  8363     1075  1D03               	btfss	3,2
  8364     1076  2878               	goto	u3151
  8365     1077  2879               	goto	u3150
  8366     1078                     u3151:
  8367     1078  2854               	goto	l2833
  8368     1079                     u3150:
  8369     1079                     l2843:
  8370     1079  0875               	movf	___awdiv@sign,w
  8371     107A  1903               	btfsc	3,2
  8372     107B  287D               	goto	u3161
  8373     107C  287E               	goto	u3160
  8374     107D                     u3161:
  8375     107D  2883               	goto	l2847
  8376     107E                     u3160:
  8377     107E                     l2845:
  8378     107E  09F6               	comf	___awdiv@quotient,f
  8379     107F  09F7               	comf	___awdiv@quotient+1,f
  8380     1080  0AF6               	incf	___awdiv@quotient,f
  8381     1081  1903               	skipnz
  8382     1082  0AF7               	incf	___awdiv@quotient+1,f
  8383     1083                     l2847:
  8384     1083  0877               	movf	___awdiv@quotient+1,w
  8385     1084  00F1               	movwf	?___awdiv+1
  8386     1085  0876               	movf	___awdiv@quotient,w
  8387     1086  00F0               	movwf	?___awdiv
  8388     1087                     l560:
  8389     1087  0008               	return
  8390     1088                     __end_of___awdiv:
  8391                           
  8392                           	psect	text34
  8393     1CD4                     __ptext34:	
  8394 ;; *************** function _Pantalla_EscribirCaracter *****************
  8395 ;; Defined at:
  8396 ;;		line 66 in file "controlador_pantalla.c"
  8397 ;; Parameters:    Size  Location     Type
  8398 ;;  a               1    wreg     unsigned char 
  8399 ;; Auto vars:     Size  Location     Type
  8400 ;;  a               1    4[BANK0 ] unsigned char 
  8401 ;;  y               1    3[BANK0 ] unsigned char 
  8402 ;;  temp            1    2[BANK0 ] unsigned char 
  8403 ;; Return value:  Size  Location     Type
  8404 ;;                  1    wreg      void 
  8405 ;; Registers used:
  8406 ;;		wreg, status,2, status,0, pclath, cstack
  8407 ;; Tracked objects:
  8408 ;;		On entry : 0/0
  8409 ;;		On exit  : 0/0
  8410 ;;		Unchanged: 0/0
  8411 ;; Data sizes:     COMMON   BANK0   BANK1   BANK3   BANK2
  8412 ;;      Params:         0       0       0       0       0
  8413 ;;      Locals:         0       3       0       0       0
  8414 ;;      Temps:          0       2       0       0       0
  8415 ;;      Totals:         0       5       0       0       0
  8416 ;;Total ram usage:        5 bytes
  8417 ;; Hardware stack levels used: 1
  8418 ;; This function calls:
  8419 ;;		_Pantalla_ConfigurarPuerto
  8420 ;; This function is called by:
  8421 ;;		_Pantalla_EscribirTexto
  8422 ;;		_ImprimirDigito2
  8423 ;;		_ImprimirTemp
  8424 ;;		_MostrarPrincipal
  8425 ;;		_MostrarStats
  8426 ;;		_main
  8427 ;; This function uses a non-reentrant model
  8428 ;;
  8429                           
  8430     1CD4                     _Pantalla_EscribirCaracter:	
  8431                           ;psect for function _Pantalla_EscribirCaracter
  8432                           
  8433                           
  8434                           ;incstack = 0
  8435                           ; Regs used in _Pantalla_EscribirCaracter: [wreg+status,2+status,0+pclath+cstack]
  8436                           ;Pantalla_EscribirCaracter@a stored from wreg
  8437     1CD4  1283               	bcf	3,5	;RP0=0, select bank0
  8438     1CD5  1303               	bcf	3,6	;RP1=0, select bank0
  8439     1CD6  00A4               	movwf	Pantalla_EscribirCaracter@a
  8440     1CD7                     l2685:
  8441                           
  8442                           ;controlador_pantalla.c: 67:     char temp, y;;controlador_pantalla.c: 68:     temp = a 
      +                          & 0x0F;
  8443     1CD7  0824               	movf	Pantalla_EscribirCaracter@a,w
  8444     1CD8  00A2               	movwf	Pantalla_EscribirCaracter@temp
  8445     1CD9                     l2687:
  8446     1CD9  300F               	movlw	15
  8447     1CDA  05A2               	andwf	Pantalla_EscribirCaracter@temp,f
  8448     1CDB                     l2689:
  8449                           
  8450                           ;controlador_pantalla.c: 69:     y = a & 0xF0;
  8451     1CDB  0824               	movf	Pantalla_EscribirCaracter@a,w
  8452     1CDC  00A3               	movwf	Pantalla_EscribirCaracter@y
  8453     1CDD  30F0               	movlw	240
  8454     1CDE  05A3               	andwf	Pantalla_EscribirCaracter@y,f
  8455     1CDF                     l2691:
  8456                           
  8457                           ;controlador_pantalla.c: 70:     PORTDbits.RD2 = 1;
  8458     1CDF  1508               	bsf	8,2	;volatile
  8459     1CE0                     l2693:
  8460                           
  8461                           ;controlador_pantalla.c: 71:     Pantalla_ConfigurarPuerto(y >> 4);
  8462     1CE0  0823               	movf	Pantalla_EscribirCaracter@y,w
  8463     1CE1  00A0               	movwf	??_Pantalla_EscribirCaracter
  8464     1CE2  3004               	movlw	4
  8465     1CE3                     u2955:
  8466     1CE3  1003               	clrc
  8467     1CE4  0CA0               	rrf	??_Pantalla_EscribirCaracter,f
  8468     1CE5  3EFF               	addlw	-1
  8469     1CE6  1D03               	skipz
  8470     1CE7  2CE3               	goto	u2955
  8471     1CE8  0820               	movf	??_Pantalla_EscribirCaracter,w
  8472     1CE9  160A  158A  2308  160A  158A  	fcall	_Pantalla_ConfigurarPuerto
  8473     1CEE                     l2695:
  8474                           
  8475                           ;controlador_pantalla.c: 72:     PORTDbits.RD3 = 1;
  8476     1CEE  1283               	bcf	3,5	;RP0=0, select bank0
  8477     1CEF  1303               	bcf	3,6	;RP1=0, select bank0
  8478     1CF0  1588               	bsf	8,3	;volatile
  8479     1CF1                     l2697:
  8480                           
  8481                           ;controlador_pantalla.c: 73:     _delay((unsigned long)((40)*(20000000/4000000.0)));
  8482     1CF1  3041               	movlw	65
  8483     1CF2  1283               	bcf	3,5	;RP0=0, select bank0
  8484     1CF3  1303               	bcf	3,6	;RP1=0, select bank0
  8485     1CF4  00A0               	movwf	??_Pantalla_EscribirCaracter
  8486     1CF5                     u6177:
  8487     1CF5  0BA0               	decfsz	??_Pantalla_EscribirCaracter,f
  8488     1CF6  2CF5               	goto	u6177
  8489     1CF7  2CF8               	nop2
  8490     1CF8                     l2699:
  8491                           
  8492                           ;controlador_pantalla.c: 74:     PORTDbits.RD3 = 0;
  8493     1CF8  1283               	bcf	3,5	;RP0=0, select bank0
  8494     1CF9  1303               	bcf	3,6	;RP1=0, select bank0
  8495     1CFA  1188               	bcf	8,3	;volatile
  8496     1CFB                     l2701:
  8497                           
  8498                           ;controlador_pantalla.c: 75:     Pantalla_ConfigurarPuerto(temp);
  8499     1CFB  0822               	movf	Pantalla_EscribirCaracter@temp,w
  8500     1CFC  160A  158A  2308  160A  158A  	fcall	_Pantalla_ConfigurarPuerto
  8501     1D01                     l2703:
  8502                           
  8503                           ;controlador_pantalla.c: 76:     PORTDbits.RD3 = 1;
  8504     1D01  1283               	bcf	3,5	;RP0=0, select bank0
  8505     1D02  1303               	bcf	3,6	;RP1=0, select bank0
  8506     1D03  1588               	bsf	8,3	;volatile
  8507     1D04                     l2705:
  8508                           
  8509                           ;controlador_pantalla.c: 77:     _delay((unsigned long)((40)*(20000000/4000000.0)));
  8510     1D04  3041               	movlw	65
  8511     1D05  1283               	bcf	3,5	;RP0=0, select bank0
  8512     1D06  1303               	bcf	3,6	;RP1=0, select bank0
  8513     1D07  00A0               	movwf	??_Pantalla_EscribirCaracter
  8514     1D08                     u6187:
  8515     1D08  0BA0               	decfsz	??_Pantalla_EscribirCaracter,f
  8516     1D09  2D08               	goto	u6187
  8517     1D0A  2D0B               	nop2
  8518     1D0B                     l2707:
  8519                           
  8520                           ;controlador_pantalla.c: 78:     PORTDbits.RD3 = 0;
  8521     1D0B  1283               	bcf	3,5	;RP0=0, select bank0
  8522     1D0C  1303               	bcf	3,6	;RP1=0, select bank0
  8523     1D0D  1188               	bcf	8,3	;volatile
  8524     1D0E                     l2709:
  8525                           
  8526                           ;controlador_pantalla.c: 79:     _delay((unsigned long)((2)*(20000000/4000.0)));
  8527     1D0E  300D               	movlw	13
  8528     1D0F  1283               	bcf	3,5	;RP0=0, select bank0
  8529     1D10  1303               	bcf	3,6	;RP1=0, select bank0
  8530     1D11  00A1               	movwf	??_Pantalla_EscribirCaracter+1
  8531     1D12  30FB               	movlw	251
  8532     1D13  00A0               	movwf	??_Pantalla_EscribirCaracter
  8533     1D14                     u6197:
  8534     1D14  0BA0               	decfsz	??_Pantalla_EscribirCaracter,f
  8535     1D15  2D14               	goto	u6197
  8536     1D16  0BA1               	decfsz	??_Pantalla_EscribirCaracter+1,f
  8537     1D17  2D14               	goto	u6197
  8538     1D18                     l34:
  8539     1D18  0008               	return
  8540     1D19                     __end_of_Pantalla_EscribirCaracter:
  8541                           
  8542                           	psect	text35
  8543     1B08                     __ptext35:	
  8544 ;; *************** function _Pantalla_ConfigurarPuerto *****************
  8545 ;; Defined at:
  8546 ;;		line 3 in file "controlador_pantalla.c"
  8547 ;; Parameters:    Size  Location     Type
  8548 ;;  a               1    wreg     unsigned char 
  8549 ;; Auto vars:     Size  Location     Type
  8550 ;;  a               1    0[COMMON] unsigned char 
  8551 ;; Return value:  Size  Location     Type
  8552 ;;                  1    wreg      void 
  8553 ;; Registers used:
  8554 ;;		wreg
  8555 ;; Tracked objects:
  8556 ;;		On entry : 0/0
  8557 ;;		On exit  : 0/0
  8558 ;;		Unchanged: 0/0
  8559 ;; Data sizes:     COMMON   BANK0   BANK1   BANK3   BANK2
  8560 ;;      Params:         0       0       0       0       0
  8561 ;;      Locals:         1       0       0       0       0
  8562 ;;      Temps:          0       0       0       0       0
  8563 ;;      Totals:         1       0       0       0       0
  8564 ;;Total ram usage:        1 bytes
  8565 ;; Hardware stack levels used: 1
  8566 ;; This function calls:
  8567 ;;		Nothing
  8568 ;; This function is called by:
  8569 ;;		_Pantalla_EnviarComando
  8570 ;;		_Pantalla_EscribirCaracter
  8571 ;; This function uses a non-reentrant model
  8572 ;;
  8573                           
  8574     1B08                     _Pantalla_ConfigurarPuerto:	
  8575                           ;psect for function _Pantalla_ConfigurarPuerto
  8576                           
  8577                           
  8578                           ;incstack = 0
  8579                           ; Regs used in _Pantalla_ConfigurarPuerto: [wreg]
  8580                           ;Pantalla_ConfigurarPuerto@a stored from wreg
  8581     1B08  00F0               	movwf	Pantalla_ConfigurarPuerto@a
  8582     1B09                     l2617:
  8583                           
  8584                           ;controlador_pantalla.c: 4:     if(a & 1) PORTDbits.RD4 = 1; else PORTDbits.RD4 = 0;
  8585     1B09  1C70               	btfss	Pantalla_ConfigurarPuerto@a,0
  8586     1B0A  2B0C               	goto	u2851
  8587     1B0B  2B0D               	goto	u2850
  8588     1B0C                     u2851:
  8589     1B0C  2B11               	goto	l9
  8590     1B0D                     u2850:
  8591     1B0D                     l2619:
  8592     1B0D  1283               	bcf	3,5	;RP0=0, select bank0
  8593     1B0E  1303               	bcf	3,6	;RP1=0, select bank0
  8594     1B0F  1608               	bsf	8,4	;volatile
  8595     1B10  2B14               	goto	l10
  8596     1B11                     l9:
  8597     1B11  1283               	bcf	3,5	;RP0=0, select bank0
  8598     1B12  1303               	bcf	3,6	;RP1=0, select bank0
  8599     1B13  1208               	bcf	8,4	;volatile
  8600     1B14                     l10:
  8601                           
  8602                           ;controlador_pantalla.c: 5:     if(a & 2) PORTDbits.RD5 = 1; else PORTDbits.RD5 = 0;
  8603     1B14  1CF0               	btfss	Pantalla_ConfigurarPuerto@a,1
  8604     1B15  2B17               	goto	u2861
  8605     1B16  2B18               	goto	u2860
  8606     1B17                     u2861:
  8607     1B17  2B1A               	goto	l11
  8608     1B18                     u2860:
  8609     1B18                     l2621:
  8610     1B18  1688               	bsf	8,5	;volatile
  8611     1B19  2B1B               	goto	l12
  8612     1B1A                     l11:
  8613     1B1A  1288               	bcf	8,5	;volatile
  8614     1B1B                     l12:
  8615                           
  8616                           ;controlador_pantalla.c: 6:     if(a & 4) PORTDbits.RD6 = 1; else PORTDbits.RD6 = 0;
  8617     1B1B  1D70               	btfss	Pantalla_ConfigurarPuerto@a,2
  8618     1B1C  2B1E               	goto	u2871
  8619     1B1D  2B1F               	goto	u2870
  8620     1B1E                     u2871:
  8621     1B1E  2B21               	goto	l13
  8622     1B1F                     u2870:
  8623     1B1F                     l2623:
  8624     1B1F  1708               	bsf	8,6	;volatile
  8625     1B20  2B22               	goto	l14
  8626     1B21                     l13:
  8627     1B21  1308               	bcf	8,6	;volatile
  8628     1B22                     l14:
  8629                           
  8630                           ;controlador_pantalla.c: 7:     if(a & 8) PORTDbits.RD7 = 1; else PORTDbits.RD7 = 0;
  8631     1B22  1DF0               	btfss	Pantalla_ConfigurarPuerto@a,3
  8632     1B23  2B25               	goto	u2881
  8633     1B24  2B26               	goto	u2880
  8634     1B25                     u2881:
  8635     1B25  2B28               	goto	l15
  8636     1B26                     u2880:
  8637     1B26                     l2625:
  8638     1B26  1788               	bsf	8,7	;volatile
  8639     1B27  2B29               	goto	l17
  8640     1B28                     l15:
  8641     1B28  1388               	bcf	8,7	;volatile
  8642     1B29                     l17:
  8643     1B29  0008               	return
  8644     1B2A                     __end_of_Pantalla_ConfigurarPuerto:
  8645                           
  8646                           	psect	text36
  8647     1BF5                     __ptext36:	
  8648 ;; *************** function _LeerBoton *****************
  8649 ;; Defined at:
  8650 ;;		line 107 in file "aplicacion.c"
  8651 ;; Parameters:    Size  Location     Type
  8652 ;;		None
  8653 ;; Auto vars:     Size  Location     Type
  8654 ;;  curr            1    2[COMMON] unsigned char 
  8655 ;; Return value:  Size  Location     Type
  8656 ;;                  1    wreg      unsigned char 
  8657 ;; Registers used:
  8658 ;;		wreg, status,2, status,0
  8659 ;; Tracked objects:
  8660 ;;		On entry : 0/0
  8661 ;;		On exit  : 0/0
  8662 ;;		Unchanged: 0/0
  8663 ;; Data sizes:     COMMON   BANK0   BANK1   BANK3   BANK2
  8664 ;;      Params:         0       0       0       0       0
  8665 ;;      Locals:         1       0       0       0       0
  8666 ;;      Temps:          2       0       0       0       0
  8667 ;;      Totals:         3       0       0       0       0
  8668 ;;Total ram usage:        3 bytes
  8669 ;; Hardware stack levels used: 1
  8670 ;; This function calls:
  8671 ;;		Nothing
  8672 ;; This function is called by:
  8673 ;;		_main
  8674 ;; This function uses a non-reentrant model
  8675 ;;
  8676                           
  8677     1BF5                     _LeerBoton:	
  8678                           ;psect for function _LeerBoton
  8679                           
  8680     1BF5                     l4061:	
  8681                           ;incstack = 0
  8682                           ; Regs used in _LeerBoton: [wreg+status,2+status,0]
  8683                           
  8684                           
  8685                           ;aplicacion.c: 108:     static uint8_t prev = 1;;aplicacion.c: 109:     uint8_t curr = P
      +                          ORTAbits.RA2;
  8686     1BF5  1283               	bcf	3,5	;RP0=0, select bank0
  8687     1BF6  1303               	bcf	3,6	;RP1=0, select bank0
  8688     1BF7  0C05               	rrf	5,w	;volatile
  8689     1BF8  00F0               	movwf	??_LeerBoton
  8690     1BF9  0C70               	rrf	??_LeerBoton,w
  8691     1BFA  3901               	andlw	1
  8692     1BFB  00F2               	movwf	LeerBoton@curr
  8693                           
  8694                           ;aplicacion.c: 111:     if(curr == 0 && prev == 1) {
  8695     1BFC  0872               	movf	LeerBoton@curr,w
  8696     1BFD  1D03               	btfss	3,2
  8697     1BFE  2C00               	goto	u5421
  8698     1BFF  2C01               	goto	u5420
  8699     1C00                     u5421:
  8700     1C00  2C1B               	goto	l4075
  8701     1C01                     u5420:
  8702     1C01                     l4063:
  8703     1C01  1683               	bsf	3,5	;RP0=1, select bank1
  8704     1C02  1303               	bcf	3,6	;RP1=0, select bank1
  8705     1C03  036F               	decf	LeerBoton@prev^(0+128),w
  8706     1C04  1D03               	btfss	3,2
  8707     1C05  2C07               	goto	u5431
  8708     1C06  2C08               	goto	u5430
  8709     1C07                     u5431:
  8710     1C07  2C1B               	goto	l4075
  8711     1C08                     u5430:
  8712     1C08                     l4065:
  8713                           
  8714                           ;aplicacion.c: 112:         _delay((unsigned long)((30)*(20000000/4000.0)));
  8715     1C08  30C3               	movlw	195
  8716     1C09  00F1               	movwf	??_LeerBoton+1
  8717     1C0A  30CD               	movlw	205
  8718     1C0B  00F0               	movwf	??_LeerBoton
  8719     1C0C                     u6207:
  8720     1C0C  0BF0               	decfsz	??_LeerBoton,f
  8721     1C0D  2C0C               	goto	u6207
  8722     1C0E  0BF1               	decfsz	??_LeerBoton+1,f
  8723     1C0F  2C0C               	goto	u6207
  8724     1C10                     l4067:
  8725                           
  8726                           ;aplicacion.c: 113:         if(PORTAbits.RA2 == 0) {
  8727     1C10  1283               	bcf	3,5	;RP0=0, select bank0
  8728     1C11  1303               	bcf	3,6	;RP1=0, select bank0
  8729     1C12  1905               	btfsc	5,2	;volatile
  8730     1C13  2C15               	goto	u5441
  8731     1C14  2C16               	goto	u5440
  8732     1C15                     u5441:
  8733     1C15  2C1B               	goto	l4075
  8734     1C16                     u5440:
  8735     1C16                     l4069:
  8736                           
  8737                           ;aplicacion.c: 114:             prev = 0;
  8738     1C16  1683               	bsf	3,5	;RP0=1, select bank1
  8739     1C17  1303               	bcf	3,6	;RP1=0, select bank1
  8740     1C18  01EF               	clrf	LeerBoton@prev^(0+128)
  8741     1C19                     l4071:
  8742                           
  8743                           ;aplicacion.c: 115:             return 1;
  8744     1C19  3001               	movlw	1
  8745     1C1A  2C25               	goto	l298
  8746     1C1B                     l4075:
  8747                           
  8748                           ;aplicacion.c: 118:     if(curr == 1) prev = 1;
  8749     1C1B  0372               	decf	LeerBoton@curr,w
  8750     1C1C  1D03               	btfss	3,2
  8751     1C1D  2C1F               	goto	u5451
  8752     1C1E  2C20               	goto	u5450
  8753     1C1F                     u5451:
  8754     1C1F  2C24               	goto	l4079
  8755     1C20                     u5450:
  8756     1C20                     l4077:
  8757     1C20  3001               	movlw	1
  8758     1C21  1683               	bsf	3,5	;RP0=1, select bank1
  8759     1C22  1303               	bcf	3,6	;RP1=0, select bank1
  8760     1C23  00EF               	movwf	LeerBoton@prev^(0+128)
  8761     1C24                     l4079:
  8762                           
  8763                           ;aplicacion.c: 119:     return 0;
  8764     1C24  3000               	movlw	0
  8765     1C25                     l298:
  8766     1C25  0008               	return
  8767     1C26                     __end_of_LeerBoton:
  8768                           
  8769                           	psect	text37
  8770     1DAC                     __ptext37:	
  8771 ;; *************** function _GestorArchivos_GuardarLinea *****************
  8772 ;; Defined at:
  8773 ;;		line 11 in file "gestor_archivos.c"
  8774 ;; Parameters:    Size  Location     Type
  8775 ;;  nombre_archi    1   19[BANK0 ] PTR const unsigned char 
  8776 ;;		 -> STR_15(9), STR_11(9), 
  8777 ;;  linea           2   20[BANK0 ] PTR const unsigned char 
  8778 ;;		 -> buffer_datos(35), STR_12(22), 
  8779 ;; Auto vars:     Size  Location     Type
  8780 ;;  longitud        1   22[BANK0 ] unsigned char 
  8781 ;; Return value:  Size  Location     Type
  8782 ;;                  1    wreg      unsigned char 
  8783 ;; Registers used:
  8784 ;;		wreg, fsr0l, fsr0h, status,2, status,0, pclath, btemp1, cstack
  8785 ;; Tracked objects:
  8786 ;;		On entry : 0/0
  8787 ;;		On exit  : 0/0
  8788 ;;		Unchanged: 0/0
  8789 ;; Data sizes:     COMMON   BANK0   BANK1   BANK3   BANK2
  8790 ;;      Params:         0       3       0       0       0
  8791 ;;      Locals:         0       1       0       0       0
  8792 ;;      Temps:          0       0       0       0       0
  8793 ;;      Totals:         0       4       0       0       0
  8794 ;;Total ram usage:        4 bytes
  8795 ;; Hardware stack levels used: 1
  8796 ;; Hardware stack levels required when called: 2
  8797 ;; This function calls:
  8798 ;;		_Almacenamiento_EscribirDatos
  8799 ;; This function is called by:
  8800 ;;		_main
  8801 ;; This function uses a non-reentrant model
  8802 ;;
  8803                           
  8804     1DAC                     _GestorArchivos_GuardarLinea:	
  8805                           ;psect for function _GestorArchivos_GuardarLinea
  8806                           
  8807     1DAC                     l3963:	
  8808                           ;incstack = 0
  8809                           ; Regs used in _GestorArchivos_GuardarLinea: [wreg-fsr0h+status,2+status,0+pclath+btemp1
      +                          +cstack]
  8810                           
  8811                           
  8812                           ;gestor_archivos.c: 12:     uint8_t longitud = 0;
  8813     1DAC  1283               	bcf	3,5	;RP0=0, select bank0
  8814     1DAD  1303               	bcf	3,6	;RP1=0, select bank0
  8815     1DAE  01B6               	clrf	GestorArchivos_GuardarLinea@longitud
  8816                           
  8817                           ;gestor_archivos.c: 14:     while(linea[longitud] && longitud < 50) longitud++;
  8818     1DAF  2DB2               	goto	l3967
  8819     1DB0                     l3965:
  8820     1DB0  3001               	movlw	1
  8821     1DB1  07B6               	addwf	GestorArchivos_GuardarLinea@longitud,f
  8822     1DB2                     l3967:
  8823     1DB2  0836               	movf	GestorArchivos_GuardarLinea@longitud,w
  8824     1DB3  0734               	addwf	GestorArchivos_GuardarLinea@linea,w
  8825     1DB4  0084               	movwf	4
  8826     1DB5  0835               	movf	GestorArchivos_GuardarLinea@linea+1,w
  8827     1DB6  1803               	skipnc
  8828     1DB7  0A35               	incf	GestorArchivos_GuardarLinea@linea+1,w
  8829     1DB8  00FF               	movwf	btemp1
  8830     1DB9  120A  118A  2003  160A  158A  	fcall	stringtab
  8831     1DBE  3A00               	xorlw	0
  8832     1DBF  1903               	skipnz
  8833     1DC0  2DC2               	goto	u5281
  8834     1DC1  2DC3               	goto	u5280
  8835     1DC2                     u5281:
  8836     1DC2  2DC9               	goto	l3971
  8837     1DC3                     u5280:
  8838     1DC3                     l3969:
  8839     1DC3  3032               	movlw	50
  8840     1DC4  0236               	subwf	GestorArchivos_GuardarLinea@longitud,w
  8841     1DC5  1C03               	skipc
  8842     1DC6  2DC8               	goto	u5291
  8843     1DC7  2DC9               	goto	u5290
  8844     1DC8                     u5291:
  8845     1DC8  2DB0               	goto	l3965
  8846     1DC9                     u5290:
  8847     1DC9                     l3971:
  8848                           
  8849                           ;gestor_archivos.c: 16:     Almacenamiento_EscribirDatos(sector_actual, 0, (uint8_t*)lin
      +                          ea, longitud);
  8850     1DC9  1683               	bsf	3,5	;RP0=1, select bank3
  8851     1DCA  1703               	bsf	3,6	;RP1=1, select bank3
  8852     1DCB  083E               	movf	(_sector_actual+3)^(0+384),w
  8853     1DCC  1283               	bcf	3,5	;RP0=0, select bank0
  8854     1DCD  1303               	bcf	3,6	;RP1=0, select bank0
  8855     1DCE  00A7               	movwf	Almacenamiento_EscribirDatos@sector+3
  8856     1DCF  1683               	bsf	3,5	;RP0=1, select bank3
  8857     1DD0  1703               	bsf	3,6	;RP1=1, select bank3
  8858     1DD1  083D               	movf	(_sector_actual+2)^(0+384),w
  8859     1DD2  1283               	bcf	3,5	;RP0=0, select bank0
  8860     1DD3  1303               	bcf	3,6	;RP1=0, select bank0
  8861     1DD4  00A6               	movwf	Almacenamiento_EscribirDatos@sector+2
  8862     1DD5  1683               	bsf	3,5	;RP0=1, select bank3
  8863     1DD6  1703               	bsf	3,6	;RP1=1, select bank3
  8864     1DD7  083C               	movf	(_sector_actual+1)^(0+384),w
  8865     1DD8  1283               	bcf	3,5	;RP0=0, select bank0
  8866     1DD9  1303               	bcf	3,6	;RP1=0, select bank0
  8867     1DDA  00A5               	movwf	Almacenamiento_EscribirDatos@sector+1
  8868     1DDB  1683               	bsf	3,5	;RP0=1, select bank3
  8869     1DDC  1703               	bsf	3,6	;RP1=1, select bank3
  8870     1DDD  083B               	movf	_sector_actual^(0+384),w
  8871     1DDE  1283               	bcf	3,5	;RP0=0, select bank0
  8872     1DDF  1303               	bcf	3,6	;RP1=0, select bank0
  8873     1DE0  00A4               	movwf	Almacenamiento_EscribirDatos@sector
  8874     1DE1  3000               	movlw	0
  8875     1DE2  00A8               	movwf	Almacenamiento_EscribirDatos@desplazamiento
  8876     1DE3  00A9               	movwf	Almacenamiento_EscribirDatos@desplazamiento+1
  8877     1DE4  0834               	movf	GestorArchivos_GuardarLinea@linea,w
  8878     1DE5  00AA               	movwf	Almacenamiento_EscribirDatos@buffer
  8879     1DE6  0835               	movf	GestorArchivos_GuardarLinea@linea+1,w
  8880     1DE7  00AB               	movwf	Almacenamiento_EscribirDatos@buffer+1
  8881     1DE8  0836               	movf	GestorArchivos_GuardarLinea@longitud,w
  8882     1DE9  00AC               	movwf	Almacenamiento_EscribirDatos@longitud
  8883     1DEA  120A  158A  205C  160A  158A  	fcall	_Almacenamiento_EscribirDatos
  8884     1DEF                     l3973:
  8885                           
  8886                           ;gestor_archivos.c: 18:     sector_actual++;
  8887     1DEF  3001               	movlw	1
  8888     1DF0  1683               	bsf	3,5	;RP0=1, select bank3
  8889     1DF1  1703               	bsf	3,6	;RP1=1, select bank3
  8890     1DF2  07BB               	addwf	_sector_actual^(0+384),f
  8891     1DF3  3000               	movlw	0
  8892     1DF4  1803               	skipnc
  8893     1DF5  3001               	movlw	1
  8894     1DF6  07BC               	addwf	(_sector_actual+1)^(0+384),f
  8895     1DF7  3000               	movlw	0
  8896     1DF8  1803               	skipnc
  8897     1DF9  3001               	movlw	1
  8898     1DFA  07BD               	addwf	(_sector_actual+2)^(0+384),f
  8899     1DFB  3000               	movlw	0
  8900     1DFC  1803               	skipnc
  8901     1DFD  3001               	movlw	1
  8902     1DFE  07BE               	addwf	(_sector_actual+3)^(0+384),f
  8903     1DFF                     l3975:
  8904                           
  8905                           ;gestor_archivos.c: 20:     return 1;
  8906     1DFF  3001               	movlw	1
  8907     1E00                     l217:
  8908     1E00  0008               	return
  8909     1E01                     __end_of_GestorArchivos_GuardarLinea:
  8910                           
  8911                           	psect	text38
  8912     085C                     __ptext38:	
  8913 ;; *************** function _Almacenamiento_EscribirDatos *****************
  8914 ;; Defined at:
  8915 ;;		line 109 in file "controlador_almacenamiento.c"
  8916 ;; Parameters:    Size  Location     Type
  8917 ;;  sector          4    4[BANK0 ] unsigned long 
  8918 ;;  desplazamien    2    8[BANK0 ] unsigned short 
  8919 ;;  buffer          2   10[BANK0 ] PTR unsigned char 
  8920 ;;		 -> buffer_datos(35), STR_12(22), 
  8921 ;;  longitud        1   12[BANK0 ] unsigned char 
  8922 ;; Auto vars:     Size  Location     Type
  8923 ;;  i               2   17[BANK0 ] unsigned short 
  8924 ;;  respuesta       1   16[BANK0 ] unsigned char 
  8925 ;;  byte_dato       1   15[BANK0 ] unsigned char 
  8926 ;; Return value:  Size  Location     Type
  8927 ;;                  1    wreg      void 
  8928 ;; Registers used:
  8929 ;;		wreg, fsr0l, fsr0h, status,2, status,0, pclath, btemp1, cstack
  8930 ;; Tracked objects:
  8931 ;;		On entry : 0/0
  8932 ;;		On exit  : 0/0
  8933 ;;		Unchanged: 0/0
  8934 ;; Data sizes:     COMMON   BANK0   BANK1   BANK3   BANK2
  8935 ;;      Params:         0       9       0       0       0
  8936 ;;      Locals:         0       4       0       0       0
  8937 ;;      Temps:          0       2       0       0       0
  8938 ;;      Totals:         0      15       0       0       0
  8939 ;;Total ram usage:       15 bytes
  8940 ;; Hardware stack levels used: 1
  8941 ;; Hardware stack levels required when called: 1
  8942 ;; This function calls:
  8943 ;;		_Almacenamiento_EnviarComando
  8944 ;;		_Almacenamiento_TransferirSPI
  8945 ;; This function is called by:
  8946 ;;		_GestorArchivos_GuardarLinea
  8947 ;; This function uses a non-reentrant model
  8948 ;;
  8949                           
  8950     085C                     _Almacenamiento_EscribirDatos:	
  8951                           ;psect for function _Almacenamiento_EscribirDatos
  8952                           
  8953     085C                     l3415:	
  8954                           ;incstack = 0
  8955                           ; Regs used in _Almacenamiento_EscribirDatos: [wreg-fsr0h+status,2+status,0+pclath+btemp
      +                          1+cstack]
  8956                           
  8957                           
  8958                           ;controlador_almacenamiento.c: 110:     uint16_t i;;controlador_almacenamiento.c: 111:  
      +                             uint8_t respuesta, byte_dato;;controlador_almacenamiento.c: 113:     PORTBbits.RB0 = 
      +                          1;
  8959     085C  1283               	bcf	3,5	;RP0=0, select bank0
  8960     085D  1303               	bcf	3,6	;RP1=0, select bank0
  8961     085E  1406               	bsf	6,0	;volatile
  8962     085F                     l3417:
  8963                           
  8964                           ;controlador_almacenamiento.c: 114:     Almacenamiento_TransferirSPI(0xFF);
  8965     085F  30FF               	movlw	255
  8966     0860  160A  158A  23C8  120A  158A  	fcall	_Almacenamiento_TransferirSPI
  8967     0865                     l3419:
  8968                           
  8969                           ;controlador_almacenamiento.c: 115:     _delay((unsigned long)((1)*(20000000/4000.0)));
  8970     0865  3007               	movlw	7
  8971     0866  1283               	bcf	3,5	;RP0=0, select bank0
  8972     0867  1303               	bcf	3,6	;RP1=0, select bank0
  8973     0868  00AE               	movwf	??_Almacenamiento_EscribirDatos+1
  8974     0869  307C               	movlw	124
  8975     086A  00AD               	movwf	??_Almacenamiento_EscribirDatos
  8976     086B                     u6217:
  8977     086B  0BAD               	decfsz	??_Almacenamiento_EscribirDatos,f
  8978     086C  286B               	goto	u6217
  8979     086D  0BAE               	decfsz	??_Almacenamiento_EscribirDatos+1,f
  8980     086E  286B               	goto	u6217
  8981     086F  0000               	nop
  8982     0870                     l3421:
  8983                           
  8984                           ;controlador_almacenamiento.c: 117:     PORTBbits.RB0 = 0;
  8985     0870  1283               	bcf	3,5	;RP0=0, select bank0
  8986     0871  1303               	bcf	3,6	;RP1=0, select bank0
  8987     0872  1006               	bcf	6,0	;volatile
  8988     0873                     l3423:
  8989                           
  8990                           ;controlador_almacenamiento.c: 118:     _delay((unsigned long)((1)*(20000000/4000.0)));
  8991     0873  3007               	movlw	7
  8992     0874  1283               	bcf	3,5	;RP0=0, select bank0
  8993     0875  1303               	bcf	3,6	;RP1=0, select bank0
  8994     0876  00AE               	movwf	??_Almacenamiento_EscribirDatos+1
  8995     0877  307C               	movlw	124
  8996     0878  00AD               	movwf	??_Almacenamiento_EscribirDatos
  8997     0879                     u6227:
  8998     0879  0BAD               	decfsz	??_Almacenamiento_EscribirDatos,f
  8999     087A  2879               	goto	u6227
  9000     087B  0BAE               	decfsz	??_Almacenamiento_EscribirDatos+1,f
  9001     087C  2879               	goto	u6227
  9002     087D  0000               	nop
  9003                           
  9004                           ;controlador_almacenamiento.c: 120:     respuesta = Almacenamiento_EnviarComando(0x18, s
      +                          ector);
  9005     087E  1283               	bcf	3,5	;RP0=0, select bank0
  9006     087F  1303               	bcf	3,6	;RP1=0, select bank0
  9007     0880  0827               	movf	Almacenamiento_EscribirDatos@sector+3,w
  9008     0881  00F9               	movwf	Almacenamiento_EnviarComando@arg+3
  9009     0882  0826               	movf	Almacenamiento_EscribirDatos@sector+2,w
  9010     0883  00F8               	movwf	Almacenamiento_EnviarComando@arg+2
  9011     0884  0825               	movf	Almacenamiento_EscribirDatos@sector+1,w
  9012     0885  00F7               	movwf	Almacenamiento_EnviarComando@arg+1
  9013     0886  0824               	movf	Almacenamiento_EscribirDatos@sector,w
  9014     0887  00F6               	movwf	Almacenamiento_EnviarComando@arg
  9015     0888  3018               	movlw	24
  9016     0889  160A  118A  2088  120A  158A  	fcall	_Almacenamiento_EnviarComando
  9017     088E  1283               	bcf	3,5	;RP0=0, select bank0
  9018     088F  1303               	bcf	3,6	;RP1=0, select bank0
  9019     0890  00B0               	movwf	Almacenamiento_EscribirDatos@respuesta
  9020     0891                     l3425:
  9021                           
  9022                           ;controlador_almacenamiento.c: 121:     if(respuesta != 0x00){
  9023     0891  0830               	movf	Almacenamiento_EscribirDatos@respuesta,w
  9024     0892  1903               	btfsc	3,2
  9025     0893  2895               	goto	u4461
  9026     0894  2896               	goto	u4460
  9027     0895                     u4461:
  9028     0895  289E               	goto	l3433
  9029     0896                     u4460:
  9030     0896                     l3427:
  9031                           
  9032                           ;controlador_almacenamiento.c: 122:         PORTBbits.RB0 = 1;
  9033     0896  1406               	bsf	6,0	;volatile
  9034     0897                     l3429:
  9035                           
  9036                           ;controlador_almacenamiento.c: 123:         Almacenamiento_TransferirSPI(0xFF);
  9037     0897  30FF               	movlw	255
  9038     0898  160A  158A  23C8  120A  158A  	fcall	_Almacenamiento_TransferirSPI
  9039     089D  2958               	goto	l191
  9040     089E                     l3433:
  9041                           
  9042                           ;controlador_almacenamiento.c: 127:     _delay((unsigned long)((1)*(20000000/4000.0)));
  9043     089E  3007               	movlw	7
  9044     089F  1283               	bcf	3,5	;RP0=0, select bank0
  9045     08A0  1303               	bcf	3,6	;RP1=0, select bank0
  9046     08A1  00AE               	movwf	??_Almacenamiento_EscribirDatos+1
  9047     08A2  307C               	movlw	124
  9048     08A3  00AD               	movwf	??_Almacenamiento_EscribirDatos
  9049     08A4                     u6237:
  9050     08A4  0BAD               	decfsz	??_Almacenamiento_EscribirDatos,f
  9051     08A5  28A4               	goto	u6237
  9052     08A6  0BAE               	decfsz	??_Almacenamiento_EscribirDatos+1,f
  9053     08A7  28A4               	goto	u6237
  9054     08A8  0000               	nop
  9055     08A9                     l3435:
  9056                           
  9057                           ;controlador_almacenamiento.c: 129:     Almacenamiento_TransferirSPI(0xFE);
  9058     08A9  30FE               	movlw	254
  9059     08AA  160A  158A  23C8  120A  158A  	fcall	_Almacenamiento_TransferirSPI
  9060     08AF                     l3437:
  9061                           
  9062                           ;controlador_almacenamiento.c: 131:     for(i = 0; i < 512; i++){
  9063     08AF  1283               	bcf	3,5	;RP0=0, select bank0
  9064     08B0  1303               	bcf	3,6	;RP1=0, select bank0
  9065     08B1  01B1               	clrf	Almacenamiento_EscribirDatos@i
  9066     08B2  01B2               	clrf	Almacenamiento_EscribirDatos@i+1
  9067     08B3                     l3443:
  9068                           
  9069                           ;controlador_almacenamiento.c: 132:         if(i >= desplazamiento && i < (desplazamient
      +                          o + longitud)){
  9070     08B3  0829               	movf	Almacenamiento_EscribirDatos@desplazamiento+1,w
  9071     08B4  0232               	subwf	Almacenamiento_EscribirDatos@i+1,w
  9072     08B5  1D03               	skipz
  9073     08B6  28B9               	goto	u4475
  9074     08B7  0828               	movf	Almacenamiento_EscribirDatos@desplazamiento,w
  9075     08B8  0231               	subwf	Almacenamiento_EscribirDatos@i,w
  9076     08B9                     u4475:
  9077     08B9  1C03               	skipc
  9078     08BA  28BC               	goto	u4471
  9079     08BB  28BD               	goto	u4470
  9080     08BC                     u4471:
  9081     08BC  28E9               	goto	l3451
  9082     08BD                     u4470:
  9083     08BD                     l3445:
  9084     08BD  082C               	movf	Almacenamiento_EscribirDatos@longitud,w
  9085     08BE  0728               	addwf	Almacenamiento_EscribirDatos@desplazamiento,w
  9086     08BF  00AD               	movwf	??_Almacenamiento_EscribirDatos
  9087     08C0  0829               	movf	Almacenamiento_EscribirDatos@desplazamiento+1,w
  9088     08C1  1803               	skipnc
  9089     08C2  0A29               	incf	Almacenamiento_EscribirDatos@desplazamiento+1,w
  9090     08C3  00AE               	movwf	??_Almacenamiento_EscribirDatos+1
  9091     08C4  082E               	movf	??_Almacenamiento_EscribirDatos+1,w
  9092     08C5  0232               	subwf	Almacenamiento_EscribirDatos@i+1,w
  9093     08C6  1D03               	skipz
  9094     08C7  28CA               	goto	u4485
  9095     08C8  082D               	movf	??_Almacenamiento_EscribirDatos,w
  9096     08C9  0231               	subwf	Almacenamiento_EscribirDatos@i,w
  9097     08CA                     u4485:
  9098     08CA  1803               	skipnc
  9099     08CB  28CD               	goto	u4481
  9100     08CC  28CE               	goto	u4480
  9101     08CD                     u4481:
  9102     08CD  28E9               	goto	l3451
  9103     08CE                     u4480:
  9104     08CE                     l3447:
  9105                           
  9106                           ;controlador_almacenamiento.c: 133:             byte_dato = buffer[i - desplazamiento];
  9107     08CE  082B               	movf	Almacenamiento_EscribirDatos@buffer+1,w
  9108     08CF  00AE               	movwf	??_Almacenamiento_EscribirDatos+1
  9109     08D0  0828               	movf	Almacenamiento_EscribirDatos@desplazamiento,w
  9110     08D1  022A               	subwf	Almacenamiento_EscribirDatos@buffer,w
  9111     08D2  00AD               	movwf	??_Almacenamiento_EscribirDatos
  9112     08D3  1C03               	skipc
  9113     08D4  03AE               	decf	??_Almacenamiento_EscribirDatos+1,f
  9114     08D5  0831               	movf	Almacenamiento_EscribirDatos@i,w
  9115     08D6  072D               	addwf	??_Almacenamiento_EscribirDatos,w
  9116     08D7  0084               	movwf	4
  9117     08D8  082E               	movf	??_Almacenamiento_EscribirDatos+1,w
  9118     08D9  1803               	skipnc
  9119     08DA  0A2E               	incf	??_Almacenamiento_EscribirDatos+1,w
  9120     08DB  00FF               	movwf	btemp1
  9121     08DC  120A  118A  2003  120A  158A  	fcall	stringtab
  9122     08E1  00AF               	movwf	Almacenamiento_EscribirDatos@byte_dato
  9123     08E2                     l3449:
  9124                           
  9125                           ;controlador_almacenamiento.c: 134:             Almacenamiento_TransferirSPI(byte_dato);
  9126     08E2  082F               	movf	Almacenamiento_EscribirDatos@byte_dato,w
  9127     08E3  160A  158A  23C8  120A  158A  	fcall	_Almacenamiento_TransferirSPI
  9128                           
  9129                           ;controlador_almacenamiento.c: 135:         } else {
  9130     08E8  28EF               	goto	l3453
  9131     08E9                     l3451:
  9132                           
  9133                           ;controlador_almacenamiento.c: 136:             Almacenamiento_TransferirSPI(0xFF);
  9134     08E9  30FF               	movlw	255
  9135     08EA  160A  158A  23C8  120A  158A  	fcall	_Almacenamiento_TransferirSPI
  9136     08EF                     l3453:
  9137                           
  9138                           ;controlador_almacenamiento.c: 138:     }
  9139     08EF  3001               	movlw	1
  9140     08F0  1283               	bcf	3,5	;RP0=0, select bank0
  9141     08F1  1303               	bcf	3,6	;RP1=0, select bank0
  9142     08F2  07B1               	addwf	Almacenamiento_EscribirDatos@i,f
  9143     08F3  1803               	skipnc
  9144     08F4  0AB2               	incf	Almacenamiento_EscribirDatos@i+1,f
  9145     08F5  3000               	movlw	0
  9146     08F6  07B2               	addwf	Almacenamiento_EscribirDatos@i+1,f
  9147     08F7                     l3455:
  9148     08F7  3002               	movlw	2
  9149     08F8  0232               	subwf	Almacenamiento_EscribirDatos@i+1,w
  9150     08F9  3000               	movlw	0
  9151     08FA  1903               	skipnz
  9152     08FB  0231               	subwf	Almacenamiento_EscribirDatos@i,w
  9153     08FC  1C03               	skipc
  9154     08FD  28FF               	goto	u4491
  9155     08FE  2900               	goto	u4490
  9156     08FF                     u4491:
  9157     08FF  28B3               	goto	l3443
  9158     0900                     u4490:
  9159     0900                     l3457:
  9160                           
  9161                           ;controlador_almacenamiento.c: 140:     Almacenamiento_TransferirSPI(0xFF);
  9162     0900  30FF               	movlw	255
  9163     0901  160A  158A  23C8  120A  158A  	fcall	_Almacenamiento_TransferirSPI
  9164                           
  9165                           ;controlador_almacenamiento.c: 141:     Almacenamiento_TransferirSPI(0xFF);
  9166     0906  30FF               	movlw	255
  9167     0907  160A  158A  23C8  120A  158A  	fcall	_Almacenamiento_TransferirSPI
  9168                           
  9169                           ;controlador_almacenamiento.c: 143:     respuesta = Almacenamiento_TransferirSPI(0xFF);
  9170     090C  30FF               	movlw	255
  9171     090D  160A  158A  23C8  120A  158A  	fcall	_Almacenamiento_TransferirSPI
  9172     0912  1283               	bcf	3,5	;RP0=0, select bank0
  9173     0913  1303               	bcf	3,6	;RP1=0, select bank0
  9174     0914  00B0               	movwf	Almacenamiento_EscribirDatos@respuesta
  9175     0915                     l3459:
  9176                           
  9177                           ;controlador_almacenamiento.c: 145:     if((respuesta & 0x1F) != 0x05){
  9178     0915  301F               	movlw	31
  9179     0916  0530               	andwf	Almacenamiento_EscribirDatos@respuesta,w
  9180     0917  00AD               	movwf	??_Almacenamiento_EscribirDatos
  9181     0918  3005               	movlw	5
  9182     0919  062D               	xorwf	??_Almacenamiento_EscribirDatos,w
  9183     091A  1903               	btfsc	3,2
  9184     091B  291D               	goto	u4501
  9185     091C  291E               	goto	u4500
  9186     091D                     u4501:
  9187     091D  2926               	goto	l3467
  9188     091E                     u4500:
  9189     091E                     l3461:
  9190                           
  9191                           ;controlador_almacenamiento.c: 146:         PORTBbits.RB0 = 1;
  9192     091E  1406               	bsf	6,0	;volatile
  9193     091F                     l3463:
  9194                           
  9195                           ;controlador_almacenamiento.c: 147:         Almacenamiento_TransferirSPI(0xFF);
  9196     091F  30FF               	movlw	255
  9197     0920  160A  158A  23C8  120A  158A  	fcall	_Almacenamiento_TransferirSPI
  9198     0925  2958               	goto	l191
  9199     0926                     l3467:
  9200                           
  9201                           ;controlador_almacenamiento.c: 151:     i = 0;
  9202     0926  01B1               	clrf	Almacenamiento_EscribirDatos@i
  9203     0927  01B2               	clrf	Almacenamiento_EscribirDatos@i+1
  9204                           
  9205                           ;controlador_almacenamiento.c: 152:     while(i < 60000){
  9206     0928  293E               	goto	l197
  9207     0929                     l3469:
  9208                           
  9209                           ;controlador_almacenamiento.c: 153:         respuesta = Almacenamiento_TransferirSPI(0xF
      +                          F);
  9210     0929  30FF               	movlw	255
  9211     092A  160A  158A  23C8  120A  158A  	fcall	_Almacenamiento_TransferirSPI
  9212     092F  1283               	bcf	3,5	;RP0=0, select bank0
  9213     0930  1303               	bcf	3,6	;RP1=0, select bank0
  9214     0931  00B0               	movwf	Almacenamiento_EscribirDatos@respuesta
  9215     0932                     l3471:
  9216                           
  9217                           ;controlador_almacenamiento.c: 154:         if(respuesta != 0x00){
  9218     0932  0830               	movf	Almacenamiento_EscribirDatos@respuesta,w
  9219     0933  1903               	btfsc	3,2
  9220     0934  2936               	goto	u4511
  9221     0935  2937               	goto	u4510
  9222     0936                     u4511:
  9223     0936  2938               	goto	l3475
  9224     0937                     u4510:
  9225     0937  2947               	goto	l200
  9226     0938                     l3475:
  9227                           
  9228                           ;controlador_almacenamiento.c: 157:         i++;
  9229     0938  3001               	movlw	1
  9230     0939  07B1               	addwf	Almacenamiento_EscribirDatos@i,f
  9231     093A  1803               	skipnc
  9232     093B  0AB2               	incf	Almacenamiento_EscribirDatos@i+1,f
  9233     093C  3000               	movlw	0
  9234     093D  07B2               	addwf	Almacenamiento_EscribirDatos@i+1,f
  9235     093E                     l197:	
  9236                           ;controlador_almacenamiento.c: 158:     }
  9237                           
  9238                           
  9239                           ;controlador_almacenamiento.c: 152:     while(i < 60000){
  9240     093E  30EA               	movlw	234
  9241     093F  0232               	subwf	Almacenamiento_EscribirDatos@i+1,w
  9242     0940  3060               	movlw	96
  9243     0941  1903               	skipnz
  9244     0942  0231               	subwf	Almacenamiento_EscribirDatos@i,w
  9245     0943  1C03               	skipc
  9246     0944  2946               	goto	u4521
  9247     0945  2947               	goto	u4520
  9248     0946                     u4521:
  9249     0946  2929               	goto	l3469
  9250     0947                     u4520:
  9251     0947                     l200:
  9252                           
  9253                           ;controlador_almacenamiento.c: 160:     PORTBbits.RB0 = 1;
  9254     0947  1406               	bsf	6,0	;volatile
  9255     0948                     l3477:
  9256                           
  9257                           ;controlador_almacenamiento.c: 161:     Almacenamiento_TransferirSPI(0xFF);
  9258     0948  30FF               	movlw	255
  9259     0949  160A  158A  23C8  120A  158A  	fcall	_Almacenamiento_TransferirSPI
  9260     094E                     l3479:
  9261                           
  9262                           ;controlador_almacenamiento.c: 162:     _delay((unsigned long)((20)*(20000000/4000.0)));
  9263     094E  3082               	movlw	130
  9264     094F  1283               	bcf	3,5	;RP0=0, select bank0
  9265     0950  1303               	bcf	3,6	;RP1=0, select bank0
  9266     0951  00AE               	movwf	??_Almacenamiento_EscribirDatos+1
  9267     0952  30DD               	movlw	221
  9268     0953  00AD               	movwf	??_Almacenamiento_EscribirDatos
  9269     0954                     u6247:
  9270     0954  0BAD               	decfsz	??_Almacenamiento_EscribirDatos,f
  9271     0955  2954               	goto	u6247
  9272     0956  0BAE               	decfsz	??_Almacenamiento_EscribirDatos+1,f
  9273     0957  2954               	goto	u6247
  9274     0958                     l191:
  9275     0958  0008               	return
  9276     0959                     __end_of_Almacenamiento_EscribirDatos:
  9277                           
  9278                           	psect	text39
  9279     1A40                     __ptext39:	
  9280 ;; *************** function _GestorArchivos_Configurar *****************
  9281 ;; Defined at:
  9282 ;;		line 6 in file "gestor_archivos.c"
  9283 ;; Parameters:    Size  Location     Type
  9284 ;;		None
  9285 ;; Auto vars:     Size  Location     Type
  9286 ;;		None
  9287 ;; Return value:  Size  Location     Type
  9288 ;;                  1    wreg      unsigned char 
  9289 ;; Registers used:
  9290 ;;		wreg
  9291 ;; Tracked objects:
  9292 ;;		On entry : 0/0
  9293 ;;		On exit  : 0/0
  9294 ;;		Unchanged: 0/0
  9295 ;; Data sizes:     COMMON   BANK0   BANK1   BANK3   BANK2
  9296 ;;      Params:         0       0       0       0       0
  9297 ;;      Locals:         0       0       0       0       0
  9298 ;;      Temps:          0       0       0       0       0
  9299 ;;      Totals:         0       0       0       0       0
  9300 ;;Total ram usage:        0 bytes
  9301 ;; Hardware stack levels used: 1
  9302 ;; This function calls:
  9303 ;;		Nothing
  9304 ;; This function is called by:
  9305 ;;		_main
  9306 ;; This function uses a non-reentrant model
  9307 ;;
  9308                           
  9309     1A40                     _GestorArchivos_Configurar:	
  9310                           ;psect for function _GestorArchivos_Configurar
  9311                           
  9312     1A40                     l3959:	
  9313                           ;incstack = 0
  9314                           ; Regs used in _GestorArchivos_Configurar: [wreg]
  9315                           
  9316                           
  9317                           ;gestor_archivos.c: 7:     sector_actual = 1000;
  9318     1A40  3000               	movlw	0
  9319     1A41  1683               	bsf	3,5	;RP0=1, select bank3
  9320     1A42  1703               	bsf	3,6	;RP1=1, select bank3
  9321     1A43  00BE               	movwf	(_sector_actual+3)^(0+384)
  9322     1A44  3000               	movlw	0
  9323     1A45  00BD               	movwf	(_sector_actual+2)^(0+384)
  9324     1A46  3003               	movlw	3
  9325     1A47  00BC               	movwf	(_sector_actual+1)^(0+384)
  9326     1A48  30E8               	movlw	232
  9327     1A49  00BB               	movwf	_sector_actual^(0+384)
  9328                           
  9329                           ;gestor_archivos.c: 8:     return 1;
  9330     1A4A  3001               	movlw	1
  9331     1A4B                     l209:
  9332     1A4B  0008               	return
  9333     1A4C                     __end_of_GestorArchivos_Configurar:
  9334                           
  9335                           	psect	text40
  9336     0959                     __ptext40:	
  9337 ;; *************** function _CalcStats *****************
  9338 ;; Defined at:
  9339 ;;		line 58 in file "aplicacion.c"
  9340 ;; Parameters:    Size  Location     Type
  9341 ;;		None
  9342 ;; Auto vars:     Size  Location     Type
  9343 ;;  suma            4    2[BANK1 ] float 
  9344 ;;  i               1    7[BANK1 ] unsigned char 
  9345 ;;  n               1    6[BANK1 ] unsigned char 
  9346 ;; Return value:  Size  Location     Type
  9347 ;;                  1    wreg      void 
  9348 ;; Registers used:
  9349 ;;		wreg, fsr0l, fsr0h, status,2, status,0, pclath, btemp1, cstack
  9350 ;; Tracked objects:
  9351 ;;		On entry : 0/0
  9352 ;;		On exit  : 0/0
  9353 ;;		Unchanged: 0/0
  9354 ;; Data sizes:     COMMON   BANK0   BANK1   BANK3   BANK2
  9355 ;;      Params:         0       0       0       0       0
  9356 ;;      Locals:         0       0       8       0       0
  9357 ;;      Temps:          0       4       0       0       0
  9358 ;;      Totals:         0       4       8       0       0
  9359 ;;Total ram usage:       12 bytes
  9360 ;; Hardware stack levels used: 1
  9361 ;; Hardware stack levels required when called: 1
  9362 ;; This function calls:
  9363 ;;		___fladd
  9364 ;;		___fldiv
  9365 ;;		___flge
  9366 ;;		___xxtofl
  9367 ;; This function is called by:
  9368 ;;		_main
  9369 ;; This function uses a non-reentrant model
  9370 ;;
  9371                           
  9372     0959                     _CalcStats:	
  9373                           ;psect for function _CalcStats
  9374                           
  9375     0959                     l3989:	
  9376                           ;incstack = 0
  9377                           ; Regs used in _CalcStats: [wreg-fsr0h+status,2+status,0+pclath+btemp1+cstack]
  9378                           
  9379                           
  9380                           ;aplicacion.c: 59:     uint8_t n = buffer_lleno ? 4 : idx_buffer;
  9381     0959  1683               	bsf	3,5	;RP0=1, select bank1
  9382     095A  1303               	bcf	3,6	;RP1=0, select bank1
  9383     095B  086C               	movf	_buffer_lleno^(0+128),w
  9384     095C  1D03               	btfss	3,2
  9385     095D  295F               	goto	u5321
  9386     095E  2960               	goto	u5320
  9387     095F                     u5321:
  9388     095F  2970               	goto	l3993
  9389     0960                     u5320:
  9390     0960                     l3991:
  9391     0960  086D               	movf	_idx_buffer^(0+128),w
  9392     0961  1283               	bcf	3,5	;RP0=0, select bank0
  9393     0962  1303               	bcf	3,6	;RP1=0, select bank0
  9394     0963  00E8               	movwf	??_CalcStats
  9395     0964  01E9               	clrf	??_CalcStats+1
  9396     0965  0868               	movf	??_CalcStats,w
  9397     0966  1683               	bsf	3,5	;RP0=1, select bank1
  9398     0967  1303               	bcf	3,6	;RP1=0, select bank1
  9399     0968  00A0               	movwf	_CalcStats$464^(0+128)
  9400     0969  1283               	bcf	3,5	;RP0=0, select bank0
  9401     096A  1303               	bcf	3,6	;RP1=0, select bank0
  9402     096B  0869               	movf	??_CalcStats+1,w
  9403     096C  1683               	bsf	3,5	;RP0=1, select bank1
  9404     096D  1303               	bcf	3,6	;RP1=0, select bank1
  9405     096E  00A1               	movwf	(_CalcStats$464+1)^(0+128)
  9406     096F  2974               	goto	l278
  9407     0970                     l3993:
  9408     0970  3004               	movlw	4
  9409     0971  00A0               	movwf	_CalcStats$464^(0+128)
  9410     0972  3000               	movlw	0
  9411     0973  00A1               	movwf	(_CalcStats$464^(0+128)+1)
  9412     0974                     l278:
  9413     0974  0820               	movf	_CalcStats$464^(0+128),w
  9414     0975  00A6               	movwf	CalcStats@n^(0+128)
  9415                           
  9416                           ;aplicacion.c: 60:     uint8_t i;;aplicacion.c: 61:     float suma = 0;
  9417     0976  3000               	movlw	0
  9418     0977  00A5               	movwf	(CalcStats@suma+3)^(0+128)
  9419     0978  3000               	movlw	0
  9420     0979  00A4               	movwf	(CalcStats@suma+2)^(0+128)
  9421     097A  3000               	movlw	0
  9422     097B  00A3               	movwf	(CalcStats@suma+1)^(0+128)
  9423     097C  3000               	movlw	0
  9424     097D  00A2               	movwf	CalcStats@suma^(0+128)
  9425     097E                     l3995:
  9426                           
  9427                           ;aplicacion.c: 63:     if(n == 0) return;
  9428     097E  0826               	movf	CalcStats@n^(0+128),w
  9429     097F  1D03               	btfss	3,2
  9430     0980  2982               	goto	u5331
  9431     0981  2983               	goto	u5330
  9432     0982                     u5331:
  9433     0982  2984               	goto	l3999
  9434     0983                     u5330:
  9435     0983  2AF3               	goto	l280
  9436     0984                     l3999:
  9437                           
  9438                           ;aplicacion.c: 65:     stats.n = n;
  9439     0984  0826               	movf	CalcStats@n^(0+128),w
  9440     0985  00DF               	movwf	_stats^(0+128)
  9441                           
  9442                           ;aplicacion.c: 66:     stats.min = buffer_temp[0];
  9443     0986  0852               	movf	(_buffer_temp+3)^(0+128),w
  9444     0987  00E3               	movwf	((_stats+3)^(0+128)+1)
  9445     0988  0851               	movf	(_buffer_temp+2)^(0+128),w
  9446     0989  00E2               	movwf	((_stats+2)^(0+128)+1)
  9447     098A  0850               	movf	(_buffer_temp+1)^(0+128),w
  9448     098B  00E1               	movwf	((_stats+1)^(0+128)+1)
  9449     098C  084F               	movf	_buffer_temp^(0+128),w
  9450     098D  00E0               	movwf	(_stats^(0+128)+1)
  9451                           
  9452                           ;aplicacion.c: 67:     stats.max = buffer_temp[0];
  9453     098E  0852               	movf	(_buffer_temp+3)^(0+128),w
  9454     098F  00E7               	movwf	((_stats+3)^(0+128)+5)
  9455     0990  0851               	movf	(_buffer_temp+2)^(0+128),w
  9456     0991  00E6               	movwf	((_stats+2)^(0+128)+5)
  9457     0992  0850               	movf	(_buffer_temp+1)^(0+128),w
  9458     0993  00E5               	movwf	((_stats+1)^(0+128)+5)
  9459     0994  084F               	movf	_buffer_temp^(0+128),w
  9460     0995  00E4               	movwf	(_stats^(0+128)+5)
  9461     0996                     l4001:
  9462                           
  9463                           ;aplicacion.c: 69:     for(i = 0; i < n; i++) {
  9464     0996  01A7               	clrf	CalcStats@i^(0+128)
  9465     0997  2A99               	goto	l4015
  9466     0998                     l4003:
  9467                           
  9468                           ;aplicacion.c: 70:         suma += buffer_temp[i];
  9469     0998  0827               	movf	CalcStats@i^(0+128),w
  9470     0999  1283               	bcf	3,5	;RP0=0, select bank0
  9471     099A  1303               	bcf	3,6	;RP1=0, select bank0
  9472     099B  00E8               	movwf	??_CalcStats
  9473     099C  3001               	movlw	1
  9474     099D                     u5345:
  9475     099D  1003               	clrc
  9476     099E  0DE8               	rlf	??_CalcStats,f
  9477     099F  3EFF               	addlw	-1
  9478     09A0  1D03               	skipz
  9479     09A1  299D               	goto	u5345
  9480     09A2  1003               	clrc
  9481     09A3  0D68               	rlf	??_CalcStats,w
  9482     09A4  3ECF               	addlw	(low (_buffer_temp| 0))& (0+255)
  9483     09A5  0084               	movwf	4
  9484     09A6  1383               	bcf	3,7	;select IRP bank1
  9485     09A7  0800               	movf	0,w
  9486     09A8  00D4               	movwf	___fladd@b
  9487     09A9  0A84               	incf	4,f
  9488     09AA  0800               	movf	0,w
  9489     09AB  00D5               	movwf	___fladd@b+1
  9490     09AC  0A84               	incf	4,f
  9491     09AD  0800               	movf	0,w
  9492     09AE  00D6               	movwf	___fladd@b+2
  9493     09AF  0A84               	incf	4,f
  9494     09B0  0800               	movf	0,w
  9495     09B1  00D7               	movwf	___fladd@b+3
  9496     09B2  1683               	bsf	3,5	;RP0=1, select bank1
  9497     09B3  1303               	bcf	3,6	;RP1=0, select bank1
  9498     09B4  0825               	movf	(CalcStats@suma+3)^(0+128),w
  9499     09B5  1283               	bcf	3,5	;RP0=0, select bank0
  9500     09B6  1303               	bcf	3,6	;RP1=0, select bank0
  9501     09B7  00DB               	movwf	___fladd@a+3
  9502     09B8  1683               	bsf	3,5	;RP0=1, select bank1
  9503     09B9  1303               	bcf	3,6	;RP1=0, select bank1
  9504     09BA  0824               	movf	(CalcStats@suma+2)^(0+128),w
  9505     09BB  1283               	bcf	3,5	;RP0=0, select bank0
  9506     09BC  1303               	bcf	3,6	;RP1=0, select bank0
  9507     09BD  00DA               	movwf	___fladd@a+2
  9508     09BE  1683               	bsf	3,5	;RP0=1, select bank1
  9509     09BF  1303               	bcf	3,6	;RP1=0, select bank1
  9510     09C0  0823               	movf	(CalcStats@suma+1)^(0+128),w
  9511     09C1  1283               	bcf	3,5	;RP0=0, select bank0
  9512     09C2  1303               	bcf	3,6	;RP1=0, select bank0
  9513     09C3  00D9               	movwf	___fladd@a+1
  9514     09C4  1683               	bsf	3,5	;RP0=1, select bank1
  9515     09C5  1303               	bcf	3,6	;RP1=0, select bank1
  9516     09C6  0822               	movf	CalcStats@suma^(0+128),w
  9517     09C7  1283               	bcf	3,5	;RP0=0, select bank0
  9518     09C8  1303               	bcf	3,6	;RP1=0, select bank0
  9519     09C9  00D8               	movwf	___fladd@a
  9520     09CA  120A  118A  2078  120A  158A  	fcall	___fladd
  9521     09CF  1283               	bcf	3,5	;RP0=0, select bank0
  9522     09D0  1303               	bcf	3,6	;RP1=0, select bank0
  9523     09D1  0857               	movf	?___fladd+3,w
  9524     09D2  1683               	bsf	3,5	;RP0=1, select bank1
  9525     09D3  1303               	bcf	3,6	;RP1=0, select bank1
  9526     09D4  00A5               	movwf	(CalcStats@suma+3)^(0+128)
  9527     09D5  1283               	bcf	3,5	;RP0=0, select bank0
  9528     09D6  1303               	bcf	3,6	;RP1=0, select bank0
  9529     09D7  0856               	movf	?___fladd+2,w
  9530     09D8  1683               	bsf	3,5	;RP0=1, select bank1
  9531     09D9  1303               	bcf	3,6	;RP1=0, select bank1
  9532     09DA  00A4               	movwf	(CalcStats@suma+2)^(0+128)
  9533     09DB  1283               	bcf	3,5	;RP0=0, select bank0
  9534     09DC  1303               	bcf	3,6	;RP1=0, select bank0
  9535     09DD  0855               	movf	?___fladd+1,w
  9536     09DE  1683               	bsf	3,5	;RP0=1, select bank1
  9537     09DF  1303               	bcf	3,6	;RP1=0, select bank1
  9538     09E0  00A3               	movwf	(CalcStats@suma+1)^(0+128)
  9539     09E1  1283               	bcf	3,5	;RP0=0, select bank0
  9540     09E2  1303               	bcf	3,6	;RP1=0, select bank0
  9541     09E3  0854               	movf	?___fladd,w
  9542     09E4  1683               	bsf	3,5	;RP0=1, select bank1
  9543     09E5  1303               	bcf	3,6	;RP1=0, select bank1
  9544     09E6  00A2               	movwf	CalcStats@suma^(0+128)
  9545     09E7                     l4005:
  9546                           
  9547                           ;aplicacion.c: 71:         if(buffer_temp[i] < stats.min) stats.min = buffer_temp[i];
  9548     09E7  0827               	movf	CalcStats@i^(0+128),w
  9549     09E8  1283               	bcf	3,5	;RP0=0, select bank0
  9550     09E9  1303               	bcf	3,6	;RP1=0, select bank0
  9551     09EA  00E8               	movwf	??_CalcStats
  9552     09EB  3001               	movlw	1
  9553     09EC                     u5355:
  9554     09EC  1003               	clrc
  9555     09ED  0DE8               	rlf	??_CalcStats,f
  9556     09EE  3EFF               	addlw	-1
  9557     09EF  1D03               	skipz
  9558     09F0  29EC               	goto	u5355
  9559     09F1  1003               	clrc
  9560     09F2  0D68               	rlf	??_CalcStats,w
  9561     09F3  3ECF               	addlw	(low (_buffer_temp| 0))& (0+255)
  9562     09F4  0084               	movwf	4
  9563     09F5  1383               	bcf	3,7	;select IRP bank1
  9564     09F6  0800               	movf	0,w
  9565     09F7  00F0               	movwf	___flge@ff1
  9566     09F8  0A84               	incf	4,f
  9567     09F9  0800               	movf	0,w
  9568     09FA  00F1               	movwf	___flge@ff1+1
  9569     09FB  0A84               	incf	4,f
  9570     09FC  0800               	movf	0,w
  9571     09FD  00F2               	movwf	___flge@ff1+2
  9572     09FE  0A84               	incf	4,f
  9573     09FF  0800               	movf	0,w
  9574     0A00  00F3               	movwf	___flge@ff1+3
  9575     0A01  30E0               	movlw	low (_stats+1)
  9576     0A02  00E9               	movwf	??_CalcStats+1
  9577     0A03  3000               	movlw	high (_stats+1)
  9578     0A04  00EA               	movwf	??_CalcStats+2
  9579     0A05  0869               	movf	??_CalcStats+1,w
  9580     0A06  0084               	movwf	4
  9581     0A07  1783               	bsf	3,7
  9582     0A08  1C6A               	btfss	??_CalcStats+2,0
  9583     0A09  1383               	bcf	3,7
  9584     0A0A  0800               	movf	0,w
  9585     0A0B  00F4               	movwf	___flge@ff2
  9586     0A0C  0A84               	incf	4,f
  9587     0A0D  0800               	movf	0,w
  9588     0A0E  00F5               	movwf	___flge@ff2+1
  9589     0A0F  0A84               	incf	4,f
  9590     0A10  0800               	movf	0,w
  9591     0A11  00F6               	movwf	___flge@ff2+2
  9592     0A12  0A84               	incf	4,f
  9593     0A13  0800               	movf	0,w
  9594     0A14  00F7               	movwf	___flge@ff2+3
  9595     0A15  160A  118A  211A  120A  158A  	fcall	___flge
  9596     0A1A  1803               	btfsc	3,0
  9597     0A1B  2A1D               	goto	u5361
  9598     0A1C  2A1E               	goto	u5360
  9599     0A1D                     u5361:
  9600     0A1D  2A3C               	goto	l4009
  9601     0A1E                     u5360:
  9602     0A1E                     l4007:
  9603     0A1E  1683               	bsf	3,5	;RP0=1, select bank1
  9604     0A1F  1303               	bcf	3,6	;RP1=0, select bank1
  9605     0A20  0827               	movf	CalcStats@i^(0+128),w
  9606     0A21  1283               	bcf	3,5	;RP0=0, select bank0
  9607     0A22  1303               	bcf	3,6	;RP1=0, select bank0
  9608     0A23  00E8               	movwf	??_CalcStats
  9609     0A24  3001               	movlw	1
  9610     0A25                     u5375:
  9611     0A25  1003               	clrc
  9612     0A26  0DE8               	rlf	??_CalcStats,f
  9613     0A27  3EFF               	addlw	-1
  9614     0A28  1D03               	skipz
  9615     0A29  2A25               	goto	u5375
  9616     0A2A  1003               	clrc
  9617     0A2B  0D68               	rlf	??_CalcStats,w
  9618     0A2C  3ECF               	addlw	(low (_buffer_temp| 0))& (0+255)
  9619     0A2D  0084               	movwf	4
  9620     0A2E  1383               	bcf	3,7	;select IRP bank1
  9621     0A2F  0800               	movf	0,w
  9622     0A30  1683               	bsf	3,5	;RP0=1, select bank1
  9623     0A31  1303               	bcf	3,6	;RP1=0, select bank1
  9624     0A32  00E0               	movwf	(_stats^(0+128)+1)
  9625     0A33  0A84               	incf	4,f
  9626     0A34  0800               	movf	0,w
  9627     0A35  00E1               	movwf	((_stats+1)^(0+128)+1)
  9628     0A36  0A84               	incf	4,f
  9629     0A37  0800               	movf	0,w
  9630     0A38  00E2               	movwf	((_stats+2)^(0+128)+1)
  9631     0A39  0A84               	incf	4,f
  9632     0A3A  0800               	movf	0,w
  9633     0A3B  00E3               	movwf	((_stats+3)^(0+128)+1)
  9634     0A3C                     l4009:
  9635                           
  9636                           ;aplicacion.c: 72:         if(buffer_temp[i] > stats.max) stats.max = buffer_temp[i];
  9637     0A3C  30E4               	movlw	low (_stats+5)
  9638     0A3D  1283               	bcf	3,5	;RP0=0, select bank0
  9639     0A3E  1303               	bcf	3,6	;RP1=0, select bank0
  9640     0A3F  00E8               	movwf	??_CalcStats
  9641     0A40  3000               	movlw	high (_stats+5)
  9642     0A41  00E9               	movwf	??_CalcStats+1
  9643     0A42  0868               	movf	??_CalcStats,w
  9644     0A43  0084               	movwf	4
  9645     0A44  1783               	bsf	3,7
  9646     0A45  1C69               	btfss	??_CalcStats+1,0
  9647     0A46  1383               	bcf	3,7
  9648     0A47  0800               	movf	0,w
  9649     0A48  00F0               	movwf	___flge@ff1
  9650     0A49  0A84               	incf	4,f
  9651     0A4A  0800               	movf	0,w
  9652     0A4B  00F1               	movwf	___flge@ff1+1
  9653     0A4C  0A84               	incf	4,f
  9654     0A4D  0800               	movf	0,w
  9655     0A4E  00F2               	movwf	___flge@ff1+2
  9656     0A4F  0A84               	incf	4,f
  9657     0A50  0800               	movf	0,w
  9658     0A51  00F3               	movwf	___flge@ff1+3
  9659     0A52  1683               	bsf	3,5	;RP0=1, select bank1
  9660     0A53  1303               	bcf	3,6	;RP1=0, select bank1
  9661     0A54  0827               	movf	CalcStats@i^(0+128),w
  9662     0A55  1283               	bcf	3,5	;RP0=0, select bank0
  9663     0A56  1303               	bcf	3,6	;RP1=0, select bank0
  9664     0A57  00EA               	movwf	??_CalcStats+2
  9665     0A58  3001               	movlw	1
  9666     0A59                     u5385:
  9667     0A59  1003               	clrc
  9668     0A5A  0DEA               	rlf	??_CalcStats+2,f
  9669     0A5B  3EFF               	addlw	-1
  9670     0A5C  1D03               	skipz
  9671     0A5D  2A59               	goto	u5385
  9672     0A5E  1003               	clrc
  9673     0A5F  0D6A               	rlf	??_CalcStats+2,w
  9674     0A60  3ECF               	addlw	(low (_buffer_temp| 0))& (0+255)
  9675     0A61  0084               	movwf	4
  9676     0A62  1383               	bcf	3,7	;select IRP bank1
  9677     0A63  0800               	movf	0,w
  9678     0A64  00F4               	movwf	___flge@ff2
  9679     0A65  0A84               	incf	4,f
  9680     0A66  0800               	movf	0,w
  9681     0A67  00F5               	movwf	___flge@ff2+1
  9682     0A68  0A84               	incf	4,f
  9683     0A69  0800               	movf	0,w
  9684     0A6A  00F6               	movwf	___flge@ff2+2
  9685     0A6B  0A84               	incf	4,f
  9686     0A6C  0800               	movf	0,w
  9687     0A6D  00F7               	movwf	___flge@ff2+3
  9688     0A6E  160A  118A  211A  120A  158A  	fcall	___flge
  9689     0A73  1803               	btfsc	3,0
  9690     0A74  2A76               	goto	u5391
  9691     0A75  2A77               	goto	u5390
  9692     0A76                     u5391:
  9693     0A76  2A95               	goto	l4013
  9694     0A77                     u5390:
  9695     0A77                     l4011:
  9696     0A77  1683               	bsf	3,5	;RP0=1, select bank1
  9697     0A78  1303               	bcf	3,6	;RP1=0, select bank1
  9698     0A79  0827               	movf	CalcStats@i^(0+128),w
  9699     0A7A  1283               	bcf	3,5	;RP0=0, select bank0
  9700     0A7B  1303               	bcf	3,6	;RP1=0, select bank0
  9701     0A7C  00E8               	movwf	??_CalcStats
  9702     0A7D  3001               	movlw	1
  9703     0A7E                     u5405:
  9704     0A7E  1003               	clrc
  9705     0A7F  0DE8               	rlf	??_CalcStats,f
  9706     0A80  3EFF               	addlw	-1
  9707     0A81  1D03               	skipz
  9708     0A82  2A7E               	goto	u5405
  9709     0A83  1003               	clrc
  9710     0A84  0D68               	rlf	??_CalcStats,w
  9711     0A85  3ECF               	addlw	(low (_buffer_temp| 0))& (0+255)
  9712     0A86  0084               	movwf	4
  9713     0A87  1383               	bcf	3,7	;select IRP bank1
  9714     0A88  0800               	movf	0,w
  9715     0A89  1683               	bsf	3,5	;RP0=1, select bank1
  9716     0A8A  1303               	bcf	3,6	;RP1=0, select bank1
  9717     0A8B  00E4               	movwf	(_stats^(0+128)+5)
  9718     0A8C  0A84               	incf	4,f
  9719     0A8D  0800               	movf	0,w
  9720     0A8E  00E5               	movwf	((_stats+1)^(0+128)+5)
  9721     0A8F  0A84               	incf	4,f
  9722     0A90  0800               	movf	0,w
  9723     0A91  00E6               	movwf	((_stats+2)^(0+128)+5)
  9724     0A92  0A84               	incf	4,f
  9725     0A93  0800               	movf	0,w
  9726     0A94  00E7               	movwf	((_stats+3)^(0+128)+5)
  9727     0A95                     l4013:
  9728                           
  9729                           ;aplicacion.c: 73:     }
  9730     0A95  3001               	movlw	1
  9731     0A96  1683               	bsf	3,5	;RP0=1, select bank1
  9732     0A97  1303               	bcf	3,6	;RP1=0, select bank1
  9733     0A98  07A7               	addwf	CalcStats@i^(0+128),f
  9734     0A99                     l4015:
  9735     0A99  0826               	movf	CalcStats@n^(0+128),w
  9736     0A9A  0227               	subwf	CalcStats@i^(0+128),w
  9737     0A9B  1C03               	skipc
  9738     0A9C  2A9E               	goto	u5411
  9739     0A9D  2A9F               	goto	u5410
  9740     0A9E                     u5411:
  9741     0A9E  2998               	goto	l4003
  9742     0A9F                     u5410:
  9743     0A9F                     l4017:
  9744                           
  9745                           ;aplicacion.c: 74:     stats.media = suma / n;
  9746     0A9F  0826               	movf	CalcStats@n^(0+128),w
  9747     0AA0  1283               	bcf	3,5	;RP0=0, select bank0
  9748     0AA1  1303               	bcf	3,6	;RP1=0, select bank0
  9749     0AA2  00E8               	movwf	??_CalcStats
  9750     0AA3  01E9               	clrf	??_CalcStats+1
  9751     0AA4  01EA               	clrf	??_CalcStats+2
  9752     0AA5  01EB               	clrf	??_CalcStats+3
  9753     0AA6  086B               	movf	??_CalcStats+3,w
  9754     0AA7  00F3               	movwf	___xxtofl@val+3
  9755     0AA8  086A               	movf	??_CalcStats+2,w
  9756     0AA9  00F2               	movwf	___xxtofl@val+2
  9757     0AAA  0869               	movf	??_CalcStats+1,w
  9758     0AAB  00F1               	movwf	___xxtofl@val+1
  9759     0AAC  0868               	movf	??_CalcStats,w
  9760     0AAD  00F0               	movwf	___xxtofl@val
  9761     0AAE  3001               	movlw	1
  9762     0AAF  160A  118A  21BC  120A  158A  	fcall	___xxtofl
  9763     0AB4  0873               	movf	?___xxtofl+3,w
  9764     0AB5  1283               	bcf	3,5	;RP0=0, select bank0
  9765     0AB6  1303               	bcf	3,6	;RP1=0, select bank0
  9766     0AB7  00A3               	movwf	___fldiv@a+3
  9767     0AB8  0872               	movf	?___xxtofl+2,w
  9768     0AB9  00A2               	movwf	___fldiv@a+2
  9769     0ABA  0871               	movf	?___xxtofl+1,w
  9770     0ABB  00A1               	movwf	___fldiv@a+1
  9771     0ABC  0870               	movf	?___xxtofl,w
  9772     0ABD  00A0               	movwf	___fldiv@a
  9773     0ABE  1683               	bsf	3,5	;RP0=1, select bank1
  9774     0ABF  1303               	bcf	3,6	;RP1=0, select bank1
  9775     0AC0  0825               	movf	(CalcStats@suma+3)^(0+128),w
  9776     0AC1  1283               	bcf	3,5	;RP0=0, select bank0
  9777     0AC2  1303               	bcf	3,6	;RP1=0, select bank0
  9778     0AC3  00A7               	movwf	___fldiv@b+3
  9779     0AC4  1683               	bsf	3,5	;RP0=1, select bank1
  9780     0AC5  1303               	bcf	3,6	;RP1=0, select bank1
  9781     0AC6  0824               	movf	(CalcStats@suma+2)^(0+128),w
  9782     0AC7  1283               	bcf	3,5	;RP0=0, select bank0
  9783     0AC8  1303               	bcf	3,6	;RP1=0, select bank0
  9784     0AC9  00A6               	movwf	___fldiv@b+2
  9785     0ACA  1683               	bsf	3,5	;RP0=1, select bank1
  9786     0ACB  1303               	bcf	3,6	;RP1=0, select bank1
  9787     0ACC  0823               	movf	(CalcStats@suma+1)^(0+128),w
  9788     0ACD  1283               	bcf	3,5	;RP0=0, select bank0
  9789     0ACE  1303               	bcf	3,6	;RP1=0, select bank0
  9790     0ACF  00A5               	movwf	___fldiv@b+1
  9791     0AD0  1683               	bsf	3,5	;RP0=1, select bank1
  9792     0AD1  1303               	bcf	3,6	;RP1=0, select bank1
  9793     0AD2  0822               	movf	CalcStats@suma^(0+128),w
  9794     0AD3  1283               	bcf	3,5	;RP0=0, select bank0
  9795     0AD4  1303               	bcf	3,6	;RP1=0, select bank0
  9796     0AD5  00A4               	movwf	___fldiv@b
  9797     0AD6  120A  158A  22F4  120A  158A  	fcall	___fldiv
  9798     0ADB  1283               	bcf	3,5	;RP0=0, select bank0
  9799     0ADC  1303               	bcf	3,6	;RP1=0, select bank0
  9800     0ADD  0823               	movf	?___fldiv+3,w
  9801     0ADE  1683               	bsf	3,5	;RP0=1, select bank1
  9802     0ADF  1303               	bcf	3,6	;RP1=0, select bank1
  9803     0AE0  00EB               	movwf	((_stats+3)^(0+128)+9)
  9804     0AE1  1283               	bcf	3,5	;RP0=0, select bank0
  9805     0AE2  1303               	bcf	3,6	;RP1=0, select bank0
  9806     0AE3  0822               	movf	?___fldiv+2,w
  9807     0AE4  1683               	bsf	3,5	;RP0=1, select bank1
  9808     0AE5  1303               	bcf	3,6	;RP1=0, select bank1
  9809     0AE6  00EA               	movwf	((_stats+2)^(0+128)+9)
  9810     0AE7  1283               	bcf	3,5	;RP0=0, select bank0
  9811     0AE8  1303               	bcf	3,6	;RP1=0, select bank0
  9812     0AE9  0821               	movf	?___fldiv+1,w
  9813     0AEA  1683               	bsf	3,5	;RP0=1, select bank1
  9814     0AEB  1303               	bcf	3,6	;RP1=0, select bank1
  9815     0AEC  00E9               	movwf	((_stats+1)^(0+128)+9)
  9816     0AED  1283               	bcf	3,5	;RP0=0, select bank0
  9817     0AEE  1303               	bcf	3,6	;RP1=0, select bank0
  9818     0AEF  0820               	movf	?___fldiv,w
  9819     0AF0  1683               	bsf	3,5	;RP0=1, select bank1
  9820     0AF1  1303               	bcf	3,6	;RP1=0, select bank1
  9821     0AF2  00E8               	movwf	(_stats^(0+128)+9)
  9822     0AF3                     l280:
  9823     0AF3  0008               	return
  9824     0AF4                     __end_of_CalcStats:
  9825                           
  9826                           	psect	text41
  9827     11BC                     __ptext41:	
  9828 ;; *************** function ___xxtofl *****************
  9829 ;; Defined at:
  9830 ;;		line 10 in file "C:\Program Files\Microchip\xc8\v3.10\pic\sources\c99\common\xxtofl.c"
  9831 ;; Parameters:    Size  Location     Type
  9832 ;;  sign            1    wreg     unsigned char 
  9833 ;;  val             4    0[COMMON] long 
  9834 ;; Auto vars:     Size  Location     Type
  9835 ;;  sign            1    8[COMMON] unsigned char 
  9836 ;;  arg             4   10[COMMON] unsigned long 
  9837 ;;  exp             1    9[COMMON] unsigned char 
  9838 ;; Return value:  Size  Location     Type
  9839 ;;                  4    0[COMMON] unsigned char 
  9840 ;; Registers used:
  9841 ;;		wreg, status,2, status,0
  9842 ;; Tracked objects:
  9843 ;;		On entry : 0/0
  9844 ;;		On exit  : 0/0
  9845 ;;		Unchanged: 0/0
  9846 ;; Data sizes:     COMMON   BANK0   BANK1   BANK3   BANK2
  9847 ;;      Params:         4       0       0       0       0
  9848 ;;      Locals:         6       0       0       0       0
  9849 ;;      Temps:          4       0       0       0       0
  9850 ;;      Totals:        14       0       0       0       0
  9851 ;;Total ram usage:       14 bytes
  9852 ;; Hardware stack levels used: 1
  9853 ;; This function calls:
  9854 ;;		Nothing
  9855 ;; This function is called by:
  9856 ;;		_SensorHumedad_ObtenerDatos
  9857 ;;		_CalcStats
  9858 ;; This function uses a non-reentrant model
  9859 ;;
  9860                           
  9861     11BC                     ___xxtofl:	
  9862                           ;psect for function ___xxtofl
  9863                           
  9864                           
  9865                           ;incstack = 0
  9866                           ; Regs used in ___xxtofl: [wreg+status,2+status,0]
  9867                           ;___xxtofl@sign stored from wreg
  9868     11BC  00F8               	movwf	___xxtofl@sign
  9869     11BD                     l3643:
  9870     11BD  0878               	movf	___xxtofl@sign,w
  9871     11BE  1903               	btfsc	3,2
  9872     11BF  29C1               	goto	u4831
  9873     11C0  29C2               	goto	u4830
  9874     11C1                     u4831:
  9875     11C1  29D6               	goto	l3649
  9876     11C2                     u4830:
  9877     11C2                     l3645:
  9878     11C2  1FF3               	btfss	___xxtofl@val+3,7
  9879     11C3  29C5               	goto	u4841
  9880     11C4  29C6               	goto	u4840
  9881     11C5                     u4841:
  9882     11C5  29D6               	goto	l3649
  9883     11C6                     u4840:
  9884     11C6                     l3647:
  9885     11C6  0970               	comf	___xxtofl@val,w
  9886     11C7  00FA               	movwf	___xxtofl@arg
  9887     11C8  0971               	comf	___xxtofl@val+1,w
  9888     11C9  00FB               	movwf	___xxtofl@arg+1
  9889     11CA  0972               	comf	___xxtofl@val+2,w
  9890     11CB  00FC               	movwf	___xxtofl@arg+2
  9891     11CC  0973               	comf	___xxtofl@val+3,w
  9892     11CD  00FD               	movwf	___xxtofl@arg+3
  9893     11CE  0AFA               	incf	___xxtofl@arg,f
  9894     11CF  1903               	skipnz
  9895     11D0  0AFB               	incf	___xxtofl@arg+1,f
  9896     11D1  1903               	skipnz
  9897     11D2  0AFC               	incf	___xxtofl@arg+2,f
  9898     11D3  1903               	skipnz
  9899     11D4  0AFD               	incf	___xxtofl@arg+3,f
  9900     11D5  29DE               	goto	l848
  9901     11D6                     l3649:
  9902     11D6  0873               	movf	___xxtofl@val+3,w
  9903     11D7  00FD               	movwf	___xxtofl@arg+3
  9904     11D8  0872               	movf	___xxtofl@val+2,w
  9905     11D9  00FC               	movwf	___xxtofl@arg+2
  9906     11DA  0871               	movf	___xxtofl@val+1,w
  9907     11DB  00FB               	movwf	___xxtofl@arg+1
  9908     11DC  0870               	movf	___xxtofl@val,w
  9909     11DD  00FA               	movwf	___xxtofl@arg
  9910     11DE                     l848:
  9911     11DE  0873               	movf	___xxtofl@val+3,w
  9912     11DF  0472               	iorwf	___xxtofl@val+2,w
  9913     11E0  0471               	iorwf	___xxtofl@val+1,w
  9914     11E1  0470               	iorwf	___xxtofl@val,w
  9915     11E2  1D03               	skipz
  9916     11E3  29E5               	goto	u4851
  9917     11E4  29E6               	goto	u4850
  9918     11E5                     u4851:
  9919     11E5  29EF               	goto	l849
  9920     11E6                     u4850:
  9921     11E6                     l3651:
  9922     11E6  3000               	movlw	0
  9923     11E7  00F3               	movwf	?___xxtofl+3
  9924     11E8  3000               	movlw	0
  9925     11E9  00F2               	movwf	?___xxtofl+2
  9926     11EA  3000               	movlw	0
  9927     11EB  00F1               	movwf	?___xxtofl+1
  9928     11EC  3000               	movlw	0
  9929     11ED  00F0               	movwf	?___xxtofl
  9930     11EE  2A6F               	goto	l850
  9931     11EF                     l849:
  9932     11EF  3096               	movlw	150
  9933     11F0  00F9               	movwf	___xxtofl@exp
  9934     11F1  29FD               	goto	l3657
  9935     11F2                     l3655:
  9936     11F2  3001               	movlw	1
  9937     11F3  07F9               	addwf	___xxtofl@exp,f
  9938     11F4  3001               	movlw	1
  9939     11F5                     u4865:
  9940     11F5  1003               	clrc
  9941     11F6  0CFD               	rrf	___xxtofl@arg+3,f
  9942     11F7  0CFC               	rrf	___xxtofl@arg+2,f
  9943     11F8  0CFB               	rrf	___xxtofl@arg+1,f
  9944     11F9  0CFA               	rrf	___xxtofl@arg,f
  9945     11FA  3EFF               	addlw	-1
  9946     11FB  1D03               	skipz
  9947     11FC  29F5               	goto	u4865
  9948     11FD                     l3657:
  9949     11FD  30FE               	movlw	254
  9950     11FE  057D               	andwf	___xxtofl@arg+3,w
  9951     11FF  1D03               	btfss	3,2
  9952     1200  2A02               	goto	u4871
  9953     1201  2A03               	goto	u4870
  9954     1202                     u4871:
  9955     1202  29F2               	goto	l3655
  9956     1203                     u4870:
  9957     1203  2A1D               	goto	l854
  9958     1204                     l3659:
  9959     1204  3001               	movlw	1
  9960     1205  07F9               	addwf	___xxtofl@exp,f
  9961     1206                     l3661:
  9962     1206  3001               	movlw	1
  9963     1207  07FA               	addwf	___xxtofl@arg,f
  9964     1208  3000               	movlw	0
  9965     1209  1803               	skipnc
  9966     120A  3001               	movlw	1
  9967     120B  07FB               	addwf	___xxtofl@arg+1,f
  9968     120C  3000               	movlw	0
  9969     120D  1803               	skipnc
  9970     120E  3001               	movlw	1
  9971     120F  07FC               	addwf	___xxtofl@arg+2,f
  9972     1210  3000               	movlw	0
  9973     1211  1803               	skipnc
  9974     1212  3001               	movlw	1
  9975     1213  07FD               	addwf	___xxtofl@arg+3,f
  9976     1214                     l3663:
  9977     1214  3001               	movlw	1
  9978     1215                     u4885:
  9979     1215  1003               	clrc
  9980     1216  0CFD               	rrf	___xxtofl@arg+3,f
  9981     1217  0CFC               	rrf	___xxtofl@arg+2,f
  9982     1218  0CFB               	rrf	___xxtofl@arg+1,f
  9983     1219  0CFA               	rrf	___xxtofl@arg,f
  9984     121A  3EFF               	addlw	-1
  9985     121B  1D03               	skipz
  9986     121C  2A15               	goto	u4885
  9987     121D                     l854:
  9988     121D  30FF               	movlw	255
  9989     121E  057D               	andwf	___xxtofl@arg+3,w
  9990     121F  1D03               	btfss	3,2
  9991     1220  2A22               	goto	u4891
  9992     1221  2A23               	goto	u4890
  9993     1222                     u4891:
  9994     1222  2A04               	goto	l3659
  9995     1223                     u4890:
  9996     1223  2A2F               	goto	l3667
  9997     1224                     l3665:
  9998     1224  3001               	movlw	1
  9999     1225  02F9               	subwf	___xxtofl@exp,f
 10000     1226  3001               	movlw	1
 10001     1227  00F4               	movwf	??___xxtofl
 10002     1228                     u4905:
 10003     1228  1003               	clrc
 10004     1229  0DFA               	rlf	___xxtofl@arg,f
 10005     122A  0DFB               	rlf	___xxtofl@arg+1,f
 10006     122B  0DFC               	rlf	___xxtofl@arg+2,f
 10007     122C  0DFD               	rlf	___xxtofl@arg+3,f
 10008     122D  0BF4               	decfsz	??___xxtofl,f
 10009     122E  2A28               	goto	u4905
 10010     122F                     l3667:
 10011     122F  1BFC               	btfsc	___xxtofl@arg+2,7
 10012     1230  2A32               	goto	u4911
 10013     1231  2A33               	goto	u4910
 10014     1232                     u4911:
 10015     1232  2A39               	goto	l861
 10016     1233                     u4910:
 10017     1233                     l3669:
 10018     1233  3002               	movlw	2
 10019     1234  0279               	subwf	___xxtofl@exp,w
 10020     1235  1803               	skipnc
 10021     1236  2A38               	goto	u4921
 10022     1237  2A39               	goto	u4920
 10023     1238                     u4921:
 10024     1238  2A24               	goto	l3665
 10025     1239                     u4920:
 10026     1239                     l861:
 10027     1239  1879               	btfsc	___xxtofl@exp,0
 10028     123A  2A3C               	goto	u4931
 10029     123B  2A3D               	goto	u4930
 10030     123C                     u4931:
 10031     123C  2A45               	goto	l862
 10032     123D                     u4930:
 10033     123D                     l3671:
 10034     123D  30FF               	movlw	255
 10035     123E  05FA               	andwf	___xxtofl@arg,f
 10036     123F  30FF               	movlw	255
 10037     1240  05FB               	andwf	___xxtofl@arg+1,f
 10038     1241  307F               	movlw	127
 10039     1242  05FC               	andwf	___xxtofl@arg+2,f
 10040     1243  30FF               	movlw	255
 10041     1244  05FD               	andwf	___xxtofl@arg+3,f
 10042     1245                     l862:
 10043     1245  1003               	clrc
 10044     1246  0CF9               	rrf	___xxtofl@exp,f
 10045     1247                     l3673:
 10046     1247  0879               	movf	___xxtofl@exp,w
 10047     1248  00F4               	movwf	??___xxtofl
 10048     1249  01F5               	clrf	??___xxtofl+1
 10049     124A  01F6               	clrf	??___xxtofl+2
 10050     124B  01F7               	clrf	??___xxtofl+3
 10051     124C  3018               	movlw	24
 10052     124D                     u4945:
 10053     124D  1003               	clrc
 10054     124E  0DF4               	rlf	??___xxtofl,f
 10055     124F  0DF5               	rlf	??___xxtofl+1,f
 10056     1250  0DF6               	rlf	??___xxtofl+2,f
 10057     1251  0DF7               	rlf	??___xxtofl+3,f
 10058     1252                     u4940:
 10059     1252  3EFF               	addlw	-1
 10060     1253  1D03               	skipz
 10061     1254  2A4D               	goto	u4945
 10062     1255  0874               	movf	??___xxtofl,w
 10063     1256  04FA               	iorwf	___xxtofl@arg,f
 10064     1257  0875               	movf	??___xxtofl+1,w
 10065     1258  04FB               	iorwf	___xxtofl@arg+1,f
 10066     1259  0876               	movf	??___xxtofl+2,w
 10067     125A  04FC               	iorwf	___xxtofl@arg+2,f
 10068     125B  0877               	movf	??___xxtofl+3,w
 10069     125C  04FD               	iorwf	___xxtofl@arg+3,f
 10070     125D                     l3675:
 10071     125D  0878               	movf	___xxtofl@sign,w
 10072     125E  1903               	btfsc	3,2
 10073     125F  2A61               	goto	u4951
 10074     1260  2A62               	goto	u4950
 10075     1261                     u4951:
 10076     1261  2A67               	goto	l3681
 10077     1262                     u4950:
 10078     1262                     l3677:
 10079     1262  1FF3               	btfss	___xxtofl@val+3,7
 10080     1263  2A65               	goto	u4961
 10081     1264  2A66               	goto	u4960
 10082     1265                     u4961:
 10083     1265  2A67               	goto	l3681
 10084     1266                     u4960:
 10085     1266                     l3679:
 10086     1266  17FD               	bsf	___xxtofl@arg+3,7
 10087     1267                     l3681:
 10088     1267  087D               	movf	___xxtofl@arg+3,w
 10089     1268  00F3               	movwf	?___xxtofl+3
 10090     1269  087C               	movf	___xxtofl@arg+2,w
 10091     126A  00F2               	movwf	?___xxtofl+2
 10092     126B  087B               	movf	___xxtofl@arg+1,w
 10093     126C  00F1               	movwf	?___xxtofl+1
 10094     126D  087A               	movf	___xxtofl@arg,w
 10095     126E  00F0               	movwf	?___xxtofl
 10096     126F                     l850:
 10097     126F  0008               	return
 10098     1270                     __end_of___xxtofl:
 10099                           
 10100                           	psect	text42
 10101     111A                     __ptext42:	
 10102 ;; *************** function ___flge *****************
 10103 ;; Defined at:
 10104 ;;		line 4 in file "C:\Program Files\Microchip\xc8\v3.10\pic\sources\c99\common\flge.c"
 10105 ;; Parameters:    Size  Location     Type
 10106 ;;  ff1             4    0[COMMON] unsigned char 
 10107 ;;  ff2             4    4[COMMON] unsigned char 
 10108 ;; Auto vars:     Size  Location     Type
 10109 ;;		None
 10110 ;; Return value:  Size  Location     Type
 10111 ;;		None               void
 10112 ;; Registers used:
 10113 ;;		wreg, status,2, status,0
 10114 ;; Tracked objects:
 10115 ;;		On entry : 0/0
 10116 ;;		On exit  : 0/0
 10117 ;;		Unchanged: 0/0
 10118 ;; Data sizes:     COMMON   BANK0   BANK1   BANK3   BANK2
 10119 ;;      Params:         8       0       0       0       0
 10120 ;;      Locals:         0       0       0       0       0
 10121 ;;      Temps:          4       0       0       0       0
 10122 ;;      Totals:        12       0       0       0       0
 10123 ;;Total ram usage:       12 bytes
 10124 ;; Hardware stack levels used: 1
 10125 ;; This function calls:
 10126 ;;		Nothing
 10127 ;; This function is called by:
 10128 ;;		_ImprimirTemp
 10129 ;;		_CalcStats
 10130 ;;		_main
 10131 ;; This function uses a non-reentrant model
 10132 ;;
 10133                           
 10134     111A                     ___flge:	
 10135                           ;psect for function ___flge
 10136                           
 10137     111A                     l2889:	
 10138                           ;incstack = 0
 10139                           ; Regs used in ___flge: [wreg+status,2+status,0]
 10140                           
 10141     111A  3000               	movlw	0
 10142     111B  0570               	andwf	___flge@ff1,w
 10143     111C  00F8               	movwf	??___flge
 10144     111D  3000               	movlw	0
 10145     111E  0571               	andwf	___flge@ff1+1,w
 10146     111F  00F9               	movwf	??___flge+1
 10147     1120  3080               	movlw	128
 10148     1121  0572               	andwf	___flge@ff1+2,w
 10149     1122  00FA               	movwf	??___flge+2
 10150     1123  307F               	movlw	127
 10151     1124  0573               	andwf	___flge@ff1+3,w
 10152     1125  00FB               	movwf	??___flge+3
 10153     1126  087B               	movf	??___flge+3,w
 10154     1127  047A               	iorwf	??___flge+2,w
 10155     1128  0479               	iorwf	??___flge+1,w
 10156     1129  0478               	iorwf	??___flge,w
 10157     112A  1D03               	skipz
 10158     112B  292D               	goto	u3261
 10159     112C  292E               	goto	u3260
 10160     112D                     u3261:
 10161     112D  2936               	goto	l585
 10162     112E                     u3260:
 10163     112E                     l2891:
 10164     112E  3000               	movlw	0
 10165     112F  00F3               	movwf	___flge@ff1+3
 10166     1130  3000               	movlw	0
 10167     1131  00F2               	movwf	___flge@ff1+2
 10168     1132  3000               	movlw	0
 10169     1133  00F1               	movwf	___flge@ff1+1
 10170     1134  3000               	movlw	0
 10171     1135  00F0               	movwf	___flge@ff1
 10172     1136                     l585:
 10173     1136  3000               	movlw	0
 10174     1137  0574               	andwf	___flge@ff2,w
 10175     1138  00F8               	movwf	??___flge
 10176     1139  3000               	movlw	0
 10177     113A  0575               	andwf	___flge@ff2+1,w
 10178     113B  00F9               	movwf	??___flge+1
 10179     113C  3080               	movlw	128
 10180     113D  0576               	andwf	___flge@ff2+2,w
 10181     113E  00FA               	movwf	??___flge+2
 10182     113F  307F               	movlw	127
 10183     1140  0577               	andwf	___flge@ff2+3,w
 10184     1141  00FB               	movwf	??___flge+3
 10185     1142  087B               	movf	??___flge+3,w
 10186     1143  047A               	iorwf	??___flge+2,w
 10187     1144  0479               	iorwf	??___flge+1,w
 10188     1145  0478               	iorwf	??___flge,w
 10189     1146  1D03               	skipz
 10190     1147  2949               	goto	u3271
 10191     1148  294A               	goto	u3270
 10192     1149                     u3271:
 10193     1149  2952               	goto	l2895
 10194     114A                     u3270:
 10195     114A                     l2893:
 10196     114A  3000               	movlw	0
 10197     114B  00F7               	movwf	___flge@ff2+3
 10198     114C  3000               	movlw	0
 10199     114D  00F6               	movwf	___flge@ff2+2
 10200     114E  3000               	movlw	0
 10201     114F  00F5               	movwf	___flge@ff2+1
 10202     1150  3000               	movlw	0
 10203     1151  00F4               	movwf	___flge@ff2
 10204     1152                     l2895:
 10205     1152  1FF3               	btfss	___flge@ff1+3,7
 10206     1153  2955               	goto	u3281
 10207     1154  2956               	goto	u3280
 10208     1155                     u3281:
 10209     1155  297A               	goto	l2899
 10210     1156                     u3280:
 10211     1156                     l2897:
 10212     1156  3000               	movlw	0
 10213     1157  00F8               	movwf	??___flge
 10214     1158  3000               	movlw	0
 10215     1159  00F9               	movwf	??___flge+1
 10216     115A  3000               	movlw	0
 10217     115B  00FA               	movwf	??___flge+2
 10218     115C  3080               	movlw	128
 10219     115D  00FB               	movwf	??___flge+3
 10220     115E  0870               	movf	___flge@ff1,w
 10221     115F  02F8               	subwf	??___flge,f
 10222     1160  0871               	movf	___flge@ff1+1,w
 10223     1161  1C03               	skipc
 10224     1162  0F71               	incfsz	___flge@ff1+1,w
 10225     1163  2965               	goto	u3291
 10226     1164  2966               	goto	u3292
 10227     1165                     u3291:
 10228     1165  02F9               	subwf	??___flge+1,f
 10229     1166                     u3292:
 10230     1166  0872               	movf	___flge@ff1+2,w
 10231     1167  1C03               	skipc
 10232     1168  0F72               	incfsz	___flge@ff1+2,w
 10233     1169  296B               	goto	u3293
 10234     116A  296C               	goto	u3294
 10235     116B                     u3293:
 10236     116B  02FA               	subwf	??___flge+2,f
 10237     116C                     u3294:
 10238     116C  0873               	movf	___flge@ff1+3,w
 10239     116D  1C03               	skipc
 10240     116E  0F73               	incfsz	___flge@ff1+3,w
 10241     116F  2971               	goto	u3295
 10242     1170  2972               	goto	u3296
 10243     1171                     u3295:
 10244     1171  02FB               	subwf	??___flge+3,f
 10245     1172                     u3296:
 10246     1172  087B               	movf	??___flge+3,w
 10247     1173  00F3               	movwf	___flge@ff1+3
 10248     1174  087A               	movf	??___flge+2,w
 10249     1175  00F2               	movwf	___flge@ff1+2
 10250     1176  0879               	movf	??___flge+1,w
 10251     1177  00F1               	movwf	___flge@ff1+1
 10252     1178  0878               	movf	??___flge,w
 10253     1179  00F0               	movwf	___flge@ff1
 10254     117A                     l2899:
 10255     117A  1FF7               	btfss	___flge@ff2+3,7
 10256     117B  297D               	goto	u3301
 10257     117C  297E               	goto	u3300
 10258     117D                     u3301:
 10259     117D  29A2               	goto	l588
 10260     117E                     u3300:
 10261     117E                     l2901:
 10262     117E  3000               	movlw	0
 10263     117F  00F8               	movwf	??___flge
 10264     1180  3000               	movlw	0
 10265     1181  00F9               	movwf	??___flge+1
 10266     1182  3000               	movlw	0
 10267     1183  00FA               	movwf	??___flge+2
 10268     1184  3080               	movlw	128
 10269     1185  00FB               	movwf	??___flge+3
 10270     1186  0874               	movf	___flge@ff2,w
 10271     1187  02F8               	subwf	??___flge,f
 10272     1188  0875               	movf	___flge@ff2+1,w
 10273     1189  1C03               	skipc
 10274     118A  0F75               	incfsz	___flge@ff2+1,w
 10275     118B  298D               	goto	u3311
 10276     118C  298E               	goto	u3312
 10277     118D                     u3311:
 10278     118D  02F9               	subwf	??___flge+1,f
 10279     118E                     u3312:
 10280     118E  0876               	movf	___flge@ff2+2,w
 10281     118F  1C03               	skipc
 10282     1190  0F76               	incfsz	___flge@ff2+2,w
 10283     1191  2993               	goto	u3313
 10284     1192  2994               	goto	u3314
 10285     1193                     u3313:
 10286     1193  02FA               	subwf	??___flge+2,f
 10287     1194                     u3314:
 10288     1194  0877               	movf	___flge@ff2+3,w
 10289     1195  1C03               	skipc
 10290     1196  0F77               	incfsz	___flge@ff2+3,w
 10291     1197  2999               	goto	u3315
 10292     1198  299A               	goto	u3316
 10293     1199                     u3315:
 10294     1199  02FB               	subwf	??___flge+3,f
 10295     119A                     u3316:
 10296     119A  087B               	movf	??___flge+3,w
 10297     119B  00F7               	movwf	___flge@ff2+3
 10298     119C  087A               	movf	??___flge+2,w
 10299     119D  00F6               	movwf	___flge@ff2+2
 10300     119E  0879               	movf	??___flge+1,w
 10301     119F  00F5               	movwf	___flge@ff2+1
 10302     11A0  0878               	movf	??___flge,w
 10303     11A1  00F4               	movwf	___flge@ff2
 10304     11A2                     l588:
 10305     11A2  3080               	movlw	128
 10306     11A3  06F3               	xorwf	___flge@ff1+3,f
 10307     11A4  3080               	movlw	128
 10308     11A5  06F7               	xorwf	___flge@ff2+3,f
 10309     11A6  0877               	movf	___flge@ff2+3,w
 10310     11A7  0273               	subwf	___flge@ff1+3,w
 10311     11A8  1D03               	skipz
 10312     11A9  29B4               	goto	u3325
 10313     11AA  0876               	movf	___flge@ff2+2,w
 10314     11AB  0272               	subwf	___flge@ff1+2,w
 10315     11AC  1D03               	skipz
 10316     11AD  29B4               	goto	u3325
 10317     11AE  0875               	movf	___flge@ff2+1,w
 10318     11AF  0271               	subwf	___flge@ff1+1,w
 10319     11B0  1D03               	skipz
 10320     11B1  29B4               	goto	u3325
 10321     11B2  0874               	movf	___flge@ff2,w
 10322     11B3  0270               	subwf	___flge@ff1,w
 10323     11B4                     u3325:
 10324     11B4  1803               	skipnc
 10325     11B5  29B7               	goto	u3321
 10326     11B6  29B8               	goto	u3320
 10327     11B7                     u3321:
 10328     11B7  29BA               	goto	l2905
 10329     11B8                     u3320:
 10330     11B8                     l2903:
 10331     11B8  1003               	clrc
 10332     11B9  29BB               	goto	l593
 10333     11BA                     l2905:
 10334     11BA  1403               	setc
 10335     11BB                     l593:
 10336     11BB  0008               	return
 10337     11BC                     __end_of___flge:
 10338                           
 10339                           	psect	text43
 10340     0AF4                     __ptext43:	
 10341 ;; *************** function ___fldiv *****************
 10342 ;; Defined at:
 10343 ;;		line 8 in file "C:\Program Files\Microchip\xc8\v3.10\pic\sources\c99\common\sprcdiv.c"
 10344 ;; Parameters:    Size  Location     Type
 10345 ;;  a               4    0[BANK0 ] unsigned char 
 10346 ;;  b               4    4[BANK0 ] unsigned char 
 10347 ;; Auto vars:     Size  Location     Type
 10348 ;;  grs             4   20[BANK0 ] unsigned long 
 10349 ;;  rem             4   13[BANK0 ] unsigned long 
 10350 ;;  new_exp         2   18[BANK0 ] short 
 10351 ;;  aexp            1   25[BANK0 ] unsigned char 
 10352 ;;  bexp            1   24[BANK0 ] unsigned char 
 10353 ;;  sign            1   17[BANK0 ] unsigned char 
 10354 ;; Return value:  Size  Location     Type
 10355 ;;                  4    0[BANK0 ] unsigned char 
 10356 ;; Registers used:
 10357 ;;		wreg, status,2, status,0, btemp1
 10358 ;; Tracked objects:
 10359 ;;		On entry : 0/0
 10360 ;;		On exit  : 0/0
 10361 ;;		Unchanged: 0/0
 10362 ;; Data sizes:     COMMON   BANK0   BANK1   BANK3   BANK2
 10363 ;;      Params:         0       8       0       0       0
 10364 ;;      Locals:         0      13       0       0       0
 10365 ;;      Temps:          0       5       0       0       0
 10366 ;;      Totals:         0      26       0       0       0
 10367 ;;Total ram usage:       26 bytes
 10368 ;; Hardware stack levels used: 1
 10369 ;; This function calls:
 10370 ;;		Nothing
 10371 ;; This function is called by:
 10372 ;;		_SensorHumedad_ObtenerDatos
 10373 ;;		_CalcStats
 10374 ;; This function uses a non-reentrant model
 10375 ;;
 10376                           
 10377     0AF4                     ___fldiv:	
 10378                           ;psect for function ___fldiv
 10379                           
 10380     0AF4                     l3499:	
 10381                           ;incstack = 0
 10382                           ; Regs used in ___fldiv: [wreg+status,2+status,0+btemp1]
 10383                           
 10384     0AF4  1283               	bcf	3,5	;RP0=0, select bank0
 10385     0AF5  1303               	bcf	3,6	;RP1=0, select bank0
 10386     0AF6  0827               	movf	___fldiv@b+3,w
 10387     0AF7  00B1               	movwf	___fldiv@sign
 10388     0AF8                     l3501:
 10389     0AF8  3080               	movlw	128
 10390     0AF9  05B1               	andwf	___fldiv@sign,f
 10391     0AFA                     l3503:
 10392     0AFA  0827               	movf	___fldiv@b+3,w
 10393     0AFB  00A8               	movwf	??___fldiv
 10394     0AFC  0728               	addwf	??___fldiv,w
 10395     0AFD  00B8               	movwf	___fldiv@bexp
 10396     0AFE                     l3505:
 10397     0AFE  1FA6               	btfss	___fldiv@b+2,7
 10398     0AFF  2B01               	goto	u4541
 10399     0B00  2B02               	goto	u4540
 10400     0B01                     u4541:
 10401     0B01  2B03               	goto	l3509
 10402     0B02                     u4540:
 10403     0B02                     l3507:
 10404     0B02  1438               	bsf	___fldiv@bexp,0
 10405     0B03                     l3509:
 10406     0B03  0838               	movf	___fldiv@bexp,w
 10407     0B04  1903               	btfsc	3,2
 10408     0B05  2B07               	goto	u4551
 10409     0B06  2B08               	goto	u4550
 10410     0B07                     u4551:
 10411     0B07  2B18               	goto	l3519
 10412     0B08                     u4550:
 10413     0B08                     l3511:
 10414     0B08  0A38               	incf	___fldiv@bexp,w
 10415     0B09  1D03               	btfss	3,2
 10416     0B0A  2B0C               	goto	u4561
 10417     0B0B  2B0D               	goto	u4560
 10418     0B0C                     u4561:
 10419     0B0C  2B15               	goto	l3515
 10420     0B0D                     u4560:
 10421     0B0D                     l3513:
 10422     0B0D  3000               	movlw	0
 10423     0B0E  00A7               	movwf	___fldiv@b+3
 10424     0B0F  3000               	movlw	0
 10425     0B10  00A6               	movwf	___fldiv@b+2
 10426     0B11  3000               	movlw	0
 10427     0B12  00A5               	movwf	___fldiv@b+1
 10428     0B13  3000               	movlw	0
 10429     0B14  00A4               	movwf	___fldiv@b
 10430     0B15                     l3515:
 10431     0B15  17A6               	bsf	___fldiv@b+2,7
 10432     0B16                     l3517:
 10433     0B16  01A7               	clrf	___fldiv@b+3
 10434     0B17  2B20               	goto	l3521
 10435     0B18                     l3519:
 10436     0B18  3000               	movlw	0
 10437     0B19  00A7               	movwf	___fldiv@b+3
 10438     0B1A  3000               	movlw	0
 10439     0B1B  00A6               	movwf	___fldiv@b+2
 10440     0B1C  3000               	movlw	0
 10441     0B1D  00A5               	movwf	___fldiv@b+1
 10442     0B1E  3000               	movlw	0
 10443     0B1F  00A4               	movwf	___fldiv@b
 10444     0B20                     l3521:
 10445     0B20  0823               	movf	___fldiv@a+3,w
 10446     0B21  3980               	andlw	128
 10447     0B22  06B1               	xorwf	___fldiv@sign,f
 10448     0B23                     l3523:
 10449     0B23  0823               	movf	___fldiv@a+3,w
 10450     0B24  00A8               	movwf	??___fldiv
 10451     0B25  0728               	addwf	??___fldiv,w
 10452     0B26  00B9               	movwf	___fldiv@aexp
 10453     0B27                     l3525:
 10454     0B27  1FA2               	btfss	___fldiv@a+2,7
 10455     0B28  2B2A               	goto	u4571
 10456     0B29  2B2B               	goto	u4570
 10457     0B2A                     u4571:
 10458     0B2A  2B2C               	goto	l3529
 10459     0B2B                     u4570:
 10460     0B2B                     l3527:
 10461     0B2B  1439               	bsf	___fldiv@aexp,0
 10462     0B2C                     l3529:
 10463     0B2C  0839               	movf	___fldiv@aexp,w
 10464     0B2D  1903               	btfsc	3,2
 10465     0B2E  2B30               	goto	u4581
 10466     0B2F  2B31               	goto	u4580
 10467     0B30                     u4581:
 10468     0B30  2B41               	goto	l3539
 10469     0B31                     u4580:
 10470     0B31                     l3531:
 10471     0B31  0A39               	incf	___fldiv@aexp,w
 10472     0B32  1D03               	btfss	3,2
 10473     0B33  2B35               	goto	u4591
 10474     0B34  2B36               	goto	u4590
 10475     0B35                     u4591:
 10476     0B35  2B3E               	goto	l3535
 10477     0B36                     u4590:
 10478     0B36                     l3533:
 10479     0B36  3000               	movlw	0
 10480     0B37  00A3               	movwf	___fldiv@a+3
 10481     0B38  3000               	movlw	0
 10482     0B39  00A2               	movwf	___fldiv@a+2
 10483     0B3A  3000               	movlw	0
 10484     0B3B  00A1               	movwf	___fldiv@a+1
 10485     0B3C  3000               	movlw	0
 10486     0B3D  00A0               	movwf	___fldiv@a
 10487     0B3E                     l3535:
 10488     0B3E  17A2               	bsf	___fldiv@a+2,7
 10489     0B3F                     l3537:
 10490     0B3F  01A3               	clrf	___fldiv@a+3
 10491     0B40  2B49               	goto	l764
 10492     0B41                     l3539:
 10493     0B41  3000               	movlw	0
 10494     0B42  00A3               	movwf	___fldiv@a+3
 10495     0B43  3000               	movlw	0
 10496     0B44  00A2               	movwf	___fldiv@a+2
 10497     0B45  3000               	movlw	0
 10498     0B46  00A1               	movwf	___fldiv@a+1
 10499     0B47  3000               	movlw	0
 10500     0B48  00A0               	movwf	___fldiv@a
 10501     0B49                     l764:
 10502     0B49  0823               	movf	___fldiv@a+3,w
 10503     0B4A  0422               	iorwf	___fldiv@a+2,w
 10504     0B4B  0421               	iorwf	___fldiv@a+1,w
 10505     0B4C  0420               	iorwf	___fldiv@a,w
 10506     0B4D  1D03               	skipz
 10507     0B4E  2B50               	goto	u4601
 10508     0B4F  2B51               	goto	u4600
 10509     0B50                     u4601:
 10510     0B50  2B68               	goto	l3549
 10511     0B51                     u4600:
 10512     0B51                     l3541:
 10513     0B51  3000               	movlw	0
 10514     0B52  00A7               	movwf	___fldiv@b+3
 10515     0B53  3000               	movlw	0
 10516     0B54  00A6               	movwf	___fldiv@b+2
 10517     0B55  3000               	movlw	0
 10518     0B56  00A5               	movwf	___fldiv@b+1
 10519     0B57  3000               	movlw	0
 10520     0B58  00A4               	movwf	___fldiv@b
 10521     0B59  3080               	movlw	128
 10522     0B5A  04A6               	iorwf	___fldiv@b+2,f
 10523     0B5B  307F               	movlw	127
 10524     0B5C  04A7               	iorwf	___fldiv@b+3,f
 10525     0B5D                     l3543:
 10526     0B5D  0831               	movf	___fldiv@sign,w
 10527     0B5E  04A7               	iorwf	___fldiv@b+3,f
 10528     0B5F                     l3545:
 10529     0B5F  0827               	movf	___fldiv@b+3,w
 10530     0B60  00A3               	movwf	?___fldiv+3
 10531     0B61  0826               	movf	___fldiv@b+2,w
 10532     0B62  00A2               	movwf	?___fldiv+2
 10533     0B63  0825               	movf	___fldiv@b+1,w
 10534     0B64  00A1               	movwf	?___fldiv+1
 10535     0B65  0824               	movf	___fldiv@b,w
 10536     0B66  00A0               	movwf	?___fldiv
 10537     0B67  2CBD               	goto	l766
 10538     0B68                     l3549:
 10539     0B68  0838               	movf	___fldiv@bexp,w
 10540     0B69  1D03               	btfss	3,2
 10541     0B6A  2B6C               	goto	u4611
 10542     0B6B  2B6D               	goto	u4610
 10543     0B6C                     u4611:
 10544     0B6C  2B76               	goto	l3555
 10545     0B6D                     u4610:
 10546     0B6D                     l3551:
 10547     0B6D  3000               	movlw	0
 10548     0B6E  00A3               	movwf	?___fldiv+3
 10549     0B6F  3000               	movlw	0
 10550     0B70  00A2               	movwf	?___fldiv+2
 10551     0B71  3000               	movlw	0
 10552     0B72  00A1               	movwf	?___fldiv+1
 10553     0B73  3000               	movlw	0
 10554     0B74  00A0               	movwf	?___fldiv
 10555     0B75  2CBD               	goto	l766
 10556     0B76                     l3555:
 10557     0B76  0838               	movf	___fldiv@bexp,w
 10558     0B77  00A8               	movwf	??___fldiv
 10559     0B78  01A9               	clrf	??___fldiv+1
 10560     0B79  0829               	movf	??___fldiv+1,w
 10561     0B7A  00AB               	movwf	??___fldiv+3
 10562     0B7B  0839               	movf	___fldiv@aexp,w
 10563     0B7C  0228               	subwf	??___fldiv,w
 10564     0B7D  00AA               	movwf	??___fldiv+2
 10565     0B7E  1C03               	skipc
 10566     0B7F  03AB               	decf	??___fldiv+3,f
 10567     0B80  082A               	movf	??___fldiv+2,w
 10568     0B81  3E7F               	addlw	127
 10569     0B82  00B2               	movwf	___fldiv@new_exp
 10570     0B83  082B               	movf	??___fldiv+3,w
 10571     0B84  1803               	skipnc
 10572     0B85  3E01               	addlw	1
 10573     0B86  3E00               	addlw	0
 10574     0B87  00B3               	movwf	___fldiv@new_exp+1
 10575     0B88                     l3557:
 10576     0B88  0827               	movf	___fldiv@b+3,w
 10577     0B89  00B0               	movwf	___fldiv@rem+3
 10578     0B8A  0826               	movf	___fldiv@b+2,w
 10579     0B8B  00AF               	movwf	___fldiv@rem+2
 10580     0B8C  0825               	movf	___fldiv@b+1,w
 10581     0B8D  00AE               	movwf	___fldiv@rem+1
 10582     0B8E  0824               	movf	___fldiv@b,w
 10583     0B8F  00AD               	movwf	___fldiv@rem
 10584     0B90                     l3559:
 10585     0B90  3000               	movlw	0
 10586     0B91  00A7               	movwf	___fldiv@b+3
 10587     0B92  3000               	movlw	0
 10588     0B93  00A6               	movwf	___fldiv@b+2
 10589     0B94  3000               	movlw	0
 10590     0B95  00A5               	movwf	___fldiv@b+1
 10591     0B96  3000               	movlw	0
 10592     0B97  00A4               	movwf	___fldiv@b
 10593     0B98                     l3561:
 10594     0B98  3000               	movlw	0
 10595     0B99  00B7               	movwf	___fldiv@grs+3
 10596     0B9A  3000               	movlw	0
 10597     0B9B  00B6               	movwf	___fldiv@grs+2
 10598     0B9C  3000               	movlw	0
 10599     0B9D  00B5               	movwf	___fldiv@grs+1
 10600     0B9E  3000               	movlw	0
 10601     0B9F  00B4               	movwf	___fldiv@grs
 10602     0BA0                     l3563:
 10603     0BA0  01B9               	clrf	___fldiv@aexp
 10604     0BA1  2BEA               	goto	l3583
 10605     0BA2                     l3565:
 10606     0BA2  0839               	movf	___fldiv@aexp,w
 10607     0BA3  1903               	btfsc	3,2
 10608     0BA4  2BA6               	goto	u4621
 10609     0BA5  2BA7               	goto	u4620
 10610     0BA6                     u4621:
 10611     0BA6  2BC7               	goto	l3575
 10612     0BA7                     u4620:
 10613     0BA7                     l3567:
 10614     0BA7  3001               	movlw	1
 10615     0BA8  00A8               	movwf	??___fldiv
 10616     0BA9                     u4635:
 10617     0BA9  1003               	clrc
 10618     0BAA  0DAD               	rlf	___fldiv@rem,f
 10619     0BAB  0DAE               	rlf	___fldiv@rem+1,f
 10620     0BAC  0DAF               	rlf	___fldiv@rem+2,f
 10621     0BAD  0DB0               	rlf	___fldiv@rem+3,f
 10622     0BAE  0BA8               	decfsz	??___fldiv,f
 10623     0BAF  2BA9               	goto	u4635
 10624     0BB0  3001               	movlw	1
 10625     0BB1  00A8               	movwf	??___fldiv
 10626     0BB2                     u4645:
 10627     0BB2  1003               	clrc
 10628     0BB3  0DA4               	rlf	___fldiv@b,f
 10629     0BB4  0DA5               	rlf	___fldiv@b+1,f
 10630     0BB5  0DA6               	rlf	___fldiv@b+2,f
 10631     0BB6  0DA7               	rlf	___fldiv@b+3,f
 10632     0BB7  0BA8               	decfsz	??___fldiv,f
 10633     0BB8  2BB2               	goto	u4645
 10634     0BB9                     l3569:
 10635     0BB9  1FB7               	btfss	___fldiv@grs+3,7
 10636     0BBA  2BBC               	goto	u4651
 10637     0BBB  2BBD               	goto	u4650
 10638     0BBC                     u4651:
 10639     0BBC  2BBE               	goto	l3573
 10640     0BBD                     u4650:
 10641     0BBD                     l3571:
 10642     0BBD  1424               	bsf	___fldiv@b,0
 10643     0BBE                     l3573:
 10644     0BBE  3001               	movlw	1
 10645     0BBF  00A8               	movwf	??___fldiv
 10646     0BC0                     u4665:
 10647     0BC0  1003               	clrc
 10648     0BC1  0DB4               	rlf	___fldiv@grs,f
 10649     0BC2  0DB5               	rlf	___fldiv@grs+1,f
 10650     0BC3  0DB6               	rlf	___fldiv@grs+2,f
 10651     0BC4  0DB7               	rlf	___fldiv@grs+3,f
 10652     0BC5  0BA8               	decfsz	??___fldiv,f
 10653     0BC6  2BC0               	goto	u4665
 10654     0BC7                     l3575:
 10655     0BC7  0823               	movf	___fldiv@a+3,w
 10656     0BC8  0230               	subwf	___fldiv@rem+3,w
 10657     0BC9  1D03               	skipz
 10658     0BCA  2BD5               	goto	u4675
 10659     0BCB  0822               	movf	___fldiv@a+2,w
 10660     0BCC  022F               	subwf	___fldiv@rem+2,w
 10661     0BCD  1D03               	skipz
 10662     0BCE  2BD5               	goto	u4675
 10663     0BCF  0821               	movf	___fldiv@a+1,w
 10664     0BD0  022E               	subwf	___fldiv@rem+1,w
 10665     0BD1  1D03               	skipz
 10666     0BD2  2BD5               	goto	u4675
 10667     0BD3  0820               	movf	___fldiv@a,w
 10668     0BD4  022D               	subwf	___fldiv@rem,w
 10669     0BD5                     u4675:
 10670     0BD5  1C03               	skipc
 10671     0BD6  2BD8               	goto	u4671
 10672     0BD7  2BD9               	goto	u4670
 10673     0BD8                     u4671:
 10674     0BD8  2BE8               	goto	l3581
 10675     0BD9                     u4670:
 10676     0BD9                     l3577:
 10677     0BD9  1737               	bsf	___fldiv@grs+3,6
 10678     0BDA                     l3579:
 10679     0BDA  0820               	movf	___fldiv@a,w
 10680     0BDB  02AD               	subwf	___fldiv@rem,f
 10681     0BDC  0821               	movf	___fldiv@a+1,w
 10682     0BDD  1C03               	skipc
 10683     0BDE  0F21               	incfsz	___fldiv@a+1,w
 10684     0BDF  02AE               	subwf	___fldiv@rem+1,f
 10685     0BE0  0822               	movf	___fldiv@a+2,w
 10686     0BE1  1C03               	skipc
 10687     0BE2  0F22               	incfsz	___fldiv@a+2,w
 10688     0BE3  02AF               	subwf	___fldiv@rem+2,f
 10689     0BE4  0823               	movf	___fldiv@a+3,w
 10690     0BE5  1C03               	skipc
 10691     0BE6  0F23               	incfsz	___fldiv@a+3,w
 10692     0BE7  02B0               	subwf	___fldiv@rem+3,f
 10693     0BE8                     l3581:
 10694     0BE8  3001               	movlw	1
 10695     0BE9  07B9               	addwf	___fldiv@aexp,f
 10696     0BEA                     l3583:
 10697     0BEA  301A               	movlw	26
 10698     0BEB  0239               	subwf	___fldiv@aexp,w
 10699     0BEC  1C03               	skipc
 10700     0BED  2BEF               	goto	u4681
 10701     0BEE  2BF0               	goto	u4680
 10702     0BEF                     u4681:
 10703     0BEF  2BA2               	goto	l3565
 10704     0BF0                     u4680:
 10705     0BF0                     l3585:
 10706     0BF0  0830               	movf	___fldiv@rem+3,w
 10707     0BF1  042F               	iorwf	___fldiv@rem+2,w
 10708     0BF2  042E               	iorwf	___fldiv@rem+1,w
 10709     0BF3  042D               	iorwf	___fldiv@rem,w
 10710     0BF4  1903               	skipnz
 10711     0BF5  2BF7               	goto	u4691
 10712     0BF6  2BF8               	goto	u4690
 10713     0BF7                     u4691:
 10714     0BF7  2C17               	goto	l3599
 10715     0BF8                     u4690:
 10716     0BF8                     l3587:
 10717     0BF8  1434               	bsf	___fldiv@grs,0
 10718     0BF9  2C17               	goto	l3599
 10719     0BFA                     l3589:
 10720     0BFA  3001               	movlw	1
 10721     0BFB  00A8               	movwf	??___fldiv
 10722     0BFC                     u4705:
 10723     0BFC  1003               	clrc
 10724     0BFD  0DA4               	rlf	___fldiv@b,f
 10725     0BFE  0DA5               	rlf	___fldiv@b+1,f
 10726     0BFF  0DA6               	rlf	___fldiv@b+2,f
 10727     0C00  0DA7               	rlf	___fldiv@b+3,f
 10728     0C01  0BA8               	decfsz	??___fldiv,f
 10729     0C02  2BFC               	goto	u4705
 10730     0C03                     l3591:
 10731     0C03  1FB7               	btfss	___fldiv@grs+3,7
 10732     0C04  2C06               	goto	u4711
 10733     0C05  2C07               	goto	u4710
 10734     0C06                     u4711:
 10735     0C06  2C08               	goto	l3595
 10736     0C07                     u4710:
 10737     0C07                     l3593:
 10738     0C07  1424               	bsf	___fldiv@b,0
 10739     0C08                     l3595:
 10740     0C08  3001               	movlw	1
 10741     0C09  00A8               	movwf	??___fldiv
 10742     0C0A                     u4725:
 10743     0C0A  1003               	clrc
 10744     0C0B  0DB4               	rlf	___fldiv@grs,f
 10745     0C0C  0DB5               	rlf	___fldiv@grs+1,f
 10746     0C0D  0DB6               	rlf	___fldiv@grs+2,f
 10747     0C0E  0DB7               	rlf	___fldiv@grs+3,f
 10748     0C0F  0BA8               	decfsz	??___fldiv,f
 10749     0C10  2C0A               	goto	u4725
 10750     0C11                     l3597:
 10751     0C11  30FF               	movlw	255
 10752     0C12  07B2               	addwf	___fldiv@new_exp,f
 10753     0C13  1803               	skipnc
 10754     0C14  0AB3               	incf	___fldiv@new_exp+1,f
 10755     0C15  30FF               	movlw	255
 10756     0C16  07B3               	addwf	___fldiv@new_exp+1,f
 10757     0C17                     l3599:
 10758     0C17  1FA6               	btfss	___fldiv@b+2,7
 10759     0C18  2C1A               	goto	u4731
 10760     0C19  2C1B               	goto	u4730
 10761     0C1A                     u4731:
 10762     0C1A  2BFA               	goto	l3589
 10763     0C1B                     u4730:
 10764     0C1B                     l3601:
 10765     0C1B  01B9               	clrf	___fldiv@aexp
 10766     0C1C                     l3603:
 10767     0C1C  1FB7               	btfss	___fldiv@grs+3,7
 10768     0C1D  2C1F               	goto	u4741
 10769     0C1E  2C20               	goto	u4740
 10770     0C1F                     u4741:
 10771     0C1F  2C3C               	goto	l3611
 10772     0C20                     u4740:
 10773     0C20                     l3605:
 10774     0C20  30FF               	movlw	255
 10775     0C21  0534               	andwf	___fldiv@grs,w
 10776     0C22  00A8               	movwf	??___fldiv
 10777     0C23  30FF               	movlw	255
 10778     0C24  0535               	andwf	___fldiv@grs+1,w
 10779     0C25  00A9               	movwf	??___fldiv+1
 10780     0C26  30FF               	movlw	255
 10781     0C27  0536               	andwf	___fldiv@grs+2,w
 10782     0C28  00AA               	movwf	??___fldiv+2
 10783     0C29  307F               	movlw	127
 10784     0C2A  0537               	andwf	___fldiv@grs+3,w
 10785     0C2B  00AB               	movwf	??___fldiv+3
 10786     0C2C  082B               	movf	??___fldiv+3,w
 10787     0C2D  042A               	iorwf	??___fldiv+2,w
 10788     0C2E  0429               	iorwf	??___fldiv+1,w
 10789     0C2F  0428               	iorwf	??___fldiv,w
 10790     0C30  1903               	skipnz
 10791     0C31  2C33               	goto	u4751
 10792     0C32  2C34               	goto	u4750
 10793     0C33                     u4751:
 10794     0C33  2C37               	goto	l780
 10795     0C34                     u4750:
 10796     0C34                     l3607:
 10797     0C34  3001               	movlw	1
 10798     0C35  00B9               	movwf	___fldiv@aexp
 10799     0C36  2C3C               	goto	l3611
 10800     0C37                     l780:
 10801     0C37  1C24               	btfss	___fldiv@b,0
 10802     0C38  2C3A               	goto	u4761
 10803     0C39  2C3B               	goto	u4760
 10804     0C3A                     u4761:
 10805     0C3A  2C3C               	goto	l3611
 10806     0C3B                     u4760:
 10807     0C3B  2C34               	goto	l3607
 10808     0C3C                     l3611:
 10809     0C3C  0839               	movf	___fldiv@aexp,w
 10810     0C3D  1903               	btfsc	3,2
 10811     0C3E  2C40               	goto	u4771
 10812     0C3F  2C41               	goto	u4770
 10813     0C40                     u4771:
 10814     0C40  2C72               	goto	l3621
 10815     0C41                     u4770:
 10816     0C41                     l3613:
 10817     0C41  3001               	movlw	1
 10818     0C42  07A4               	addwf	___fldiv@b,f
 10819     0C43  3000               	movlw	0
 10820     0C44  1803               	skipnc
 10821     0C45  3001               	movlw	1
 10822     0C46  07A5               	addwf	___fldiv@b+1,f
 10823     0C47  3000               	movlw	0
 10824     0C48  1803               	skipnc
 10825     0C49  3001               	movlw	1
 10826     0C4A  07A6               	addwf	___fldiv@b+2,f
 10827     0C4B  3000               	movlw	0
 10828     0C4C  1803               	skipnc
 10829     0C4D  3001               	movlw	1
 10830     0C4E  07A7               	addwf	___fldiv@b+3,f
 10831     0C4F                     l3615:
 10832     0C4F  1C27               	btfss	___fldiv@b+3,0
 10833     0C50  2C52               	goto	u4781
 10834     0C51  2C53               	goto	u4780
 10835     0C52                     u4781:
 10836     0C52  2C72               	goto	l3621
 10837     0C53                     u4780:
 10838     0C53                     l3617:
 10839     0C53  0824               	movf	___fldiv@b,w
 10840     0C54  00A8               	movwf	??___fldiv
 10841     0C55  0825               	movf	___fldiv@b+1,w
 10842     0C56  00A9               	movwf	??___fldiv+1
 10843     0C57  0826               	movf	___fldiv@b+2,w
 10844     0C58  00AA               	movwf	??___fldiv+2
 10845     0C59  0827               	movf	___fldiv@b+3,w
 10846     0C5A  00AB               	movwf	??___fldiv+3
 10847     0C5B  3001               	movlw	1
 10848     0C5C  00AC               	movwf	??___fldiv+4
 10849     0C5D                     u4795:
 10850     0C5D  0D2B               	rlf	??___fldiv+3,w
 10851     0C5E  0CAB               	rrf	??___fldiv+3,f
 10852     0C5F  0CAA               	rrf	??___fldiv+2,f
 10853     0C60  0CA9               	rrf	??___fldiv+1,f
 10854     0C61  0CA8               	rrf	??___fldiv,f
 10855     0C62                     u4790:
 10856     0C62  0BAC               	decfsz	??___fldiv+4,f
 10857     0C63  2C5D               	goto	u4795
 10858     0C64  082B               	movf	??___fldiv+3,w
 10859     0C65  00A7               	movwf	___fldiv@b+3
 10860     0C66  082A               	movf	??___fldiv+2,w
 10861     0C67  00A6               	movwf	___fldiv@b+2
 10862     0C68  0829               	movf	??___fldiv+1,w
 10863     0C69  00A5               	movwf	___fldiv@b+1
 10864     0C6A  0828               	movf	??___fldiv,w
 10865     0C6B  00A4               	movwf	___fldiv@b
 10866     0C6C                     l3619:
 10867     0C6C  3001               	movlw	1
 10868     0C6D  07B2               	addwf	___fldiv@new_exp,f
 10869     0C6E  1803               	skipnc
 10870     0C6F  0AB3               	incf	___fldiv@new_exp+1,f
 10871     0C70  3000               	movlw	0
 10872     0C71  07B3               	addwf	___fldiv@new_exp+1,f
 10873     0C72                     l3621:
 10874     0C72  0833               	movf	___fldiv@new_exp+1,w
 10875     0C73  3A80               	xorlw	128
 10876     0C74  00FF               	movwf	btemp1
 10877     0C75  3080               	movlw	128
 10878     0C76  027F               	subwf	btemp1,w
 10879     0C77  1D03               	skipz
 10880     0C78  2C7B               	goto	u4805
 10881     0C79  30FF               	movlw	255
 10882     0C7A  0232               	subwf	___fldiv@new_exp,w
 10883     0C7B                     u4805:
 10884     0C7B  1C03               	skipc
 10885     0C7C  2C7E               	goto	u4801
 10886     0C7D  2C7F               	goto	u4800
 10887     0C7E                     u4801:
 10888     0C7E  2C8D               	goto	l3625
 10889     0C7F                     u4800:
 10890     0C7F                     l3623:
 10891     0C7F  30FF               	movlw	255
 10892     0C80  1283               	bcf	3,5	;RP0=0, select bank0
 10893     0C81  1303               	bcf	3,6	;RP1=0, select bank0
 10894     0C82  00B2               	movwf	___fldiv@new_exp
 10895     0C83  3000               	movlw	0
 10896     0C84  00B3               	movwf	___fldiv@new_exp+1
 10897     0C85  3000               	movlw	0
 10898     0C86  00A7               	movwf	___fldiv@b+3
 10899     0C87  3000               	movlw	0
 10900     0C88  00A6               	movwf	___fldiv@b+2
 10901     0C89  3000               	movlw	0
 10902     0C8A  00A5               	movwf	___fldiv@b+1
 10903     0C8B  3000               	movlw	0
 10904     0C8C  00A4               	movwf	___fldiv@b
 10905     0C8D                     l3625:
 10906     0C8D  1283               	bcf	3,5	;RP0=0, select bank0
 10907     0C8E  1303               	bcf	3,6	;RP1=0, select bank0
 10908     0C8F  0833               	movf	___fldiv@new_exp+1,w
 10909     0C90  3A80               	xorlw	128
 10910     0C91  00FF               	movwf	btemp1
 10911     0C92  3080               	movlw	128
 10912     0C93  027F               	subwf	btemp1,w
 10913     0C94  1D03               	skipz
 10914     0C95  2C98               	goto	u4815
 10915     0C96  3001               	movlw	1
 10916     0C97  0232               	subwf	___fldiv@new_exp,w
 10917     0C98                     u4815:
 10918     0C98  1803               	skipnc
 10919     0C99  2C9B               	goto	u4811
 10920     0C9A  2C9C               	goto	u4810
 10921     0C9B                     u4811:
 10922     0C9B  2CA9               	goto	l786
 10923     0C9C                     u4810:
 10924     0C9C                     l3627:
 10925     0C9C  1283               	bcf	3,5	;RP0=0, select bank0
 10926     0C9D  1303               	bcf	3,6	;RP1=0, select bank0
 10927     0C9E  01B2               	clrf	___fldiv@new_exp
 10928     0C9F  01B3               	clrf	___fldiv@new_exp+1
 10929     0CA0                     l3629:
 10930     0CA0  3000               	movlw	0
 10931     0CA1  00A7               	movwf	___fldiv@b+3
 10932     0CA2  3000               	movlw	0
 10933     0CA3  00A6               	movwf	___fldiv@b+2
 10934     0CA4  3000               	movlw	0
 10935     0CA5  00A5               	movwf	___fldiv@b+1
 10936     0CA6  3000               	movlw	0
 10937     0CA7  00A4               	movwf	___fldiv@b
 10938     0CA8                     l3631:
 10939     0CA8  01B1               	clrf	___fldiv@sign
 10940     0CA9                     l786:
 10941     0CA9  1283               	bcf	3,5	;RP0=0, select bank0
 10942     0CAA  1303               	bcf	3,6	;RP1=0, select bank0
 10943     0CAB  0832               	movf	___fldiv@new_exp,w
 10944     0CAC  00B8               	movwf	___fldiv@bexp
 10945     0CAD                     l3633:
 10946     0CAD  1C38               	btfss	___fldiv@bexp,0
 10947     0CAE  2CB0               	goto	u4821
 10948     0CAF  2CB1               	goto	u4820
 10949     0CB0                     u4821:
 10950     0CB0  2CB3               	goto	l3637
 10951     0CB1                     u4820:
 10952     0CB1                     l3635:
 10953     0CB1  17A6               	bsf	___fldiv@b+2,7
 10954     0CB2  2CB5               	goto	l788
 10955     0CB3                     l3637:
 10956     0CB3  307F               	movlw	127
 10957     0CB4  05A6               	andwf	___fldiv@b+2,f
 10958     0CB5                     l788:
 10959     0CB5  0838               	movf	___fldiv@bexp,w
 10960     0CB6  00A8               	movwf	??___fldiv
 10961     0CB7  1003               	clrc
 10962     0CB8  0C28               	rrf	??___fldiv,w
 10963     0CB9  00A7               	movwf	___fldiv@b+3
 10964     0CBA  0831               	movf	___fldiv@sign,w
 10965     0CBB  04A7               	iorwf	___fldiv@b+3,f
 10966     0CBC  2B5F               	goto	l3545
 10967     0CBD                     l766:
 10968     0CBD  0008               	return
 10969     0CBE                     __end_of___fldiv:
 10970                           
 10971                           	psect	text44
 10972     0078                     __ptext44:	
 10973 ;; *************** function ___fladd *****************
 10974 ;; Defined at:
 10975 ;;		line 10 in file "C:\Program Files\Microchip\xc8\v3.10\pic\sources\c99\common\sprcadd.c"
 10976 ;; Parameters:    Size  Location     Type
 10977 ;;  b               4   52[BANK0 ] unsigned char 
 10978 ;;  a               4   56[BANK0 ] unsigned char 
 10979 ;; Auto vars:     Size  Location     Type
 10980 ;;  grs             1   71[BANK0 ] unsigned char 
 10981 ;;  bexp            1   70[BANK0 ] unsigned char 
 10982 ;;  aexp            1   69[BANK0 ] unsigned char 
 10983 ;;  signs           1   68[BANK0 ] unsigned char 
 10984 ;; Return value:  Size  Location     Type
 10985 ;;                  4   52[BANK0 ] unsigned char 
 10986 ;; Registers used:
 10987 ;;		wreg, status,2, status,0, btemp1
 10988 ;; Tracked objects:
 10989 ;;		On entry : 0/0
 10990 ;;		On exit  : 0/0
 10991 ;;		Unchanged: 0/0
 10992 ;; Data sizes:     COMMON   BANK0   BANK1   BANK3   BANK2
 10993 ;;      Params:         0       8       0       0       0
 10994 ;;      Locals:         0       4       0       0       0
 10995 ;;      Temps:          0       8       0       0       0
 10996 ;;      Totals:         0      20       0       0       0
 10997 ;;Total ram usage:       20 bytes
 10998 ;; Hardware stack levels used: 1
 10999 ;; This function calls:
 11000 ;;		Nothing
 11001 ;; This function is called by:
 11002 ;;		_ImprimirTemp
 11003 ;;		_CalcStats
 11004 ;;		_main
 11005 ;; This function uses a non-reentrant model
 11006 ;;
 11007                           
 11008     0078                     ___fladd:	
 11009                           ;psect for function ___fladd
 11010                           
 11011     0078                     l2993:	
 11012                           ;incstack = 0
 11013                           ; Regs used in ___fladd: [wreg+status,2+status,0+btemp1]
 11014                           
 11015     0078  1283               	bcf	3,5	;RP0=0, select bank0
 11016     0079  1303               	bcf	3,6	;RP1=0, select bank0
 11017     007A  0857               	movf	___fladd@b+3,w
 11018     007B  00E4               	movwf	___fladd@signs
 11019     007C                     l2995:
 11020     007C  3080               	movlw	128
 11021     007D  05E4               	andwf	___fladd@signs,f
 11022     007E                     l2997:
 11023     007E  0857               	movf	___fladd@b+3,w
 11024     007F  00DC               	movwf	??___fladd
 11025     0080  075C               	addwf	??___fladd,w
 11026     0081  00E6               	movwf	___fladd@bexp
 11027     0082                     l2999:
 11028     0082  1FD6               	btfss	___fladd@b+2,7
 11029     0083  2885               	goto	u3561
 11030     0084  2886               	goto	u3560
 11031     0085                     u3561:
 11032     0085  2887               	goto	l3003
 11033     0086                     u3560:
 11034     0086                     l3001:
 11035     0086  1466               	bsf	___fladd@bexp,0
 11036     0087                     l3003:
 11037     0087  0866               	movf	___fladd@bexp,w
 11038     0088  1903               	btfsc	3,2
 11039     0089  288B               	goto	u3571
 11040     008A  288C               	goto	u3570
 11041     008B                     u3571:
 11042     008B  289C               	goto	l3013
 11043     008C                     u3570:
 11044     008C                     l3005:
 11045     008C  0A66               	incf	___fladd@bexp,w
 11046     008D  1D03               	btfss	3,2
 11047     008E  2890               	goto	u3581
 11048     008F  2891               	goto	u3580
 11049     0090                     u3581:
 11050     0090  2899               	goto	l3009
 11051     0091                     u3580:
 11052     0091                     l3007:
 11053     0091  3000               	movlw	0
 11054     0092  00D7               	movwf	___fladd@b+3
 11055     0093  3000               	movlw	0
 11056     0094  00D6               	movwf	___fladd@b+2
 11057     0095  3000               	movlw	0
 11058     0096  00D5               	movwf	___fladd@b+1
 11059     0097  3000               	movlw	0
 11060     0098  00D4               	movwf	___fladd@b
 11061     0099                     l3009:
 11062     0099  17D6               	bsf	___fladd@b+2,7
 11063     009A                     l3011:
 11064     009A  01D7               	clrf	___fladd@b+3
 11065     009B  28A4               	goto	l703
 11066     009C                     l3013:
 11067     009C  3000               	movlw	0
 11068     009D  00D7               	movwf	___fladd@b+3
 11069     009E  3000               	movlw	0
 11070     009F  00D6               	movwf	___fladd@b+2
 11071     00A0  3000               	movlw	0
 11072     00A1  00D5               	movwf	___fladd@b+1
 11073     00A2  3000               	movlw	0
 11074     00A3  00D4               	movwf	___fladd@b
 11075     00A4                     l703:
 11076     00A4  085B               	movf	___fladd@a+3,w
 11077     00A5  00E5               	movwf	___fladd@aexp
 11078     00A6                     l3015:
 11079     00A6  3080               	movlw	128
 11080     00A7  05E5               	andwf	___fladd@aexp,f
 11081     00A8                     l3017:
 11082     00A8  0865               	movf	___fladd@aexp,w
 11083     00A9  0664               	xorwf	___fladd@signs,w
 11084     00AA  1903               	skipnz
 11085     00AB  28AD               	goto	u3591
 11086     00AC  28AE               	goto	u3590
 11087     00AD                     u3591:
 11088     00AD  28AF               	goto	l3021
 11089     00AE                     u3590:
 11090     00AE                     l3019:
 11091     00AE  1764               	bsf	___fladd@signs,6
 11092     00AF                     l3021:
 11093     00AF  085B               	movf	___fladd@a+3,w
 11094     00B0  00DC               	movwf	??___fladd
 11095     00B1  075C               	addwf	??___fladd,w
 11096     00B2  00E5               	movwf	___fladd@aexp
 11097     00B3                     l3023:
 11098     00B3  1FDA               	btfss	___fladd@a+2,7
 11099     00B4  28B6               	goto	u3601
 11100     00B5  28B7               	goto	u3600
 11101     00B6                     u3601:
 11102     00B6  28B8               	goto	l3027
 11103     00B7                     u3600:
 11104     00B7                     l3025:
 11105     00B7  1465               	bsf	___fladd@aexp,0
 11106     00B8                     l3027:
 11107     00B8  0865               	movf	___fladd@aexp,w
 11108     00B9  1903               	btfsc	3,2
 11109     00BA  28BC               	goto	u3611
 11110     00BB  28BD               	goto	u3610
 11111     00BC                     u3611:
 11112     00BC  28CD               	goto	l3037
 11113     00BD                     u3610:
 11114     00BD                     l3029:
 11115     00BD  0A65               	incf	___fladd@aexp,w
 11116     00BE  1D03               	btfss	3,2
 11117     00BF  28C1               	goto	u3621
 11118     00C0  28C2               	goto	u3620
 11119     00C1                     u3621:
 11120     00C1  28CA               	goto	l3033
 11121     00C2                     u3620:
 11122     00C2                     l3031:
 11123     00C2  3000               	movlw	0
 11124     00C3  00DB               	movwf	___fladd@a+3
 11125     00C4  3000               	movlw	0
 11126     00C5  00DA               	movwf	___fladd@a+2
 11127     00C6  3000               	movlw	0
 11128     00C7  00D9               	movwf	___fladd@a+1
 11129     00C8  3000               	movlw	0
 11130     00C9  00D8               	movwf	___fladd@a
 11131     00CA                     l3033:
 11132     00CA  17DA               	bsf	___fladd@a+2,7
 11133     00CB                     l3035:
 11134     00CB  01DB               	clrf	___fladd@a+3
 11135     00CC  28D5               	goto	l708
 11136     00CD                     l3037:
 11137     00CD  3000               	movlw	0
 11138     00CE  00DB               	movwf	___fladd@a+3
 11139     00CF  3000               	movlw	0
 11140     00D0  00DA               	movwf	___fladd@a+2
 11141     00D1  3000               	movlw	0
 11142     00D2  00D9               	movwf	___fladd@a+1
 11143     00D3  3000               	movlw	0
 11144     00D4  00D8               	movwf	___fladd@a
 11145     00D5                     l708:
 11146     00D5  0866               	movf	___fladd@bexp,w
 11147     00D6  0265               	subwf	___fladd@aexp,w
 11148     00D7  1803               	skipnc
 11149     00D8  28DA               	goto	u3631
 11150     00D9  28DB               	goto	u3630
 11151     00DA                     u3631:
 11152     00DA  28FF               	goto	l3073
 11153     00DB                     u3630:
 11154     00DB                     l3039:
 11155     00DB  1F64               	btfss	___fladd@signs,6
 11156     00DC  28DE               	goto	u3641
 11157     00DD  28DF               	goto	u3640
 11158     00DE                     u3641:
 11159     00DE  28E1               	goto	l3043
 11160     00DF                     u3640:
 11161     00DF                     l3041:
 11162     00DF  3080               	movlw	128
 11163     00E0  06E4               	xorwf	___fladd@signs,f
 11164     00E1                     l3043:
 11165     00E1  0866               	movf	___fladd@bexp,w
 11166     00E2  00E7               	movwf	___fladd@grs
 11167     00E3                     l3045:
 11168     00E3  0865               	movf	___fladd@aexp,w
 11169     00E4  00E6               	movwf	___fladd@bexp
 11170     00E5                     l3047:
 11171     00E5  0867               	movf	___fladd@grs,w
 11172     00E6  00E5               	movwf	___fladd@aexp
 11173     00E7                     l3049:
 11174     00E7  0854               	movf	___fladd@b,w
 11175     00E8  00E7               	movwf	___fladd@grs
 11176     00E9                     l3051:
 11177     00E9  0858               	movf	___fladd@a,w
 11178     00EA  00D4               	movwf	___fladd@b
 11179     00EB                     l3053:
 11180     00EB  0867               	movf	___fladd@grs,w
 11181     00EC  00D8               	movwf	___fladd@a
 11182     00ED                     l3055:
 11183     00ED  0855               	movf	___fladd@b+1,w
 11184     00EE  00E7               	movwf	___fladd@grs
 11185     00EF                     l3057:
 11186     00EF  0859               	movf	___fladd@a+1,w
 11187     00F0  00D5               	movwf	___fladd@b+1
 11188     00F1                     l3059:
 11189     00F1  0867               	movf	___fladd@grs,w
 11190     00F2  00D9               	movwf	___fladd@a+1
 11191     00F3                     l3061:
 11192     00F3  0856               	movf	___fladd@b+2,w
 11193     00F4  00E7               	movwf	___fladd@grs
 11194     00F5                     l3063:
 11195     00F5  085A               	movf	___fladd@a+2,w
 11196     00F6  00D6               	movwf	___fladd@b+2
 11197     00F7                     l3065:
 11198     00F7  0867               	movf	___fladd@grs,w
 11199     00F8  00DA               	movwf	___fladd@a+2
 11200     00F9                     l3067:
 11201     00F9  0857               	movf	___fladd@b+3,w
 11202     00FA  00E7               	movwf	___fladd@grs
 11203     00FB                     l3069:
 11204     00FB  085B               	movf	___fladd@a+3,w
 11205     00FC  00D7               	movwf	___fladd@b+3
 11206     00FD                     l3071:
 11207     00FD  0867               	movf	___fladd@grs,w
 11208     00FE  00DB               	movwf	___fladd@a+3
 11209     00FF                     l3073:
 11210     00FF  01E7               	clrf	___fladd@grs
 11211     0100                     l3075:
 11212     0100  0865               	movf	___fladd@aexp,w
 11213     0101  00DC               	movwf	??___fladd
 11214     0102  01DD               	clrf	??___fladd+1
 11215     0103  085D               	movf	??___fladd+1,w
 11216     0104  00DF               	movwf	??___fladd+3
 11217     0105  0866               	movf	___fladd@bexp,w
 11218     0106  025C               	subwf	??___fladd,w
 11219     0107  00DE               	movwf	??___fladd+2
 11220     0108  1C03               	skipc
 11221     0109  03DF               	decf	??___fladd+3,f
 11222     010A  085F               	movf	??___fladd+3,w
 11223     010B  3A80               	xorlw	128
 11224     010C  00FF               	movwf	btemp1
 11225     010D  3080               	movlw	128
 11226     010E  027F               	subwf	btemp1,w
 11227     010F  1D03               	skipz
 11228     0110  2913               	goto	u3655
 11229     0111  301A               	movlw	26
 11230     0112  025E               	subwf	??___fladd+2,w
 11231     0113                     u3655:
 11232     0113  1C03               	skipc
 11233     0114  2916               	goto	u3651
 11234     0115  2917               	goto	u3650
 11235     0116                     u3651:
 11236     0116  294C               	goto	l3091
 11237     0117                     u3650:
 11238     0117                     l3077:
 11239     0117  1283               	bcf	3,5	;RP0=0, select bank0
 11240     0118  1303               	bcf	3,6	;RP1=0, select bank0
 11241     0119  0857               	movf	___fladd@b+3,w
 11242     011A  0456               	iorwf	___fladd@b+2,w
 11243     011B  0455               	iorwf	___fladd@b+1,w
 11244     011C  0454               	iorwf	___fladd@b,w
 11245     011D  1D03               	skipz
 11246     011E  2920               	goto	u3661
 11247     011F  2922               	goto	u3660
 11248     0120                     u3661:
 11249     0120  3001               	movlw	1
 11250     0121  2923               	goto	u3670
 11251     0122                     u3660:
 11252     0122  3000               	movlw	0
 11253     0123                     u3670:
 11254     0123  00E7               	movwf	___fladd@grs
 11255     0124  3000               	movlw	0
 11256     0125  00D7               	movwf	___fladd@b+3
 11257     0126  3000               	movlw	0
 11258     0127  00D6               	movwf	___fladd@b+2
 11259     0128  3000               	movlw	0
 11260     0129  00D5               	movwf	___fladd@b+1
 11261     012A  3000               	movlw	0
 11262     012B  00D4               	movwf	___fladd@b
 11263     012C  0865               	movf	___fladd@aexp,w
 11264     012D  00E6               	movwf	___fladd@bexp
 11265     012E  2954               	goto	l712
 11266     012F                     l714:
 11267     012F  1C67               	btfss	___fladd@grs,0
 11268     0130  2932               	goto	u3681
 11269     0131  2933               	goto	u3680
 11270     0132                     u3681:
 11271     0132  293A               	goto	l3081
 11272     0133                     u3680:
 11273     0133                     l3079:
 11274     0133  0867               	movf	___fladd@grs,w
 11275     0134  00DC               	movwf	??___fladd
 11276     0135  1003               	clrc
 11277     0136  0C5C               	rrf	??___fladd,w
 11278     0137  3801               	iorlw	1
 11279     0138  00E7               	movwf	___fladd@grs
 11280     0139  293C               	goto	l3083
 11281     013A                     l3081:
 11282     013A  1003               	clrc
 11283     013B  0CE7               	rrf	___fladd@grs,f
 11284     013C                     l3083:
 11285     013C  1C54               	btfss	___fladd@b,0
 11286     013D  293F               	goto	u3691
 11287     013E  2940               	goto	u3690
 11288     013F                     u3691:
 11289     013F  2941               	goto	l3087
 11290     0140                     u3690:
 11291     0140                     l3085:
 11292     0140  17E7               	bsf	___fladd@grs,7
 11293     0141                     l3087:
 11294     0141  3001               	movlw	1
 11295     0142  00DC               	movwf	??___fladd
 11296     0143                     u3705:
 11297     0143  0D57               	rlf	___fladd@b+3,w
 11298     0144  0CD7               	rrf	___fladd@b+3,f
 11299     0145  0CD6               	rrf	___fladd@b+2,f
 11300     0146  0CD5               	rrf	___fladd@b+1,f
 11301     0147  0CD4               	rrf	___fladd@b,f
 11302     0148  0BDC               	decfsz	??___fladd& (0+127),f
 11303     0149  2943               	goto	u3705
 11304     014A                     l3089:
 11305     014A  3001               	movlw	1
 11306     014B  07E6               	addwf	___fladd@bexp,f
 11307     014C                     l3091:
 11308     014C  1283               	bcf	3,5	;RP0=0, select bank0
 11309     014D  1303               	bcf	3,6	;RP1=0, select bank0
 11310     014E  0865               	movf	___fladd@aexp,w
 11311     014F  0266               	subwf	___fladd@bexp,w
 11312     0150  1C03               	skipc
 11313     0151  2953               	goto	u3711
 11314     0152  2954               	goto	u3710
 11315     0153                     u3711:
 11316     0153  292F               	goto	l714
 11317     0154                     u3710:
 11318     0154                     l712:
 11319     0154  1B64               	btfsc	___fladd@signs,6
 11320     0155  2957               	goto	u3721
 11321     0156  2958               	goto	u3720
 11322     0157                     u3721:
 11323     0157  299F               	goto	l3117
 11324     0158                     u3720:
 11325     0158                     l3093:
 11326     0158  0866               	movf	___fladd@bexp,w
 11327     0159  1D03               	btfss	3,2
 11328     015A  295C               	goto	u3731
 11329     015B  295D               	goto	u3730
 11330     015C                     u3731:
 11331     015C  2966               	goto	l3099
 11332     015D                     u3730:
 11333     015D                     l3095:
 11334     015D  3000               	movlw	0
 11335     015E  00D7               	movwf	?___fladd+3
 11336     015F  3000               	movlw	0
 11337     0160  00D6               	movwf	?___fladd+2
 11338     0161  3000               	movlw	0
 11339     0162  00D5               	movwf	?___fladd+1
 11340     0163  3000               	movlw	0
 11341     0164  00D4               	movwf	?___fladd
 11342     0165  2AC7               	goto	l721
 11343     0166                     l3099:
 11344     0166  0858               	movf	___fladd@a,w
 11345     0167  07D4               	addwf	___fladd@b,f
 11346     0168  0859               	movf	___fladd@a+1,w
 11347     0169  1103               	clrz
 11348     016A  1803               	skipnc
 11349     016B  3E01               	addlw	1
 11350     016C  1903               	skipnz
 11351     016D  296F               	goto	u3741
 11352     016E  07D5               	addwf	___fladd@b+1,f
 11353     016F                     u3741:
 11354     016F  085A               	movf	___fladd@a+2,w
 11355     0170  1103               	clrz
 11356     0171  1803               	skipnc
 11357     0172  3E01               	addlw	1
 11358     0173  1903               	skipnz
 11359     0174  2976               	goto	u3742
 11360     0175  07D6               	addwf	___fladd@b+2,f
 11361     0176                     u3742:
 11362     0176  085B               	movf	___fladd@a+3,w
 11363     0177  1103               	clrz
 11364     0178  1803               	skipnc
 11365     0179  3E01               	addlw	1
 11366     017A  1903               	skipnz
 11367     017B  297D               	goto	u3743
 11368     017C  07D7               	addwf	___fladd@b+3,f
 11369     017D                     u3743:
 11370     017D                     l3101:
 11371     017D  1C57               	btfss	___fladd@b+3,0
 11372     017E  2980               	goto	u3751
 11373     017F  2981               	goto	u3750
 11374     0180                     u3751:
 11375     0180  2A53               	goto	l3153
 11376     0181                     u3750:
 11377     0181                     l3103:
 11378     0181  1C67               	btfss	___fladd@grs,0
 11379     0182  2984               	goto	u3761
 11380     0183  2985               	goto	u3760
 11381     0184                     u3761:
 11382     0184  298C               	goto	l3107
 11383     0185                     u3760:
 11384     0185                     l3105:
 11385     0185  0867               	movf	___fladd@grs,w
 11386     0186  00DC               	movwf	??___fladd
 11387     0187  1003               	clrc
 11388     0188  0C5C               	rrf	??___fladd,w
 11389     0189  3801               	iorlw	1
 11390     018A  00E7               	movwf	___fladd@grs
 11391     018B  298E               	goto	l3109
 11392     018C                     l3107:
 11393     018C  1003               	clrc
 11394     018D  0CE7               	rrf	___fladd@grs,f
 11395     018E                     l3109:
 11396     018E  1C54               	btfss	___fladd@b,0
 11397     018F  2991               	goto	u3771
 11398     0190  2992               	goto	u3770
 11399     0191                     u3771:
 11400     0191  2993               	goto	l3113
 11401     0192                     u3770:
 11402     0192                     l3111:
 11403     0192  17E7               	bsf	___fladd@grs,7
 11404     0193                     l3113:
 11405     0193  3001               	movlw	1
 11406     0194  00DC               	movwf	??___fladd
 11407     0195                     u3785:
 11408     0195  0D57               	rlf	___fladd@b+3,w
 11409     0196  0CD7               	rrf	___fladd@b+3,f
 11410     0197  0CD6               	rrf	___fladd@b+2,f
 11411     0198  0CD5               	rrf	___fladd@b+1,f
 11412     0199  0CD4               	rrf	___fladd@b,f
 11413     019A  0BDC               	decfsz	??___fladd& (0+127),f
 11414     019B  2995               	goto	u3785
 11415     019C                     l3115:
 11416     019C  3001               	movlw	1
 11417     019D  07E6               	addwf	___fladd@bexp,f
 11418     019E  2A53               	goto	l3153
 11419     019F                     l3117:
 11420     019F  0857               	movf	___fladd@b+3,w
 11421     01A0  3A80               	xorlw	128
 11422     01A1  00FF               	movwf	btemp1
 11423     01A2  085B               	movf	___fladd@a+3,w
 11424     01A3  3A80               	xorlw	128
 11425     01A4  027F               	subwf	btemp1,w
 11426     01A5  1D03               	skipz
 11427     01A6  29B1               	goto	u3793
 11428     01A7  085A               	movf	___fladd@a+2,w
 11429     01A8  0256               	subwf	___fladd@b+2,w
 11430     01A9  1D03               	skipz
 11431     01AA  29B1               	goto	u3793
 11432     01AB  0859               	movf	___fladd@a+1,w
 11433     01AC  0255               	subwf	___fladd@b+1,w
 11434     01AD  1D03               	skipz
 11435     01AE  29B1               	goto	u3793
 11436     01AF  0858               	movf	___fladd@a,w
 11437     01B0  0254               	subwf	___fladd@b,w
 11438     01B1                     u3793:
 11439     01B1  1803               	skipnc
 11440     01B2  29B4               	goto	u3791
 11441     01B3  29B5               	goto	u3790
 11442     01B4                     u3791:
 11443     01B4  2A0C               	goto	l3129
 11444     01B5                     u3790:
 11445     01B5                     l3119:
 11446     01B5  30FF               	movlw	255
 11447     01B6  00DC               	movwf	??___fladd
 11448     01B7  30FF               	movlw	255
 11449     01B8  00DD               	movwf	??___fladd+1
 11450     01B9  30FF               	movlw	255
 11451     01BA  00DE               	movwf	??___fladd+2
 11452     01BB  30FF               	movlw	255
 11453     01BC  00DF               	movwf	??___fladd+3
 11454     01BD  0858               	movf	___fladd@a,w
 11455     01BE  00E0               	movwf	??___fladd+4
 11456     01BF  0859               	movf	___fladd@a+1,w
 11457     01C0  00E1               	movwf	??___fladd+5
 11458     01C1  085A               	movf	___fladd@a+2,w
 11459     01C2  00E2               	movwf	??___fladd+6
 11460     01C3  085B               	movf	___fladd@a+3,w
 11461     01C4  00E3               	movwf	??___fladd+7
 11462     01C5  0854               	movf	___fladd@b,w
 11463     01C6  02E0               	subwf	??___fladd+4,f
 11464     01C7  0855               	movf	___fladd@b+1,w
 11465     01C8  1C03               	skipc
 11466     01C9  0F55               	incfsz	___fladd@b+1,w
 11467     01CA  29CC               	goto	u3801
 11468     01CB  29CD               	goto	u3802
 11469     01CC                     u3801:
 11470     01CC  02E1               	subwf	??___fladd+5,f
 11471     01CD                     u3802:
 11472     01CD  0856               	movf	___fladd@b+2,w
 11473     01CE  1C03               	skipc
 11474     01CF  0F56               	incfsz	___fladd@b+2,w
 11475     01D0  29D2               	goto	u3803
 11476     01D1  29D3               	goto	u3804
 11477     01D2                     u3803:
 11478     01D2  02E2               	subwf	??___fladd+6,f
 11479     01D3                     u3804:
 11480     01D3  0857               	movf	___fladd@b+3,w
 11481     01D4  1C03               	skipc
 11482     01D5  0F57               	incfsz	___fladd@b+3,w
 11483     01D6  29D8               	goto	u3805
 11484     01D7  29D9               	goto	u3806
 11485     01D8                     u3805:
 11486     01D8  02E3               	subwf	??___fladd+7,f
 11487     01D9                     u3806:
 11488     01D9  0860               	movf	??___fladd+4,w
 11489     01DA  07DC               	addwf	??___fladd,f
 11490     01DB  0861               	movf	??___fladd+5,w
 11491     01DC  1803               	skipnc
 11492     01DD  0F61               	incfsz	??___fladd+5,w
 11493     01DE  29E0               	goto	u3810
 11494     01DF  29E1               	goto	u3811
 11495     01E0                     u3810:
 11496     01E0  07DD               	addwf	??___fladd+1,f
 11497     01E1                     u3811:
 11498     01E1  0862               	movf	??___fladd+6,w
 11499     01E2  1803               	skipnc
 11500     01E3  0F62               	incfsz	??___fladd+6,w
 11501     01E4  29E6               	goto	u3812
 11502     01E5  29E7               	goto	u3813
 11503     01E6                     u3812:
 11504     01E6  07DE               	addwf	??___fladd+2,f
 11505     01E7                     u3813:
 11506     01E7  0863               	movf	??___fladd+7,w
 11507     01E8  1803               	skipnc
 11508     01E9  0A63               	incf	??___fladd+7,w
 11509     01EA  07DF               	addwf	??___fladd+3,f
 11510     01EB  085F               	movf	??___fladd+3,w
 11511     01EC  00D7               	movwf	___fladd@b+3
 11512     01ED  085E               	movf	??___fladd+2,w
 11513     01EE  00D6               	movwf	___fladd@b+2
 11514     01EF  085D               	movf	??___fladd+1,w
 11515     01F0  00D5               	movwf	___fladd@b+1
 11516     01F1  085C               	movf	??___fladd,w
 11517     01F2  00D4               	movwf	___fladd@b
 11518     01F3                     l3121:
 11519     01F3  3080               	movlw	128
 11520     01F4  06E4               	xorwf	___fladd@signs,f
 11521     01F5                     l3123:
 11522     01F5  0367               	decf	___fladd@grs,w
 11523     01F6  3AFF               	xorlw	255
 11524     01F7  00E7               	movwf	___fladd@grs
 11525     01F8                     l3125:
 11526     01F8  0867               	movf	___fladd@grs,w
 11527     01F9  1D03               	btfss	3,2
 11528     01FA  29FC               	goto	u3821
 11529     01FB  29FD               	goto	u3820
 11530     01FC                     u3821:
 11531     01FC  2A1A               	goto	l729
 11532     01FD                     u3820:
 11533     01FD                     l3127:
 11534     01FD  3001               	movlw	1
 11535     01FE  07D4               	addwf	___fladd@b,f
 11536     01FF  3000               	movlw	0
 11537     0200  1803               	skipnc
 11538     0201  3001               	movlw	1
 11539     0202  07D5               	addwf	___fladd@b+1,f
 11540     0203  3000               	movlw	0
 11541     0204  1803               	skipnc
 11542     0205  3001               	movlw	1
 11543     0206  07D6               	addwf	___fladd@b+2,f
 11544     0207  3000               	movlw	0
 11545     0208  1803               	skipnc
 11546     0209  3001               	movlw	1
 11547     020A  07D7               	addwf	___fladd@b+3,f
 11548     020B  2A1A               	goto	l729
 11549     020C                     l3129:
 11550     020C  0858               	movf	___fladd@a,w
 11551     020D  02D4               	subwf	___fladd@b,f
 11552     020E  0859               	movf	___fladd@a+1,w
 11553     020F  1C03               	skipc
 11554     0210  0F59               	incfsz	___fladd@a+1,w
 11555     0211  02D5               	subwf	___fladd@b+1,f
 11556     0212  085A               	movf	___fladd@a+2,w
 11557     0213  1C03               	skipc
 11558     0214  0F5A               	incfsz	___fladd@a+2,w
 11559     0215  02D6               	subwf	___fladd@b+2,f
 11560     0216  085B               	movf	___fladd@a+3,w
 11561     0217  1C03               	skipc
 11562     0218  0F5B               	incfsz	___fladd@a+3,w
 11563     0219  02D7               	subwf	___fladd@b+3,f
 11564     021A                     l729:
 11565     021A  0857               	movf	___fladd@b+3,w
 11566     021B  0456               	iorwf	___fladd@b+2,w
 11567     021C  0455               	iorwf	___fladd@b+1,w
 11568     021D  0454               	iorwf	___fladd@b,w
 11569     021E  1D03               	skipz
 11570     021F  2A21               	goto	u3831
 11571     0220  2A22               	goto	u3830
 11572     0221                     u3831:
 11573     0221  2A4F               	goto	l3151
 11574     0222                     u3830:
 11575     0222                     l3131:
 11576     0222  0867               	movf	___fladd@grs,w
 11577     0223  1D03               	btfss	3,2
 11578     0224  2A26               	goto	u3841
 11579     0225  2A27               	goto	u3840
 11580     0226                     u3841:
 11581     0226  2A4F               	goto	l3151
 11582     0227                     u3840:
 11583     0227                     l3133:
 11584     0227  3000               	movlw	0
 11585     0228  00D7               	movwf	?___fladd+3
 11586     0229  3000               	movlw	0
 11587     022A  00D6               	movwf	?___fladd+2
 11588     022B  3000               	movlw	0
 11589     022C  00D5               	movwf	?___fladd+1
 11590     022D  3000               	movlw	0
 11591     022E  00D4               	movwf	?___fladd
 11592     022F  2AC7               	goto	l721
 11593     0230                     l3137:
 11594     0230  3001               	movlw	1
 11595     0231  00DC               	movwf	??___fladd
 11596     0232                     u3855:
 11597     0232  1003               	clrc
 11598     0233  0DD4               	rlf	___fladd@b,f
 11599     0234  0DD5               	rlf	___fladd@b+1,f
 11600     0235  0DD6               	rlf	___fladd@b+2,f
 11601     0236  0DD7               	rlf	___fladd@b+3,f
 11602     0237  0BDC               	decfsz	??___fladd,f
 11603     0238  2A32               	goto	u3855
 11604     0239                     l3139:
 11605     0239  1FE7               	btfss	___fladd@grs,7
 11606     023A  2A3C               	goto	u3861
 11607     023B  2A3D               	goto	u3860
 11608     023C                     u3861:
 11609     023C  2A3E               	goto	l733
 11610     023D                     u3860:
 11611     023D                     l3141:
 11612     023D  1454               	bsf	___fladd@b,0
 11613     023E                     l733:
 11614     023E  1C67               	btfss	___fladd@grs,0
 11615     023F  2A41               	goto	u3871
 11616     0240  2A42               	goto	u3870
 11617     0241                     u3871:
 11618     0241  2A46               	goto	l3145
 11619     0242                     u3870:
 11620     0242                     l3143:
 11621     0242  1403               	setc
 11622     0243  0D67               	rlf	___fladd@grs,w
 11623     0244  00E7               	movwf	___fladd@grs
 11624     0245  2A48               	goto	l3147
 11625     0246                     l3145:
 11626     0246  1003               	clrc
 11627     0247  0DE7               	rlf	___fladd@grs,f
 11628     0248                     l3147:
 11629     0248  0866               	movf	___fladd@bexp,w
 11630     0249  1903               	btfsc	3,2
 11631     024A  2A4C               	goto	u3881
 11632     024B  2A4D               	goto	u3880
 11633     024C                     u3881:
 11634     024C  2A4F               	goto	l3151
 11635     024D                     u3880:
 11636     024D                     l3149:
 11637     024D  3001               	movlw	1
 11638     024E  02E6               	subwf	___fladd@bexp,f
 11639     024F                     l3151:
 11640     024F  1FD6               	btfss	___fladd@b+2,7
 11641     0250  2A52               	goto	u3891
 11642     0251  2A53               	goto	u3890
 11643     0252                     u3891:
 11644     0252  2A30               	goto	l3137
 11645     0253                     u3890:
 11646     0253                     l3153:
 11647     0253  01E5               	clrf	___fladd@aexp
 11648     0254                     l3155:
 11649     0254  1FE7               	btfss	___fladd@grs,7
 11650     0255  2A57               	goto	u3901
 11651     0256  2A58               	goto	u3900
 11652     0257                     u3901:
 11653     0257  2A66               	goto	l3163
 11654     0258                     u3900:
 11655     0258                     l3157:
 11656     0258  0867               	movf	___fladd@grs,w
 11657     0259  397F               	andlw	127
 11658     025A  1903               	btfsc	3,2
 11659     025B  2A5D               	goto	u3911
 11660     025C  2A5E               	goto	u3910
 11661     025D                     u3911:
 11662     025D  2A61               	goto	l739
 11663     025E                     u3910:
 11664     025E                     l3159:
 11665     025E  3001               	movlw	1
 11666     025F  00E5               	movwf	___fladd@aexp
 11667     0260  2A66               	goto	l3163
 11668     0261                     l739:
 11669     0261  1C54               	btfss	___fladd@b,0
 11670     0262  2A64               	goto	u3921
 11671     0263  2A65               	goto	u3920
 11672     0264                     u3921:
 11673     0264  2A66               	goto	l3163
 11674     0265                     u3920:
 11675     0265  2A5E               	goto	l3159
 11676     0266                     l3163:
 11677     0266  0865               	movf	___fladd@aexp,w
 11678     0267  1903               	btfsc	3,2
 11679     0268  2A6A               	goto	u3931
 11680     0269  2A6B               	goto	u3930
 11681     026A                     u3931:
 11682     026A  2A9D               	goto	l742
 11683     026B                     u3930:
 11684     026B                     l3165:
 11685     026B  3001               	movlw	1
 11686     026C  07D4               	addwf	___fladd@b,f
 11687     026D  3000               	movlw	0
 11688     026E  1803               	skipnc
 11689     026F  3001               	movlw	1
 11690     0270  07D5               	addwf	___fladd@b+1,f
 11691     0271  3000               	movlw	0
 11692     0272  1803               	skipnc
 11693     0273  3001               	movlw	1
 11694     0274  07D6               	addwf	___fladd@b+2,f
 11695     0275  3000               	movlw	0
 11696     0276  1803               	skipnc
 11697     0277  3001               	movlw	1
 11698     0278  07D7               	addwf	___fladd@b+3,f
 11699     0279                     l3167:
 11700     0279  1C57               	btfss	___fladd@b+3,0
 11701     027A  2A7C               	goto	u3941
 11702     027B  2A7D               	goto	u3940
 11703     027C                     u3941:
 11704     027C  2A9D               	goto	l742
 11705     027D                     u3940:
 11706     027D                     l3169:
 11707     027D  0854               	movf	___fladd@b,w
 11708     027E  00DC               	movwf	??___fladd
 11709     027F  0855               	movf	___fladd@b+1,w
 11710     0280  00DD               	movwf	??___fladd+1
 11711     0281  0856               	movf	___fladd@b+2,w
 11712     0282  00DE               	movwf	??___fladd+2
 11713     0283  0857               	movf	___fladd@b+3,w
 11714     0284  00DF               	movwf	??___fladd+3
 11715     0285  3001               	movlw	1
 11716     0286  00E0               	movwf	??___fladd+4
 11717     0287                     u3955:
 11718     0287  0D5F               	rlf	??___fladd+3,w
 11719     0288  0CDF               	rrf	??___fladd+3,f
 11720     0289  0CDE               	rrf	??___fladd+2,f
 11721     028A  0CDD               	rrf	??___fladd+1,f
 11722     028B  0CDC               	rrf	??___fladd,f
 11723     028C                     u3950:
 11724     028C  0BE0               	decfsz	??___fladd+4,f
 11725     028D  2A87               	goto	u3955
 11726     028E  085F               	movf	??___fladd+3,w
 11727     028F  00D7               	movwf	___fladd@b+3
 11728     0290  085E               	movf	??___fladd+2,w
 11729     0291  00D6               	movwf	___fladd@b+2
 11730     0292  085D               	movf	??___fladd+1,w
 11731     0293  00D5               	movwf	___fladd@b+1
 11732     0294  085C               	movf	??___fladd,w
 11733     0295  00D4               	movwf	___fladd@b
 11734     0296  0A66               	incf	___fladd@bexp,w
 11735     0297  1903               	btfsc	3,2
 11736     0298  2A9A               	goto	u3961
 11737     0299  2A9B               	goto	u3960
 11738     029A                     u3961:
 11739     029A  2A9D               	goto	l742
 11740     029B                     u3960:
 11741     029B                     l3171:
 11742     029B  3001               	movlw	1
 11743     029C  07E6               	addwf	___fladd@bexp,f
 11744     029D                     l742:
 11745     029D  0A66               	incf	___fladd@bexp,w
 11746     029E  1903               	btfsc	3,2
 11747     029F  2AA1               	goto	u3971
 11748     02A0  2AA2               	goto	u3970
 11749     02A1                     u3971:
 11750     02A1  2AA7               	goto	l3175
 11751     02A2                     u3970:
 11752     02A2                     l3173:
 11753     02A2  0866               	movf	___fladd@bexp,w
 11754     02A3  1D03               	btfss	3,2
 11755     02A4  2AA6               	goto	u3981
 11756     02A5  2AA7               	goto	u3980
 11757     02A6                     u3981:
 11758     02A6  2AB5               	goto	l3181
 11759     02A7                     u3980:
 11760     02A7                     l3175:
 11761     02A7  3000               	movlw	0
 11762     02A8  00D7               	movwf	___fladd@b+3
 11763     02A9  3000               	movlw	0
 11764     02AA  00D6               	movwf	___fladd@b+2
 11765     02AB  3000               	movlw	0
 11766     02AC  00D5               	movwf	___fladd@b+1
 11767     02AD  3000               	movlw	0
 11768     02AE  00D4               	movwf	___fladd@b
 11769     02AF                     l3177:
 11770     02AF  0866               	movf	___fladd@bexp,w
 11771     02B0  1D03               	btfss	3,2
 11772     02B1  2AB3               	goto	u3991
 11773     02B2  2AB4               	goto	u3990
 11774     02B3                     u3991:
 11775     02B3  2AB5               	goto	l3181
 11776     02B4                     u3990:
 11777     02B4                     l3179:
 11778     02B4  01E4               	clrf	___fladd@signs
 11779     02B5                     l3181:
 11780     02B5  1C66               	btfss	___fladd@bexp,0
 11781     02B6  2AB8               	goto	u4001
 11782     02B7  2AB9               	goto	u4000
 11783     02B8                     u4001:
 11784     02B8  2ABB               	goto	l3185
 11785     02B9                     u4000:
 11786     02B9                     l3183:
 11787     02B9  17D6               	bsf	___fladd@b+2,7
 11788     02BA  2ABD               	goto	l750
 11789     02BB                     l3185:
 11790     02BB  307F               	movlw	127
 11791     02BC  05D6               	andwf	___fladd@b+2,f
 11792     02BD                     l750:
 11793     02BD  0866               	movf	___fladd@bexp,w
 11794     02BE  00DC               	movwf	??___fladd
 11795     02BF  1003               	clrc
 11796     02C0  0C5C               	rrf	??___fladd,w
 11797     02C1  00D7               	movwf	___fladd@b+3
 11798     02C2                     l3187:
 11799     02C2  1FE4               	btfss	___fladd@signs,7
 11800     02C3  2AC5               	goto	u4011
 11801     02C4  2AC6               	goto	u4010
 11802     02C5                     u4011:
 11803     02C5  2AC7               	goto	l751
 11804     02C6                     u4010:
 11805     02C6                     l3189:
 11806     02C6  17D7               	bsf	___fladd@b+3,7
 11807     02C7                     l751:
 11808     02C7                     l721:
 11809     02C7  0008               	return
 11810     02C8                     __end_of___fladd:
 11811                           
 11812                           	psect	text45
 11813     1411                     __ptext45:	
 11814 ;; *************** function _Almacenamiento_Inicializar *****************
 11815 ;; Defined at:
 11816 ;;		line 51 in file "controlador_almacenamiento.c"
 11817 ;; Parameters:    Size  Location     Type
 11818 ;;		None
 11819 ;; Auto vars:     Size  Location     Type
 11820 ;;  reintentos      2    8[BANK0 ] unsigned short 
 11821 ;;  i               1    7[BANK0 ] unsigned char 
 11822 ;;  r               1    6[BANK0 ] unsigned char 
 11823 ;; Return value:  Size  Location     Type
 11824 ;;                  1    wreg      unsigned char 
 11825 ;; Registers used:
 11826 ;;		wreg, status,2, status,0, pclath, cstack
 11827 ;; Tracked objects:
 11828 ;;		On entry : 0/0
 11829 ;;		On exit  : 0/0
 11830 ;;		Unchanged: 0/0
 11831 ;; Data sizes:     COMMON   BANK0   BANK1   BANK3   BANK2
 11832 ;;      Params:         0       0       0       0       0
 11833 ;;      Locals:         0       4       0       0       0
 11834 ;;      Temps:          0       2       0       0       0
 11835 ;;      Totals:         0       6       0       0       0
 11836 ;;Total ram usage:        6 bytes
 11837 ;; Hardware stack levels used: 1
 11838 ;; Hardware stack levels required when called: 2
 11839 ;; This function calls:
 11840 ;;		_Almacenamiento_EnviarComando
 11841 ;;		_Almacenamiento_IniciarSPI
 11842 ;;		_Almacenamiento_TransferirSPI
 11843 ;; This function is called by:
 11844 ;;		_main
 11845 ;; This function uses a non-reentrant model
 11846 ;;
 11847                           
 11848     1411                     _Almacenamiento_Inicializar:	
 11849                           ;psect for function _Almacenamiento_Inicializar
 11850                           
 11851     1411                     l3871:	
 11852                           ;incstack = 0
 11853                           ; Regs used in _Almacenamiento_Inicializar: [wreg+status,2+status,0+pclath+cstack]
 11854                           
 11855                           
 11856                           ;controlador_almacenamiento.c: 52:     uint8_t i, r;;controlador_almacenamiento.c: 53:  
      +                             uint16_t reintentos;;controlador_almacenamiento.c: 55:     Almacenamiento_IniciarSPI(
      +                          );
 11857     1411  160A  158A  2234  160A  118A  	fcall	_Almacenamiento_IniciarSPI
 11858     1416                     l3873:
 11859                           
 11860                           ;controlador_almacenamiento.c: 56:     PORTBbits.RB0 = 1;
 11861     1416  1283               	bcf	3,5	;RP0=0, select bank0
 11862     1417  1303               	bcf	3,6	;RP1=0, select bank0
 11863     1418  1406               	bsf	6,0	;volatile
 11864     1419                     l3875:
 11865                           
 11866                           ;controlador_almacenamiento.c: 57:     for(i = 0; i < 10; i++) Almacenamiento_Transferir
      +                          SPI(0xFF);
 11867     1419  01A7               	clrf	Almacenamiento_Inicializar@i
 11868     141A                     l3881:
 11869     141A  30FF               	movlw	255
 11870     141B  160A  158A  23C8  160A  118A  	fcall	_Almacenamiento_TransferirSPI
 11871     1420                     l3883:
 11872     1420  3001               	movlw	1
 11873     1421  1283               	bcf	3,5	;RP0=0, select bank0
 11874     1422  1303               	bcf	3,6	;RP1=0, select bank0
 11875     1423  07A7               	addwf	Almacenamiento_Inicializar@i,f
 11876     1424                     l3885:
 11877     1424  300A               	movlw	10
 11878     1425  0227               	subwf	Almacenamiento_Inicializar@i,w
 11879     1426  1C03               	skipc
 11880     1427  2C29               	goto	u5181
 11881     1428  2C2A               	goto	u5180
 11882     1429                     u5181:
 11883     1429  2C1A               	goto	l3881
 11884     142A                     u5180:
 11885     142A                     l158:
 11886                           
 11887                           ;controlador_almacenamiento.c: 59:     PORTBbits.RB0 = 0;
 11888     142A  1006               	bcf	6,0	;volatile
 11889     142B                     l3887:
 11890                           
 11891                           ;controlador_almacenamiento.c: 60:     _delay((unsigned long)((1)*(20000000/4000.0)));
 11892     142B  3007               	movlw	7
 11893     142C  1283               	bcf	3,5	;RP0=0, select bank0
 11894     142D  1303               	bcf	3,6	;RP1=0, select bank0
 11895     142E  00A5               	movwf	??_Almacenamiento_Inicializar+1
 11896     142F  307C               	movlw	124
 11897     1430  00A4               	movwf	??_Almacenamiento_Inicializar
 11898     1431                     u6257:
 11899     1431  0BA4               	decfsz	??_Almacenamiento_Inicializar,f
 11900     1432  2C31               	goto	u6257
 11901     1433  0BA5               	decfsz	??_Almacenamiento_Inicializar+1,f
 11902     1434  2C31               	goto	u6257
 11903     1435  0000               	nop
 11904     1436                     l3889:
 11905                           
 11906                           ;controlador_almacenamiento.c: 62:     for(reintentos = 0; reintentos < 200; reintentos+
      +                          +){
 11907     1436  1283               	bcf	3,5	;RP0=0, select bank0
 11908     1437  1303               	bcf	3,6	;RP1=0, select bank0
 11909     1438  01A8               	clrf	Almacenamiento_Inicializar@reintentos
 11910     1439  01A9               	clrf	Almacenamiento_Inicializar@reintentos+1
 11911     143A                     l3895:
 11912                           
 11913                           ;controlador_almacenamiento.c: 63:         if(Almacenamiento_EnviarComando(0x00, 0) == 0
      +                          x01) break;
 11914     143A  3000               	movlw	0
 11915     143B  00F9               	movwf	Almacenamiento_EnviarComando@arg+3
 11916     143C  3000               	movlw	0
 11917     143D  00F8               	movwf	Almacenamiento_EnviarComando@arg+2
 11918     143E  3000               	movlw	0
 11919     143F  00F7               	movwf	Almacenamiento_EnviarComando@arg+1
 11920     1440  3000               	movlw	0
 11921     1441  00F6               	movwf	Almacenamiento_EnviarComando@arg
 11922     1442  3000               	movlw	0
 11923     1443  160A  118A  2088  160A  118A  	fcall	_Almacenamiento_EnviarComando
 11924     1448  3A01               	xorlw	1
 11925     1449  1D03               	skipz
 11926     144A  2C4C               	goto	u5191
 11927     144B  2C4D               	goto	u5190
 11928     144C                     u5191:
 11929     144C  2C4E               	goto	l3899
 11930     144D                     u5190:
 11931     144D  2C5F               	goto	l3901
 11932     144E                     l3899:
 11933                           
 11934                           ;controlador_almacenamiento.c: 64:     }
 11935     144E  3001               	movlw	1
 11936     144F  1283               	bcf	3,5	;RP0=0, select bank0
 11937     1450  1303               	bcf	3,6	;RP1=0, select bank0
 11938     1451  07A8               	addwf	Almacenamiento_Inicializar@reintentos,f
 11939     1452  1803               	skipnc
 11940     1453  0AA9               	incf	Almacenamiento_Inicializar@reintentos+1,f
 11941     1454  3000               	movlw	0
 11942     1455  07A9               	addwf	Almacenamiento_Inicializar@reintentos+1,f
 11943     1456  3000               	movlw	0
 11944     1457  0229               	subwf	Almacenamiento_Inicializar@reintentos+1,w
 11945     1458  30C8               	movlw	200
 11946     1459  1903               	skipnz
 11947     145A  0228               	subwf	Almacenamiento_Inicializar@reintentos,w
 11948     145B  1C03               	skipc
 11949     145C  2C5E               	goto	u5201
 11950     145D  2C5F               	goto	u5200
 11951     145E                     u5201:
 11952     145E  2C3A               	goto	l3895
 11953     145F                     u5200:
 11954     145F                     l3901:
 11955                           
 11956                           ;controlador_almacenamiento.c: 65:     if(reintentos >= 200){ PORTBbits.RB0 = 1; return 
      +                          0; }
 11957     145F  3000               	movlw	0
 11958     1460  1283               	bcf	3,5	;RP0=0, select bank0
 11959     1461  1303               	bcf	3,6	;RP1=0, select bank0
 11960     1462  0229               	subwf	Almacenamiento_Inicializar@reintentos+1,w
 11961     1463  30C8               	movlw	200
 11962     1464  1903               	skipnz
 11963     1465  0228               	subwf	Almacenamiento_Inicializar@reintentos,w
 11964     1466  1C03               	skipc
 11965     1467  2C69               	goto	u5211
 11966     1468  2C6A               	goto	u5210
 11967     1469                     u5211:
 11968     1469  2C6D               	goto	l3909
 11969     146A                     u5210:
 11970     146A                     l3903:
 11971     146A  1406               	bsf	6,0	;volatile
 11972     146B                     l3905:
 11973     146B  3000               	movlw	0
 11974     146C  2D02               	goto	l163
 11975     146D                     l3909:
 11976                           
 11977                           ;controlador_almacenamiento.c: 67:     r = Almacenamiento_EnviarComando(0x08, 0x000001AA
      +                          );
 11978     146D  3000               	movlw	0
 11979     146E  00F9               	movwf	Almacenamiento_EnviarComando@arg+3
 11980     146F  3000               	movlw	0
 11981     1470  00F8               	movwf	Almacenamiento_EnviarComando@arg+2
 11982     1471  3001               	movlw	1
 11983     1472  00F7               	movwf	Almacenamiento_EnviarComando@arg+1
 11984     1473  30AA               	movlw	170
 11985     1474  00F6               	movwf	Almacenamiento_EnviarComando@arg
 11986     1475  3008               	movlw	8
 11987     1476  160A  118A  2088  160A  118A  	fcall	_Almacenamiento_EnviarComando
 11988     147B  1283               	bcf	3,5	;RP0=0, select bank0
 11989     147C  1303               	bcf	3,6	;RP1=0, select bank0
 11990     147D  00A6               	movwf	Almacenamiento_Inicializar@r
 11991     147E                     l3911:
 11992                           
 11993                           ;controlador_almacenamiento.c: 68:     if(r == 0x01){
 11994     147E  0326               	decf	Almacenamiento_Inicializar@r,w
 11995     147F  1D03               	btfss	3,2
 11996     1480  2C82               	goto	u5221
 11997     1481  2C83               	goto	u5220
 11998     1482                     u5221:
 11999     1482  2C94               	goto	l3925
 12000     1483                     u5220:
 12001     1483                     l3913:
 12002                           
 12003                           ;controlador_almacenamiento.c: 69:         for(i = 0; i < 4; i++) Almacenamiento_Transfe
      +                          rirSPI(0xFF);
 12004     1483  01A7               	clrf	Almacenamiento_Inicializar@i
 12005     1484                     l3919:
 12006     1484  30FF               	movlw	255
 12007     1485  160A  158A  23C8  160A  118A  	fcall	_Almacenamiento_TransferirSPI
 12008     148A                     l3921:
 12009     148A  3001               	movlw	1
 12010     148B  1283               	bcf	3,5	;RP0=0, select bank0
 12011     148C  1303               	bcf	3,6	;RP1=0, select bank0
 12012     148D  07A7               	addwf	Almacenamiento_Inicializar@i,f
 12013     148E                     l3923:
 12014     148E  3004               	movlw	4
 12015     148F  0227               	subwf	Almacenamiento_Inicializar@i,w
 12016     1490  1C03               	skipc
 12017     1491  2C93               	goto	u5231
 12018     1492  2C94               	goto	u5230
 12019     1493                     u5231:
 12020     1493  2C84               	goto	l3919
 12021     1494                     u5230:
 12022     1494                     l3925:
 12023                           
 12024                           ;controlador_almacenamiento.c: 72:     for(reintentos = 0; reintentos < 500; reintentos+
      +                          +){
 12025     1494  01A8               	clrf	Almacenamiento_Inicializar@reintentos
 12026     1495  01A9               	clrf	Almacenamiento_Inicializar@reintentos+1
 12027     1496                     l3931:
 12028                           
 12029                           ;controlador_almacenamiento.c: 73:         Almacenamiento_EnviarComando(0x37, 0);
 12030     1496  3000               	movlw	0
 12031     1497  00F9               	movwf	Almacenamiento_EnviarComando@arg+3
 12032     1498  3000               	movlw	0
 12033     1499  00F8               	movwf	Almacenamiento_EnviarComando@arg+2
 12034     149A  3000               	movlw	0
 12035     149B  00F7               	movwf	Almacenamiento_EnviarComando@arg+1
 12036     149C  3000               	movlw	0
 12037     149D  00F6               	movwf	Almacenamiento_EnviarComando@arg
 12038     149E  3037               	movlw	55
 12039     149F  160A  118A  2088  160A  118A  	fcall	_Almacenamiento_EnviarComando
 12040                           
 12041                           ;controlador_almacenamiento.c: 74:         if(Almacenamiento_EnviarComando(0x29, 0x40000
      +                          000) == 0x00) break;
 12042     14A4  3040               	movlw	64
 12043     14A5  00F9               	movwf	Almacenamiento_EnviarComando@arg+3
 12044     14A6  3000               	movlw	0
 12045     14A7  00F8               	movwf	Almacenamiento_EnviarComando@arg+2
 12046     14A8  3000               	movlw	0
 12047     14A9  00F7               	movwf	Almacenamiento_EnviarComando@arg+1
 12048     14AA  3000               	movlw	0
 12049     14AB  00F6               	movwf	Almacenamiento_EnviarComando@arg
 12050     14AC  3029               	movlw	41
 12051     14AD  160A  118A  2088  160A  118A  	fcall	_Almacenamiento_EnviarComando
 12052     14B2  3A00               	xorlw	0
 12053     14B3  1D03               	skipz
 12054     14B4  2CB6               	goto	u5241
 12055     14B5  2CB7               	goto	u5240
 12056     14B6                     u5241:
 12057     14B6  2CB8               	goto	l3935
 12058     14B7                     u5240:
 12059     14B7  2CD4               	goto	l3937
 12060     14B8                     l3935:
 12061                           
 12062                           ;controlador_almacenamiento.c: 75:         _delay((unsigned long)((10)*(20000000/4000.0)
      +                          ));
 12063     14B8  3041               	movlw	65
 12064     14B9  1283               	bcf	3,5	;RP0=0, select bank0
 12065     14BA  1303               	bcf	3,6	;RP1=0, select bank0
 12066     14BB  00A5               	movwf	??_Almacenamiento_Inicializar+1
 12067     14BC  30ED               	movlw	237
 12068     14BD  00A4               	movwf	??_Almacenamiento_Inicializar
 12069     14BE                     u6267:
 12070     14BE  0BA4               	decfsz	??_Almacenamiento_Inicializar,f
 12071     14BF  2CBE               	goto	u6267
 12072     14C0  0BA5               	decfsz	??_Almacenamiento_Inicializar+1,f
 12073     14C1  2CBE               	goto	u6267
 12074     14C2  2CC3               	nop2
 12075                           
 12076                           ;controlador_almacenamiento.c: 76:     }
 12077     14C3  3001               	movlw	1
 12078     14C4  1283               	bcf	3,5	;RP0=0, select bank0
 12079     14C5  1303               	bcf	3,6	;RP1=0, select bank0
 12080     14C6  07A8               	addwf	Almacenamiento_Inicializar@reintentos,f
 12081     14C7  1803               	skipnc
 12082     14C8  0AA9               	incf	Almacenamiento_Inicializar@reintentos+1,f
 12083     14C9  3000               	movlw	0
 12084     14CA  07A9               	addwf	Almacenamiento_Inicializar@reintentos+1,f
 12085     14CB  3001               	movlw	1
 12086     14CC  0229               	subwf	Almacenamiento_Inicializar@reintentos+1,w
 12087     14CD  30F4               	movlw	244
 12088     14CE  1903               	skipnz
 12089     14CF  0228               	subwf	Almacenamiento_Inicializar@reintentos,w
 12090     14D0  1C03               	skipc
 12091     14D1  2CD3               	goto	u5251
 12092     14D2  2CD4               	goto	u5250
 12093     14D3                     u5251:
 12094     14D3  2C96               	goto	l3931
 12095     14D4                     u5250:
 12096     14D4                     l3937:
 12097                           
 12098                           ;controlador_almacenamiento.c: 77:     if(reintentos >= 500){ PORTBbits.RB0 = 1; return 
      +                          0; }
 12099     14D4  3001               	movlw	1
 12100     14D5  1283               	bcf	3,5	;RP0=0, select bank0
 12101     14D6  1303               	bcf	3,6	;RP1=0, select bank0
 12102     14D7  0229               	subwf	Almacenamiento_Inicializar@reintentos+1,w
 12103     14D8  30F4               	movlw	244
 12104     14D9  1903               	skipnz
 12105     14DA  0228               	subwf	Almacenamiento_Inicializar@reintentos,w
 12106     14DB  1C03               	skipc
 12107     14DC  2CDE               	goto	u5261
 12108     14DD  2CDF               	goto	u5260
 12109     14DE                     u5261:
 12110     14DE  2CE1               	goto	l3945
 12111     14DF                     u5260:
 12112     14DF                     l3939:
 12113     14DF  1406               	bsf	6,0	;volatile
 12114     14E0  2C6B               	goto	l3905
 12115     14E1                     l3945:
 12116                           
 12117                           ;controlador_almacenamiento.c: 79:     if(Almacenamiento_EnviarComando(0x10, 512) != 0x0
      +                          0){ PORTBbits.RB0 = 1; return 0; }
 12118     14E1  3000               	movlw	0
 12119     14E2  00F9               	movwf	Almacenamiento_EnviarComando@arg+3
 12120     14E3  3000               	movlw	0
 12121     14E4  00F8               	movwf	Almacenamiento_EnviarComando@arg+2
 12122     14E5  3002               	movlw	2
 12123     14E6  00F7               	movwf	Almacenamiento_EnviarComando@arg+1
 12124     14E7  3000               	movlw	0
 12125     14E8  00F6               	movwf	Almacenamiento_EnviarComando@arg
 12126     14E9  3010               	movlw	16
 12127     14EA  160A  118A  2088  160A  118A  	fcall	_Almacenamiento_EnviarComando
 12128     14EF  3A00               	xorlw	0
 12129     14F0  1903               	skipnz
 12130     14F1  2CF3               	goto	u5271
 12131     14F2  2CF4               	goto	u5270
 12132     14F3                     u5271:
 12133     14F3  2CF8               	goto	l171
 12134     14F4                     u5270:
 12135     14F4                     l3947:
 12136     14F4  1283               	bcf	3,5	;RP0=0, select bank0
 12137     14F5  1303               	bcf	3,6	;RP1=0, select bank0
 12138     14F6  1406               	bsf	6,0	;volatile
 12139     14F7  2C6B               	goto	l3905
 12140     14F8                     l171:
 12141                           
 12142                           ;controlador_almacenamiento.c: 81:     PORTBbits.RB0 = 1;
 12143     14F8  1283               	bcf	3,5	;RP0=0, select bank0
 12144     14F9  1303               	bcf	3,6	;RP1=0, select bank0
 12145     14FA  1406               	bsf	6,0	;volatile
 12146     14FB                     l3953:
 12147                           
 12148                           ;controlador_almacenamiento.c: 82:     Almacenamiento_TransferirSPI(0xFF);
 12149     14FB  30FF               	movlw	255
 12150     14FC  160A  158A  23C8  160A  118A  	fcall	_Almacenamiento_TransferirSPI
 12151     1501                     l3955:
 12152                           
 12153                           ;controlador_almacenamiento.c: 83:     return 1;
 12154     1501  3001               	movlw	1
 12155     1502                     l163:
 12156     1502  0008               	return
 12157     1503                     __end_of_Almacenamiento_Inicializar:
 12158                           
 12159                           	psect	text46
 12160     1A34                     __ptext46:	
 12161 ;; *************** function _Almacenamiento_IniciarSPI *****************
 12162 ;; Defined at:
 12163 ;;		line 6 in file "controlador_almacenamiento.c"
 12164 ;; Parameters:    Size  Location     Type
 12165 ;;		None
 12166 ;; Auto vars:     Size  Location     Type
 12167 ;;		None
 12168 ;; Return value:  Size  Location     Type
 12169 ;;                  1    wreg      void 
 12170 ;; Registers used:
 12171 ;;		None
 12172 ;; Tracked objects:
 12173 ;;		On entry : 0/0
 12174 ;;		On exit  : 0/0
 12175 ;;		Unchanged: 0/0
 12176 ;; Data sizes:     COMMON   BANK0   BANK1   BANK3   BANK2
 12177 ;;      Params:         0       0       0       0       0
 12178 ;;      Locals:         0       0       0       0       0
 12179 ;;      Temps:          0       0       0       0       0
 12180 ;;      Totals:         0       0       0       0       0
 12181 ;;Total ram usage:        0 bytes
 12182 ;; Hardware stack levels used: 1
 12183 ;; This function calls:
 12184 ;;		Nothing
 12185 ;; This function is called by:
 12186 ;;		_Almacenamiento_Inicializar
 12187 ;; This function uses a non-reentrant model
 12188 ;;
 12189                           
 12190     1A34                     _Almacenamiento_IniciarSPI:	
 12191                           ;psect for function _Almacenamiento_IniciarSPI
 12192                           
 12193     1A34                     l3413:	
 12194                           ;incstack = 0
 12195                           ; Regs used in _Almacenamiento_IniciarSPI: []
 12196                           
 12197                           
 12198                           ;controlador_almacenamiento.c: 7:     TRISBbits.TRISB0 = 0;
 12199     1A34  1683               	bsf	3,5	;RP0=1, select bank1
 12200     1A35  1303               	bcf	3,6	;RP1=0, select bank1
 12201     1A36  1006               	bcf	6,0	;volatile
 12202                           
 12203                           ;controlador_almacenamiento.c: 8:     TRISBbits.TRISB1 = 0;
 12204     1A37  1086               	bcf	6,1	;volatile
 12205                           
 12206                           ;controlador_almacenamiento.c: 9:     TRISBbits.TRISB2 = 1;
 12207     1A38  1506               	bsf	6,2	;volatile
 12208                           
 12209                           ;controlador_almacenamiento.c: 10:     TRISBbits.TRISB3 = 0;
 12210     1A39  1186               	bcf	6,3	;volatile
 12211                           
 12212                           ;controlador_almacenamiento.c: 11:     PORTBbits.RB0 = 1;
 12213     1A3A  1283               	bcf	3,5	;RP0=0, select bank0
 12214     1A3B  1303               	bcf	3,6	;RP1=0, select bank0
 12215     1A3C  1406               	bsf	6,0	;volatile
 12216                           
 12217                           ;controlador_almacenamiento.c: 12:     PORTBbits.RB3 = 0;
 12218     1A3D  1186               	bcf	6,3	;volatile
 12219                           
 12220                           ;controlador_almacenamiento.c: 13:     PORTBbits.RB1 = 1;
 12221     1A3E  1486               	bsf	6,1	;volatile
 12222     1A3F                     l141:
 12223     1A3F  0008               	return
 12224     1A40                     __end_of_Almacenamiento_IniciarSPI:
 12225                           
 12226                           	psect	text47
 12227     1088                     __ptext47:	
 12228 ;; *************** function _Almacenamiento_EnviarComando *****************
 12229 ;; Defined at:
 12230 ;;		line 30 in file "controlador_almacenamiento.c"
 12231 ;; Parameters:    Size  Location     Type
 12232 ;;  cmd             1    wreg     unsigned char 
 12233 ;;  arg             4    6[COMMON] unsigned long 
 12234 ;; Auto vars:     Size  Location     Type
 12235 ;;  cmd             1    3[BANK0 ] unsigned char 
 12236 ;;  i               1    2[BANK0 ] unsigned char 
 12237 ;;  r               1    1[BANK0 ] unsigned char 
 12238 ;;  crc             1    0[BANK0 ] unsigned char 
 12239 ;; Return value:  Size  Location     Type
 12240 ;;                  1    wreg      unsigned char 
 12241 ;; Registers used:
 12242 ;;		wreg, status,2, status,0, pclath, cstack
 12243 ;; Tracked objects:
 12244 ;;		On entry : 0/0
 12245 ;;		On exit  : 0/0
 12246 ;;		Unchanged: 0/0
 12247 ;; Data sizes:     COMMON   BANK0   BANK1   BANK3   BANK2
 12248 ;;      Params:         4       0       0       0       0
 12249 ;;      Locals:         0       4       0       0       0
 12250 ;;      Temps:          4       0       0       0       0
 12251 ;;      Totals:         8       4       0       0       0
 12252 ;;Total ram usage:       12 bytes
 12253 ;; Hardware stack levels used: 1
 12254 ;; This function calls:
 12255 ;;		_Almacenamiento_TransferirSPI
 12256 ;; This function is called by:
 12257 ;;		_Almacenamiento_Inicializar
 12258 ;;		_Almacenamiento_EscribirDatos
 12259 ;;		_Almacenamiento_LeerDatos
 12260 ;; This function uses a non-reentrant model
 12261 ;;
 12262                           
 12263     1088                     _Almacenamiento_EnviarComando:	
 12264                           ;psect for function _Almacenamiento_EnviarComando
 12265                           
 12266                           
 12267                           ;incstack = 0
 12268                           ; Regs used in _Almacenamiento_EnviarComando: [wreg+status,2+status,0+pclath+cstack]
 12269                           ;Almacenamiento_EnviarComando@cmd stored from wreg
 12270     1088  1283               	bcf	3,5	;RP0=0, select bank0
 12271     1089  1303               	bcf	3,6	;RP1=0, select bank0
 12272     108A  00A3               	movwf	Almacenamiento_EnviarComando@cmd
 12273     108B                     l2759:
 12274                           
 12275                           ;controlador_almacenamiento.c: 31:     uint8_t r, i, crc = 0xFF;
 12276     108B  30FF               	movlw	255
 12277     108C  00A0               	movwf	Almacenamiento_EnviarComando@crc
 12278     108D                     l2761:
 12279                           
 12280                           ;controlador_almacenamiento.c: 32:     if(cmd == 0x00) crc = 0x95;
 12281     108D  0823               	movf	Almacenamiento_EnviarComando@cmd,w
 12282     108E  1D03               	btfss	3,2
 12283     108F  2891               	goto	u2981
 12284     1090  2892               	goto	u2980
 12285     1091                     u2981:
 12286     1091  2894               	goto	l2765
 12287     1092                     u2980:
 12288     1092                     l2763:
 12289     1092  3095               	movlw	149
 12290     1093  00A0               	movwf	Almacenamiento_EnviarComando@crc
 12291     1094                     l2765:
 12292                           
 12293                           ;controlador_almacenamiento.c: 33:     if(cmd == 0x08) crc = 0x87;
 12294     1094  3008               	movlw	8
 12295     1095  0623               	xorwf	Almacenamiento_EnviarComando@cmd,w
 12296     1096  1D03               	btfss	3,2
 12297     1097  2899               	goto	u2991
 12298     1098  289A               	goto	u2990
 12299     1099                     u2991:
 12300     1099  289C               	goto	l2769
 12301     109A                     u2990:
 12302     109A                     l2767:
 12303     109A  3087               	movlw	135
 12304     109B  00A0               	movwf	Almacenamiento_EnviarComando@crc
 12305     109C                     l2769:
 12306                           
 12307                           ;controlador_almacenamiento.c: 35:     Almacenamiento_TransferirSPI(0xFF);
 12308     109C  30FF               	movlw	255
 12309     109D  160A  158A  23C8  160A  118A  	fcall	_Almacenamiento_TransferirSPI
 12310                           
 12311                           ;controlador_almacenamiento.c: 37:     Almacenamiento_TransferirSPI(cmd | 0x40);
 12312     10A2  1283               	bcf	3,5	;RP0=0, select bank0
 12313     10A3  1303               	bcf	3,6	;RP1=0, select bank0
 12314     10A4  0823               	movf	Almacenamiento_EnviarComando@cmd,w
 12315     10A5  3840               	iorlw	64
 12316     10A6  160A  158A  23C8  160A  118A  	fcall	_Almacenamiento_TransferirSPI
 12317                           
 12318                           ;controlador_almacenamiento.c: 38:     Almacenamiento_TransferirSPI((uint8_t)(arg >> 24)
      +                          );
 12319     10AB  0876               	movf	Almacenamiento_EnviarComando@arg,w
 12320     10AC  00FA               	movwf	??_Almacenamiento_EnviarComando
 12321     10AD  0877               	movf	Almacenamiento_EnviarComando@arg+1,w
 12322     10AE  00FB               	movwf	??_Almacenamiento_EnviarComando+1
 12323     10AF  0878               	movf	Almacenamiento_EnviarComando@arg+2,w
 12324     10B0  00FC               	movwf	??_Almacenamiento_EnviarComando+2
 12325     10B1  0879               	movf	Almacenamiento_EnviarComando@arg+3,w
 12326     10B2  00FD               	movwf	??_Almacenamiento_EnviarComando+3
 12327     10B3  3018               	movlw	24
 12328     10B4                     u3005:
 12329     10B4  1003               	clrc
 12330     10B5  0CFD               	rrf	??_Almacenamiento_EnviarComando+3,f
 12331     10B6  0CFC               	rrf	??_Almacenamiento_EnviarComando+2,f
 12332     10B7  0CFB               	rrf	??_Almacenamiento_EnviarComando+1,f
 12333     10B8  0CFA               	rrf	??_Almacenamiento_EnviarComando,f
 12334     10B9                     u3000:
 12335     10B9  3EFF               	addlw	-1
 12336     10BA  1D03               	skipz
 12337     10BB  28B4               	goto	u3005
 12338     10BC  087A               	movf	??_Almacenamiento_EnviarComando,w
 12339     10BD  160A  158A  23C8  160A  118A  	fcall	_Almacenamiento_TransferirSPI
 12340                           
 12341                           ;controlador_almacenamiento.c: 39:     Almacenamiento_TransferirSPI((uint8_t)(arg >> 16)
      +                          );
 12342     10C2  0876               	movf	Almacenamiento_EnviarComando@arg,w
 12343     10C3  00FA               	movwf	??_Almacenamiento_EnviarComando
 12344     10C4  0877               	movf	Almacenamiento_EnviarComando@arg+1,w
 12345     10C5  00FB               	movwf	??_Almacenamiento_EnviarComando+1
 12346     10C6  0878               	movf	Almacenamiento_EnviarComando@arg+2,w
 12347     10C7  00FC               	movwf	??_Almacenamiento_EnviarComando+2
 12348     10C8  0879               	movf	Almacenamiento_EnviarComando@arg+3,w
 12349     10C9  00FD               	movwf	??_Almacenamiento_EnviarComando+3
 12350     10CA  3010               	movlw	16
 12351     10CB                     u3015:
 12352     10CB  1003               	clrc
 12353     10CC  0CFD               	rrf	??_Almacenamiento_EnviarComando+3,f
 12354     10CD  0CFC               	rrf	??_Almacenamiento_EnviarComando+2,f
 12355     10CE  0CFB               	rrf	??_Almacenamiento_EnviarComando+1,f
 12356     10CF  0CFA               	rrf	??_Almacenamiento_EnviarComando,f
 12357     10D0                     u3010:
 12358     10D0  3EFF               	addlw	-1
 12359     10D1  1D03               	skipz
 12360     10D2  28CB               	goto	u3015
 12361     10D3  087A               	movf	??_Almacenamiento_EnviarComando,w
 12362     10D4  160A  158A  23C8  160A  118A  	fcall	_Almacenamiento_TransferirSPI
 12363                           
 12364                           ;controlador_almacenamiento.c: 40:     Almacenamiento_TransferirSPI((uint8_t)(arg >> 8))
      +                          ;
 12365     10D9  0876               	movf	Almacenamiento_EnviarComando@arg,w
 12366     10DA  00FA               	movwf	??_Almacenamiento_EnviarComando
 12367     10DB  0877               	movf	Almacenamiento_EnviarComando@arg+1,w
 12368     10DC  00FB               	movwf	??_Almacenamiento_EnviarComando+1
 12369     10DD  0878               	movf	Almacenamiento_EnviarComando@arg+2,w
 12370     10DE  00FC               	movwf	??_Almacenamiento_EnviarComando+2
 12371     10DF  0879               	movf	Almacenamiento_EnviarComando@arg+3,w
 12372     10E0  00FD               	movwf	??_Almacenamiento_EnviarComando+3
 12373     10E1  3008               	movlw	8
 12374     10E2                     u3025:
 12375     10E2  1003               	clrc
 12376     10E3  0CFD               	rrf	??_Almacenamiento_EnviarComando+3,f
 12377     10E4  0CFC               	rrf	??_Almacenamiento_EnviarComando+2,f
 12378     10E5  0CFB               	rrf	??_Almacenamiento_EnviarComando+1,f
 12379     10E6  0CFA               	rrf	??_Almacenamiento_EnviarComando,f
 12380     10E7                     u3020:
 12381     10E7  3EFF               	addlw	-1
 12382     10E8  1D03               	skipz
 12383     10E9  28E2               	goto	u3025
 12384     10EA  087A               	movf	??_Almacenamiento_EnviarComando,w
 12385     10EB  160A  158A  23C8  160A  118A  	fcall	_Almacenamiento_TransferirSPI
 12386                           
 12387                           ;controlador_almacenamiento.c: 41:     Almacenamiento_TransferirSPI((uint8_t)arg);
 12388     10F0  0876               	movf	Almacenamiento_EnviarComando@arg,w
 12389     10F1  160A  158A  23C8  160A  118A  	fcall	_Almacenamiento_TransferirSPI
 12390                           
 12391                           ;controlador_almacenamiento.c: 42:     Almacenamiento_TransferirSPI(crc);
 12392     10F6  1283               	bcf	3,5	;RP0=0, select bank0
 12393     10F7  1303               	bcf	3,6	;RP1=0, select bank0
 12394     10F8  0820               	movf	Almacenamiento_EnviarComando@crc,w
 12395     10F9  160A  158A  23C8  160A  118A  	fcall	_Almacenamiento_TransferirSPI
 12396     10FE                     l2771:
 12397                           
 12398                           ;controlador_almacenamiento.c: 44:     for(i = 0; i < 10; i++){
 12399     10FE  1283               	bcf	3,5	;RP0=0, select bank0
 12400     10FF  1303               	bcf	3,6	;RP1=0, select bank0
 12401     1100  01A2               	clrf	Almacenamiento_EnviarComando@i
 12402     1101                     l2777:
 12403                           
 12404                           ;controlador_almacenamiento.c: 45:         r = Almacenamiento_TransferirSPI(0xFF);
 12405     1101  30FF               	movlw	255
 12406     1102  160A  158A  23C8  160A  118A  	fcall	_Almacenamiento_TransferirSPI
 12407     1107  1283               	bcf	3,5	;RP0=0, select bank0
 12408     1108  1303               	bcf	3,6	;RP1=0, select bank0
 12409     1109  00A1               	movwf	Almacenamiento_EnviarComando@r
 12410     110A                     l2779:
 12411                           
 12412                           ;controlador_almacenamiento.c: 46:         if(!(r & 0x80)) return r;
 12413     110A  1BA1               	btfsc	Almacenamiento_EnviarComando@r,7
 12414     110B  290D               	goto	u3031
 12415     110C  290E               	goto	u3030
 12416     110D                     u3031:
 12417     110D  2910               	goto	l2785
 12418     110E                     u3030:
 12419     110E                     l2781:
 12420     110E  0821               	movf	Almacenamiento_EnviarComando@r,w
 12421     110F  2919               	goto	l154
 12422     1110                     l2785:
 12423                           
 12424                           ;controlador_almacenamiento.c: 47:     }
 12425     1110  3001               	movlw	1
 12426     1111  07A2               	addwf	Almacenamiento_EnviarComando@i,f
 12427     1112                     l2787:
 12428     1112  300A               	movlw	10
 12429     1113  0222               	subwf	Almacenamiento_EnviarComando@i,w
 12430     1114  1C03               	skipc
 12431     1115  2917               	goto	u3041
 12432     1116  2918               	goto	u3040
 12433     1117                     u3041:
 12434     1117  2901               	goto	l2777
 12435     1118                     u3040:
 12436     1118                     l2789:
 12437                           
 12438                           ;controlador_almacenamiento.c: 48:     return 0xFF;
 12439     1118  30FF               	movlw	255
 12440     1119                     l154:
 12441     1119  0008               	return
 12442     111A                     __end_of_Almacenamiento_EnviarComando:
 12443                           
 12444                           	psect	text48
 12445     1BC8                     __ptext48:	
 12446 ;; *************** function _Almacenamiento_TransferirSPI *****************
 12447 ;; Defined at:
 12448 ;;		line 16 in file "controlador_almacenamiento.c"
 12449 ;; Parameters:    Size  Location     Type
 12450 ;;  dato            1    wreg     unsigned char 
 12451 ;; Auto vars:     Size  Location     Type
 12452 ;;  dato            1    3[COMMON] unsigned char 
 12453 ;;  resultado       1    5[COMMON] unsigned char 
 12454 ;;  i               1    4[COMMON] unsigned char 
 12455 ;; Return value:  Size  Location     Type
 12456 ;;                  1    wreg      unsigned char 
 12457 ;; Registers used:
 12458 ;;		wreg, status,2, status,0
 12459 ;; Tracked objects:
 12460 ;;		On entry : 0/0
 12461 ;;		On exit  : 0/0
 12462 ;;		Unchanged: 0/0
 12463 ;; Data sizes:     COMMON   BANK0   BANK1   BANK3   BANK2
 12464 ;;      Params:         0       0       0       0       0
 12465 ;;      Locals:         3       0       0       0       0
 12466 ;;      Temps:          3       0       0       0       0
 12467 ;;      Totals:         6       0       0       0       0
 12468 ;;Total ram usage:        6 bytes
 12469 ;; Hardware stack levels used: 1
 12470 ;; This function calls:
 12471 ;;		Nothing
 12472 ;; This function is called by:
 12473 ;;		_Almacenamiento_EnviarComando
 12474 ;;		_Almacenamiento_Inicializar
 12475 ;;		_Almacenamiento_EscribirDatos
 12476 ;;		_Almacenamiento_LeerDatos
 12477 ;; This function uses a non-reentrant model
 12478 ;;
 12479                           
 12480     1BC8                     _Almacenamiento_TransferirSPI:	
 12481                           ;psect for function _Almacenamiento_TransferirSPI
 12482                           
 12483                           
 12484                           ;incstack = 0
 12485                           ; Regs used in _Almacenamiento_TransferirSPI: [wreg+status,2+status,0]
 12486                           ;Almacenamiento_TransferirSPI@dato stored from wreg
 12487     1BC8  00F3               	movwf	Almacenamiento_TransferirSPI@dato
 12488     1BC9                     l2635:
 12489                           
 12490                           ;controlador_almacenamiento.c: 17:     uint8_t i, resultado = 0;
 12491     1BC9  01F5               	clrf	Almacenamiento_TransferirSPI@resultado
 12492                           
 12493                           ;controlador_almacenamiento.c: 18:     for(i = 0; i < 8; i++){
 12494     1BCA  01F4               	clrf	Almacenamiento_TransferirSPI@i
 12495     1BCB                     l144:
 12496                           
 12497                           ;controlador_almacenamiento.c: 19:         PORTBbits.RB1 = (dato & 0x80) ? 1 : 0;
 12498     1BCB  1BF3               	btfsc	Almacenamiento_TransferirSPI@dato,7
 12499     1BCC  2BCE               	goto	u2891
 12500     1BCD  2BD2               	goto	u2890
 12501     1BCE                     u2891:
 12502     1BCE  1283               	bcf	3,5	;RP0=0, select bank0
 12503     1BCF  1303               	bcf	3,6	;RP1=0, select bank0
 12504     1BD0  1486               	bsf	6,1	;volatile
 12505     1BD1  2BD5               	goto	u2904
 12506     1BD2                     u2890:
 12507     1BD2  1283               	bcf	3,5	;RP0=0, select bank0
 12508     1BD3  1303               	bcf	3,6	;RP1=0, select bank0
 12509     1BD4  1086               	bcf	6,1	;volatile
 12510     1BD5                     u2904:
 12511     1BD5                     l2641:
 12512                           
 12513                           ;controlador_almacenamiento.c: 20:         dato <<= 1;
 12514     1BD5  1003               	clrc
 12515     1BD6  0DF3               	rlf	Almacenamiento_TransferirSPI@dato,f
 12516     1BD7                     l2643:
 12517                           
 12518                           ;controlador_almacenamiento.c: 21:         PORTBbits.RB3 = 1;
 12519     1BD7  1586               	bsf	6,3	;volatile
 12520     1BD8                     l2645:
 12521                           
 12522                           ;controlador_almacenamiento.c: 22:         _delay((unsigned long)((1)*(20000000/4000000.
      +                          0)));
 12523     1BD8  2BD9               	nop2	;2 cycle nop
 12524     1BD9  2BDA               	nop2	;2 cycle nop
 12525     1BDA  0000               	nop
 12526     1BDB                     l2647:
 12527                           
 12528                           ;controlador_almacenamiento.c: 23:         resultado = (uint8_t)((resultado << 1) | (POR
      +                          TBbits.RB2 ? 1 : 0));
 12529     1BDB  1283               	bcf	3,5	;RP0=0, select bank0
 12530     1BDC  1303               	bcf	3,6	;RP1=0, select bank0
 12531     1BDD  0C06               	rrf	6,w	;volatile
 12532     1BDE  00F0               	movwf	??_Almacenamiento_TransferirSPI
 12533     1BDF  0C70               	rrf	??_Almacenamiento_TransferirSPI,w
 12534     1BE0  3901               	andlw	1
 12535     1BE1  00F1               	movwf	??_Almacenamiento_TransferirSPI+1
 12536     1BE2  0875               	movf	Almacenamiento_TransferirSPI@resultado,w
 12537     1BE3  00F2               	movwf	??_Almacenamiento_TransferirSPI+2
 12538     1BE4  0772               	addwf	??_Almacenamiento_TransferirSPI+2,w
 12539     1BE5  0471               	iorwf	??_Almacenamiento_TransferirSPI+1,w
 12540     1BE6  00F5               	movwf	Almacenamiento_TransferirSPI@resultado
 12541     1BE7                     l2649:
 12542                           
 12543                           ;controlador_almacenamiento.c: 24:         PORTBbits.RB3 = 0;
 12544     1BE7  1186               	bcf	6,3	;volatile
 12545     1BE8                     l2651:
 12546                           
 12547                           ;controlador_almacenamiento.c: 25:         _delay((unsigned long)((1)*(20000000/4000000.
      +                          0)));
 12548     1BE8  2BE9               	nop2	;2 cycle nop
 12549     1BE9  2BEA               	nop2	;2 cycle nop
 12550     1BEA  0000               	nop
 12551     1BEB                     l2653:
 12552                           
 12553                           ;controlador_almacenamiento.c: 26:     }
 12554     1BEB  3001               	movlw	1
 12555     1BEC  07F4               	addwf	Almacenamiento_TransferirSPI@i,f
 12556     1BED  3008               	movlw	8
 12557     1BEE  0274               	subwf	Almacenamiento_TransferirSPI@i,w
 12558     1BEF  1C03               	skipc
 12559     1BF0  2BF2               	goto	u2911
 12560     1BF1  2BF3               	goto	u2910
 12561     1BF2                     u2911:
 12562     1BF2  2BCB               	goto	l144
 12563     1BF3                     u2910:
 12564     1BF3                     l2655:
 12565                           
 12566                           ;controlador_almacenamiento.c: 27:     return resultado;
 12567     1BF3  0875               	movf	Almacenamiento_TransferirSPI@resultado,w
 12568     1BF4                     l146:
 12569     1BF4  0008               	return
 12570     1BF5                     __end_of_Almacenamiento_TransferirSPI:
 12571                           
 12572                           	psect	text49
 12573     1B2A                     __ptext49:	
 12574 ;; *************** function _AgregarTemp *****************
 12575 ;; Defined at:
 12576 ;;		line 52 in file "aplicacion.c"
 12577 ;; Parameters:    Size  Location     Type
 12578 ;;  t               4    0[COMMON] float 
 12579 ;; Auto vars:     Size  Location     Type
 12580 ;;		None
 12581 ;; Return value:  Size  Location     Type
 12582 ;;                  1    wreg      void 
 12583 ;; Registers used:
 12584 ;;		wreg, fsr0l, fsr0h, status,2, status,0
 12585 ;; Tracked objects:
 12586 ;;		On entry : 0/0
 12587 ;;		On exit  : 0/0
 12588 ;;		Unchanged: 0/0
 12589 ;; Data sizes:     COMMON   BANK0   BANK1   BANK3   BANK2
 12590 ;;      Params:         4       0       0       0       0
 12591 ;;      Locals:         0       0       0       0       0
 12592 ;;      Temps:          1       0       0       0       0
 12593 ;;      Totals:         5       0       0       0       0
 12594 ;;Total ram usage:        5 bytes
 12595 ;; Hardware stack levels used: 1
 12596 ;; This function calls:
 12597 ;;		Nothing
 12598 ;; This function is called by:
 12599 ;;		_main
 12600 ;; This function uses a non-reentrant model
 12601 ;;
 12602                           
 12603     1B2A                     _AgregarTemp:	
 12604                           ;psect for function _AgregarTemp
 12605                           
 12606     1B2A                     l3979:	
 12607                           ;incstack = 0
 12608                           ; Regs used in _AgregarTemp: [wreg-fsr0h+status,2+status,0]
 12609                           
 12610                           
 12611                           ;aplicacion.c: 53:     buffer_temp[idx_buffer] = t;
 12612     1B2A  1683               	bsf	3,5	;RP0=1, select bank1
 12613     1B2B  1303               	bcf	3,6	;RP1=0, select bank1
 12614     1B2C  086D               	movf	_idx_buffer^(0+128),w
 12615     1B2D  00F4               	movwf	??_AgregarTemp
 12616     1B2E  3001               	movlw	1
 12617     1B2F                     u5305:
 12618     1B2F  1003               	clrc
 12619     1B30  0DF4               	rlf	??_AgregarTemp,f
 12620     1B31  3EFF               	addlw	-1
 12621     1B32  1D03               	skipz
 12622     1B33  2B2F               	goto	u5305
 12623     1B34  1003               	clrc
 12624     1B35  0D74               	rlf	??_AgregarTemp,w
 12625     1B36  3ECF               	addlw	(low (_buffer_temp| 0))& (0+255)
 12626     1B37  0084               	movwf	4
 12627     1B38  0870               	movf	AgregarTemp@t,w
 12628     1B39  1383               	bcf	3,7	;select IRP bank1
 12629     1B3A  0080               	movwf	0
 12630     1B3B  0A84               	incf	4,f
 12631     1B3C  0871               	movf	AgregarTemp@t+1,w
 12632     1B3D  0080               	movwf	0
 12633     1B3E  0A84               	incf	4,f
 12634     1B3F  0872               	movf	AgregarTemp@t+2,w
 12635     1B40  0080               	movwf	0
 12636     1B41  0A84               	incf	4,f
 12637     1B42  0873               	movf	AgregarTemp@t+3,w
 12638     1B43  0080               	movwf	0
 12639     1B44                     l3981:
 12640                           
 12641                           ;aplicacion.c: 54:     idx_buffer = (idx_buffer + 1) % 4;
 12642     1B44  086D               	movf	_idx_buffer^(0+128),w
 12643     1B45  3E01               	addlw	1
 12644     1B46  00ED               	movwf	_idx_buffer^(0+128)
 12645     1B47                     l3983:
 12646     1B47  3003               	movlw	3
 12647     1B48  05ED               	andwf	_idx_buffer^(0+128),f
 12648     1B49                     l3985:
 12649                           
 12650                           ;aplicacion.c: 55:     if(idx_buffer == 0) buffer_lleno = 1;
 12651     1B49  086D               	movf	_idx_buffer^(0+128),w
 12652     1B4A  1D03               	btfss	3,2
 12653     1B4B  2B4D               	goto	u5311
 12654     1B4C  2B4E               	goto	u5310
 12655     1B4D                     u5311:
 12656     1B4D  2B50               	goto	l272
 12657     1B4E                     u5310:
 12658     1B4E                     l3987:
 12659     1B4E  3001               	movlw	1
 12660     1B4F  00EC               	movwf	_buffer_lleno^(0+128)
 12661     1B50                     l272:
 12662     1B50  0008               	return
 12663     1B51                     __end_of_AgregarTemp:
 12664     0002                     ___latbits      equ	2
 12665     007E                     btemp           set	126	;btemp
 12666     007E                     btemp0          set	126
 12667     007F                     btemp1          set	127
 12668     007E                     wtemp0          set	126
 12669     007F                     wtemp0a         set	127
 12670     007F                     ttemp0a         set	127
 12671     0080                     ltemp0a         set	128
 12672                           
 12673                           	psect	config
 12674                           
 12675                           ;Config register CONFIG1 @ 0x2007
 12676                           ;	Oscillator Selection bits
 12677                           ;	FOSC = HS, HS oscillator: High-speed crystal/resonator on RA6/OSC2/CLKOUT and RA7/OSC1
      +                          /CLKIN
 12678                           ;	Watchdog Timer Enable bit
 12679                           ;	WDTE = OFF, WDT disabled and can be enabled by SWDTEN bit of the WDTCON register
 12680                           ;	Power-up Timer Enable bit
 12681                           ;	PWRTE = ON, PWRT enabled
 12682                           ;	RE3/MCLR pin function select bit
 12683                           ;	MCLRE = ON, RE3/MCLR pin function is MCLR
 12684                           ;	Code Protection bit
 12685                           ;	CP = OFF, Program memory code protection is disabled
 12686                           ;	Data Code Protection bit
 12687                           ;	CPD = OFF, Data memory code protection is disabled
 12688                           ;	Brown Out Reset Selection bits
 12689                           ;	BOREN = OFF, BOR disabled
 12690                           ;	Internal External Switchover bit
 12691                           ;	IESO = OFF, Internal/External Switchover mode is disabled
 12692                           ;	Fail-Safe Clock Monitor Enabled bit
 12693                           ;	FCMEN = OFF, Fail-Safe Clock Monitor is disabled
 12694                           ;	Low Voltage Programming Enable bit
 12695                           ;	LVP = OFF, RB3 pin has digital I/O, HV on MCLR must be used for programming
 12696                           ;	In-Circuit Debugger Mode bit
 12697                           ;	DEBUG = 0x1, unprogrammed default
 12698     2007                     	org	8199
 12699     2007  20E2               	dw	8418
 12700                           
 12701                           ;Config register CONFIG2 @ 0x2008
 12702                           ;	Brown-out Reset Selection bit
 12703                           ;	BOR4V = BOR40V, Brown-out Reset set to 4.0V
 12704                           ;	Flash Program Memory Self Write Enable bits
 12705                           ;	WRT = OFF, Write protection off
 12706     2008                     	org	8200
 12707     2008  3FFF               	dw	16383

Data Sizes:
    Strings     94
    Constant    0
    Data        6
    BSS         74
    Persistent  0
    Stack       0

Auto Spaces:
    Space          Size  Autos    Used
    COMMON           14     14      14
    BANK0            80     80      80
    BANK1            80     47      80
    BANK3            96      0      47
    BANK2            96      0       0

Pointer List with Targets:

    Almacenamiento_EscribirDatos@buffer	PTR unsigned char  size(2) Largest target is 35
		 -> buffer_datos(BANK3[35]), STR_12(CODE[22]), 

    GestorArchivos_GuardarLinea@linea	PTR const unsigned char  size(2) Largest target is 35
		 -> buffer_datos(BANK3[35]), STR_12(CODE[22]), 

    GestorArchivos_GuardarLinea@nombre_archivo	PTR const unsigned char  size(1) Largest target is 9
		 -> STR_11(CODE[9]), STR_15(CODE[9]), 

    LimpiarFechaHora@t	PTR struct . size(2) Largest target is 7
		 -> main@fecha(BANK1[7]), 

    MostrarPrincipal@t	PTR struct . size(2) Largest target is 7
		 -> main@fecha(BANK1[7]), 

    Pantalla_EscribirTexto@a	PTR const unsigned char  size(1) Largest target is 13
		 -> STR_1(CODE[2]), STR_10(CODE[7]), STR_13(CODE[10]), STR_2(CODE[3]), 
		 -> STR_3(CODE[4]), STR_4(CODE[4]), STR_5(CODE[5]), STR_6(CODE[6]), 
		 -> STR_7(CODE[7]), STR_8(CODE[4]), STR_9(CODE[13]), 

    Reloj_ObtenerFechaHora@fechahora	PTR struct . size(2) Largest target is 7
		 -> main@fecha(BANK1[7]), 

    SensorHumedad_ObtenerDatos@humedad	PTR float  size(1) Largest target is 4
		 -> main@hum(BANK1[4]), 

    SensorHumedad_ObtenerDatos@temperatura	PTR float  size(1) Largest target is 4
		 -> main@temp(BANK1[4]), 


Critical Paths under _main in COMMON

    _main->_Reloj_ObtenerFechaHora
    _main->___awmod
    _SensorHumedad_ObtenerDatos->___xxtofl
    _Reloj_ObtenerFechaHora->_LimpiarFechaHora
    _Reloj_VerificarConexion->_I2C_EscribirByte
    _Reloj_ConvertirBCD->___bmul
    _Reloj_IniciarModulo->_I2C_IniciarBus
    _Pantalla_Limpiar->_Pantalla_EnviarComando
    _Pantalla_Inicializar->_Pantalla_EnviarComando
    _Pantalla_EstablecerPosicion->_Pantalla_EnviarComando
    _Pantalla_EnviarComando->_Pantalla_ConfigurarPuerto
    ___lwmod->___lwdiv
    ___flmul->___xxtofl
    _ImprimirDigito2->___awmod
    ___awmod->___awdiv
    _Pantalla_EscribirCaracter->___awmod
    _Almacenamiento_EscribirDatos->_Almacenamiento_EnviarComando
    _CalcStats->___xxtofl
    ___fldiv->___xxtofl
    _Almacenamiento_Inicializar->_Almacenamiento_EnviarComando
    _Almacenamiento_EnviarComando->_Almacenamiento_TransferirSPI

Critical Paths under _main in BANK0

    _main->___fltol
    _SensorHumedad_ObtenerDatos->___flmul
    _Pantalla_EscribirTexto->_Pantalla_EscribirCaracter
    _ImprimirTemp->___fltol
    ___fltol->___fladd
    ___flmul->___fldiv
    _ImprimirDigito2->_Pantalla_EscribirCaracter
    _GestorArchivos_GuardarLinea->_Almacenamiento_EscribirDatos
    _Almacenamiento_EscribirDatos->_Almacenamiento_EnviarComando
    _CalcStats->___fladd
    ___fladd->___flmul
    _Almacenamiento_Inicializar->_Almacenamiento_EnviarComando

Critical Paths under _main in BANK1

    _main->_MostrarPrincipal
    _MostrarStats->_ImprimirTemp
    _MostrarPrincipal->_ImprimirTemp
    _ImprimirTemp->___fltol

Critical Paths under _main in BANK3

    None.

Critical Paths under _main in BANK2

    None.

Call Graph Tables:

 ---------------------------------------------------------------------------------
 (Depth) Function   	        Calls       Base Space   Used Autos Params    Refs
 ---------------------------------------------------------------------------------
 (0) _main                                                27    27      0   31842
                                             20 BANK1     27    27      0
                        _AgregarTemp
         _Almacenamiento_Inicializar
                          _CalcStats
          _GestorArchivos_Configurar
        _GestorArchivos_GuardarLinea
                          _LeerBoton
                   _MostrarPrincipal
                       _MostrarStats
          _Pantalla_EscribirCaracter
             _Pantalla_EscribirTexto
        _Pantalla_EstablecerPosicion
               _Pantalla_Inicializar
                   _Pantalla_Limpiar
                _Reloj_IniciarModulo
             _Reloj_ObtenerFechaHora
           _SensorHumedad_Configurar
         _SensorHumedad_ObtenerDatos
                            ___awdiv
                            ___awmod
                            ___fladd
                             ___flge
                            ___flmul
                            ___fltol
                            ___lwdiv
                            ___lwmod
 ---------------------------------------------------------------------------------
 (1) _SensorHumedad_ObtenerDatos                          18    16      2    3634
                                             52 BANK0     18    16      2
                            ___fldiv
                            ___flmul
                           ___xxtofl
 ---------------------------------------------------------------------------------
 (1) _SensorHumedad_Configurar                             3     3      0       0
                                              0 COMMON     3     3      0
 ---------------------------------------------------------------------------------
 (1) _Reloj_ObtenerFechaHora                               5     3      2    1229
                                             10 COMMON     4     2      2
                                              0 BANK0      1     1      0
                _I2C_CondicionInicio
                  _I2C_CondicionParo
                   _I2C_EscribirByte
                       _I2C_LeerByte
                   _LimpiarFechaHora
                 _Reloj_ConvertirBCD
            _Reloj_VerificarConexion
 ---------------------------------------------------------------------------------
 (2) _Reloj_VerificarConexion                              1     1      0     123
                                              4 COMMON     1     1      0
                _I2C_CondicionInicio
                  _I2C_CondicionParo
                   _I2C_EscribirByte
 ---------------------------------------------------------------------------------
 (3) _I2C_EscribirByte                                     4     4      0     100
                                              0 COMMON     4     4      0
                     _SCL_ForzarBajo
                        _SCL_Liberar
                     _SDA_ForzarBajo
                        _SDA_Liberar
 ---------------------------------------------------------------------------------
 (3) _I2C_CondicionParo                                    1     1      0       0
                                              0 COMMON     1     1      0
                        _SCL_Liberar
                     _SDA_ForzarBajo
                        _SDA_Liberar
 ---------------------------------------------------------------------------------
 (3) _I2C_CondicionInicio                                  1     1      0       0
                                              0 COMMON     1     1      0
                     _SCL_ForzarBajo
                        _SCL_Liberar
                     _SDA_ForzarBajo
                        _SDA_Liberar
 ---------------------------------------------------------------------------------
 (2) _Reloj_ConvertirBCD                                   3     3      0     166
                                              3 COMMON     3     3      0
                             ___bmul
 ---------------------------------------------------------------------------------
 (3) ___bmul                                               3     2      1     108
                                              0 COMMON     3     2      1
 ---------------------------------------------------------------------------------
 (2) _LimpiarFechaHora                                    10     8      2     159
                                              0 COMMON    10     8      2
 ---------------------------------------------------------------------------------
 (2) _I2C_LeerByte                                         4     4      0     100
                                              0 COMMON     4     4      0
                     _SCL_ForzarBajo
                        _SCL_Liberar
                     _SDA_ForzarBajo
                        _SDA_Liberar
 ---------------------------------------------------------------------------------
 (4) _SDA_ForzarBajo                                       0     0      0       0
 ---------------------------------------------------------------------------------
 (4) _SCL_ForzarBajo                                       0     0      0       0
 ---------------------------------------------------------------------------------
 (1) _Reloj_IniciarModulo                                  2     2      0       0
                                              1 COMMON     2     2      0
                     _I2C_IniciarBus
 ---------------------------------------------------------------------------------
 (2) _I2C_IniciarBus                                       1     1      0       0
                                              0 COMMON     1     1      0
                        _SCL_Liberar
                        _SDA_Liberar
 ---------------------------------------------------------------------------------
 (4) _SDA_Liberar                                          0     0      0       0
 ---------------------------------------------------------------------------------
 (4) _SCL_Liberar                                          0     0      0       0
 ---------------------------------------------------------------------------------
 (1) _Pantalla_Limpiar                                     2     2      0     145
                                              4 COMMON     2     2      0
             _Pantalla_EnviarComando
 ---------------------------------------------------------------------------------
 (1) _Pantalla_Inicializar                                 2     2      0     145
                                              4 COMMON     2     2      0
             _Pantalla_EnviarComando
 ---------------------------------------------------------------------------------
 (1) _MostrarStats                                         2     2      0    5593
                                              8 BANK1      2     2      0
                       _ImprimirTemp
          _Pantalla_EscribirCaracter
             _Pantalla_EscribirTexto
        _Pantalla_EstablecerPosicion
 ---------------------------------------------------------------------------------
 (1) _MostrarPrincipal                                    12     2     10    6668
                                              8 BANK1     12     2     10
                    _ImprimirDigito2
                       _ImprimirTemp
          _Pantalla_EscribirCaracter
             _Pantalla_EscribirTexto
        _Pantalla_EstablecerPosicion
 ---------------------------------------------------------------------------------
 (2) _Pantalla_EstablecerPosicion                          6     5      1     318
                                              4 COMMON     6     5      1
             _Pantalla_EnviarComando
 ---------------------------------------------------------------------------------
 (3) _Pantalla_EnviarComando                               3     3      0     145
                                              1 COMMON     3     3      0
          _Pantalla_ConfigurarPuerto
 ---------------------------------------------------------------------------------
 (2) _Pantalla_EscribirTexto                               3     2      1     323
                                              5 BANK0      3     2      1
          _Pantalla_EscribirCaracter
 ---------------------------------------------------------------------------------
 (2) _ImprimirTemp                                         6     2      4    4730
                                              2 BANK1      6     2      4
          _Pantalla_EscribirCaracter
                            ___fladd
                             ___flge
                            ___flmul
                            ___fltol
                            ___lwdiv
                            ___lwmod
 ---------------------------------------------------------------------------------
 (3) ___lwmod                                              5     1      4     167
                                              7 COMMON     5     1      4
                            ___lwdiv (ARG)
 ---------------------------------------------------------------------------------
 (3) ___lwdiv                                              7     3      4     170
                                              0 COMMON     7     3      4
 ---------------------------------------------------------------------------------
 (3) ___fltol                                             10     6      4     232
                                             72 BANK0      8     4      4
                                              0 BANK1      2     2      0
                            ___fladd (ARG)
                            ___flmul (ARG)
 ---------------------------------------------------------------------------------
 (3) ___flmul                                             26    18      8    1614
                                             26 BANK0     26    18      8
                          __Umul8_16
                            ___fldiv (ARG)
                           ___xxtofl (ARG)
 ---------------------------------------------------------------------------------
 (4) __Umul8_16                                            9     7      2     139
                                              0 COMMON     9     7      2
 ---------------------------------------------------------------------------------
 (2) _ImprimirDigito2                                      3     3      0     912
                                              5 BANK0      3     3      0
          _Pantalla_EscribirCaracter
                            ___awdiv
                            ___awmod
 ---------------------------------------------------------------------------------
 (3) ___awmod                                              6     2      4     316
                                              8 COMMON     6     2      4
                            ___awdiv (ARG)
 ---------------------------------------------------------------------------------
 (3) ___awdiv                                              8     4      4     316
                                              0 COMMON     8     4      4
 ---------------------------------------------------------------------------------
 (3) _Pantalla_EscribirCaracter                            5     5      0     222
                                              0 BANK0      5     5      0
          _Pantalla_ConfigurarPuerto
                            ___awdiv (ARG)
                            ___awmod (ARG)
                            ___lwdiv (ARG)
                            ___lwmod (ARG)
 ---------------------------------------------------------------------------------
 (4) _Pantalla_ConfigurarPuerto                            1     1      0     116
                                              0 COMMON     1     1      0
 ---------------------------------------------------------------------------------
 (1) _LeerBoton                                            3     3      0      45
                                              0 COMMON     3     3      0
 ---------------------------------------------------------------------------------
 (1) _GestorArchivos_GuardarLinea                          4     1      3    1024
                                             19 BANK0      4     1      3
       _Almacenamiento_EscribirDatos
 ---------------------------------------------------------------------------------
 (2) _Almacenamiento_EscribirDatos                        15     6      9     908
                                              4 BANK0     15     6      9
       _Almacenamiento_EnviarComando
       _Almacenamiento_TransferirSPI
 ---------------------------------------------------------------------------------
 (1) _GestorArchivos_Configurar                            0     0      0       0
 ---------------------------------------------------------------------------------
 (1) _CalcStats                                           12    12      0    3949
                                             72 BANK0      4     4      0
                                              0 BANK1      8     8      0
                            ___fladd
                            ___fldiv
                             ___flge
                           ___xxtofl
 ---------------------------------------------------------------------------------
 (2) ___xxtofl                                            14    10      4     340
                                              0 COMMON    14    10      4
 ---------------------------------------------------------------------------------
 (3) ___flge                                              12     4      8     192
                                              0 COMMON    12     4      8
 ---------------------------------------------------------------------------------
 (2) ___fldiv                                             26    18      8    1130
                                              0 BANK0     26    18      8
                           ___xxtofl (ARG)
 ---------------------------------------------------------------------------------
 (3) ___fladd                                             20    12      8    1994
                                             52 BANK0     20    12      8
                            ___flmul (ARG)
 ---------------------------------------------------------------------------------
 (1) _Almacenamiento_Inicializar                           6     6      0     795
                                              4 BANK0      6     6      0
       _Almacenamiento_EnviarComando
          _Almacenamiento_IniciarSPI
       _Almacenamiento_TransferirSPI
 ---------------------------------------------------------------------------------
 (2) _Almacenamiento_IniciarSPI                            0     0      0       0
 ---------------------------------------------------------------------------------
 (3) _Almacenamiento_EnviarComando                        12     8      4     421
                                              6 COMMON     8     4      4
                                              0 BANK0      4     4      0
       _Almacenamiento_TransferirSPI
 ---------------------------------------------------------------------------------
 (4) _Almacenamiento_TransferirSPI                         6     6      0     123
                                              0 COMMON     6     6      0
 ---------------------------------------------------------------------------------
 (1) _AgregarTemp                                          5     1      4      24
                                              0 COMMON     5     1      4
 ---------------------------------------------------------------------------------
 Estimated maximum stack depth 4
 ---------------------------------------------------------------------------------

 Call Graph Graphs:

 _main (ROOT)
   _AgregarTemp
   _Almacenamiento_Inicializar
     _Almacenamiento_EnviarComando
       _Almacenamiento_TransferirSPI
     _Almacenamiento_IniciarSPI
     _Almacenamiento_TransferirSPI
   _CalcStats
     ___fladd
       ___flmul (ARG)
         __Umul8_16
         ___fldiv (ARG)
           ___xxtofl (ARG)
         ___xxtofl (ARG)
     ___fldiv
     ___flge
     ___xxtofl
   _GestorArchivos_Configurar
   _GestorArchivos_GuardarLinea
     _Almacenamiento_EscribirDatos
       _Almacenamiento_EnviarComando
       _Almacenamiento_TransferirSPI
   _LeerBoton
   _MostrarPrincipal
     _ImprimirDigito2
       _Pantalla_EscribirCaracter
         _Pantalla_ConfigurarPuerto
         ___awdiv (ARG)
         ___awmod (ARG)
           ___awdiv (ARG)
         ___lwdiv (ARG)
         ___lwmod (ARG)
           ___lwdiv (ARG)
       ___awdiv
       ___awmod
     _ImprimirTemp
       _Pantalla_EscribirCaracter
       ___fladd
       ___flge
       ___flmul
       ___fltol
         ___fladd (ARG)
         ___flmul (ARG)
       ___lwdiv
       ___lwmod
     _Pantalla_EscribirCaracter
     _Pantalla_EscribirTexto
       _Pantalla_EscribirCaracter
     _Pantalla_EstablecerPosicion
       _Pantalla_EnviarComando
         _Pantalla_ConfigurarPuerto
   _MostrarStats
     _ImprimirTemp
     _Pantalla_EscribirCaracter
     _Pantalla_EscribirTexto
     _Pantalla_EstablecerPosicion
   _Pantalla_EscribirCaracter
   _Pantalla_EscribirTexto
   _Pantalla_EstablecerPosicion
   _Pantalla_Inicializar
     _Pantalla_EnviarComando
   _Pantalla_Limpiar
     _Pantalla_EnviarComando
   _Reloj_IniciarModulo
     _I2C_IniciarBus
       _SCL_Liberar
       _SDA_Liberar
   _Reloj_ObtenerFechaHora
     _I2C_CondicionInicio
       _SCL_ForzarBajo
       _SCL_Liberar
       _SDA_ForzarBajo
       _SDA_Liberar
     _I2C_CondicionParo
       _SCL_Liberar
       _SDA_ForzarBajo
       _SDA_Liberar
     _I2C_EscribirByte
       _SCL_ForzarBajo
       _SCL_Liberar
       _SDA_ForzarBajo
       _SDA_Liberar
     _I2C_LeerByte
       _SCL_ForzarBajo
       _SCL_Liberar
       _SDA_ForzarBajo
       _SDA_Liberar
     _LimpiarFechaHora
     _Reloj_ConvertirBCD
       ___bmul
     _Reloj_VerificarConexion
       _I2C_CondicionInicio
       _I2C_CondicionParo
       _I2C_EscribirByte
   _SensorHumedad_Configurar
   _SensorHumedad_ObtenerDatos
     ___fldiv
     ___flmul
     ___xxtofl
   ___awdiv
   ___awmod
   ___fladd
   ___flge
   ___flmul
   ___fltol
   ___lwdiv
   ___lwmod

Address spaces:
Name               Size   Autos  Total    Usage
BANK3               96      0      47     49.0%
BITBANK3            96      0       0      0.0%
BANK2               96      0       0      0.0%
BITBANK2            96      0       0      0.0%
BANK1               80     47      80    100.0%
BITBANK1            80      0       0      0.0%
BANK0               80     80      80    100.0%
BITBANK0            80      0       0      0.0%
COMMON              14     14      14    100.0%
BITCOMMON           14      0       0      0.0%
DATA                 0      0     221      0.0%
STACK                0      0       0      0.0%


Microchip Technology PIC Macro Assembler V3.10 build 20250813170317 
Symbol Table                                                                                   Wed Nov 19 16:55:23 2025

                            _ImprimirDigito2 1C26                                            l9 1B11  
                               ___fldiv@aexp 0039                                 ___fldiv@bexp 0038  
                                          pc 0002                                 ___fldiv@sign 0031  
                             ___bmul@product 0071                                           l10 1B14  
                                         l11 1B1A                                           l12 1B1B  
                                         l20 1024                                           l13 1B21  
                                         l14 1B22                                           l15 1B28  
                                         l31 1F70                                           l23 1AB8  
                                         l40 1B9F                                           l17 1B29  
                                         l34 1D18                                           l27 1BAD  
                                         l28 1BC7                                           l53 166D  
                                         l63 156A                                           l80 0077  
                                         l56 1584                                           l49 1AA2  
                                         l83 1A1C                                           l59 154C  
                                         l92 1B07                                           l68 1639  
                                         l77 1A20                                           l86 1A2B  
                                         l95 1AEA                                           l89 1A68  
                                         l98 1D1B                                 ___awdiv@sign 0075  
                __end_of_I2C_CondicionInicio 1B08                                           fsr 0004  
                        __Umul8_16@word_mpld 0076                                          l101 1D2A  
                                        l110 1DAB                                          l102 1D5F  
                                        l200 0947                                          l113 1ACE  
                                        l122 085B                                          l116 1A59  
                                        l141 1A3F                                          l109 1D97  
                                        l126 17FF                                          l119 1A8E  
                                        l144 1BCB                                          l209 1A4B  
                                        l217 1E00                                          l146 1BF4  
                                        l154 1119                                          l171 14F8  
                                        l163 1502                                          l158 142A  
                                        l191 0958                                          l272 1B50  
                                        l280 0AF3                                          l264 1C59  
                                        l601 1EE3                                          l433 1A7B  
                                        l611 1EE3                                          l291 1FFF  
                                        l268 1410                                          l197 093E  
                                        l278 0974                                          l703 00A4  
                                        l712 0154                                          l560 1087  
                                        l608 1ECC                                          l288 133D  
                                        l721 02C7                                          l714 012F  
                                        l298 1C25                                          l810 0F71  
                                        l708 00D5                                          l804 0FFF  
                                        l733 023E                                          l573 1E57  
                                        l750 02BD                                          l742 029D  
                                        l751 02C7                                          l823 1B65  
                                        l816 0FF5                                          l729 021A  
                                        l593 11BB                                          l585 1136  
                                        l825 1B77                                          l850 126F  
                                        l739 0261                                          l780 0C37  
                                        l764 0B49                                          l588 11A2  
                                        l861 1239                                          l766 0CBD  
                                        l862 1245                                          l854 121D  
                                        l687 1CD3                                          l848 11DE  
                                        l849 11EF                                          l697 1C91  
                                        l786 0CA9                                          l788 0CB5  
                                        fsr0 0004                                          indf 0000  
                               ___awmod@sign 007D                                 ___flmul@aexp 004C  
                               ___flmul@bexp 004D                                 ___flmul@sign 0047  
                               ___flmul@temp 0052                                 ___flmul@prod 004E  
                       MostrarPrincipal@temp 00AA      SensorHumedad_ObtenerDatos@humedad_cruda 005A  
                               ___fltol@exp1 00A1                                         l3001 0086  
                                       l3011 009A                                         l3003 0087  
                                       l3101 017D                                         l3021 00AF  
                                       l3005 008C                                         l3013 009C  
                                       l3111 0192                                         l3103 0181  
                                       l3031 00C2                                         l3023 00B3  
                                       l3015 00A6                                         l3007 0091  
                                       l3121 01F3                                         l3113 0193  
                                       l3105 0185                                         l3041 00DF  
                                       l3033 00CA                                         l3025 00B7  
                                       l3017 00A8                                         l3009 0099  
                                       l4001 0996                                         l3201 0CCD  
                                       l3131 0222                                         l3123 01F5  
                                       l3115 019C                                         l3107 018C  
                                       l3051 00E9                                         l3043 00E1  
                                       l3035 00CB                                         l3027 00B8  
                                       l3019 00AE                                         l4011 0A77  
                                       l4003 0998                                         l3211 0CE9  
                                       l3203 0CD2                                         l3141 023D  
                                       l3133 0227                                         l3125 01F8  
                                       l3109 018E                                         l3117 019F  
                                       l3061 00F3                                         l3053 00EB  
                                       l3045 00E3                                         l3029 00BD  
                                       l3037 00CD                                         l4013 0A95  
                                       l4005 09E7                                         l3301 0F76  
                                       l3221 0CFA                                         l3213 0CEC  
                                       l3205 0CD7                                         l4021 1278  
                                       l3143 0242                                         l3151 024F  
                                       l3127 01FD                                         l3119 01B5  
                                       l3071 00FD                                         l3063 00F5  
                                       l3055 00ED                                         l3047 00E5  
                                       l3039 00DB                                         l4007 0A1E  
                                       l4015 0A99                                         l3303 0F7B  
                                       l3311 0FAC                                         l3231 0D16  
                                       l3223 0CFF                                         l3215 0CF0  
                                       l3207 0CDF                                         l4031 12CC  
                                       l4023 128D                                         l3145 0246  
                                       l3137 0230                                         l3129 020C  
                                       l3153 0253                                         l3081 013A  
                                       l3065 00F7                                         l3057 00EF  
                                       l3049 00E7                                         l3073 00FF  
                                       l4017 0A9F                                         l4009 0A3C  
                                       l3321 0FDF                                         l3313 0FB9  
                                       l3305 0F89                                         l3241 0D3F  
                                       l3233 0D1B                                         l3225 0D07  
                                       l3217 0CF4                                         l3209 0CE1  
                                       l4041 1334                                         l4033 12E7  
                                       l4025 12A8                                         l3401 1ABA  
                                       l3171 029B                                         l3163 0266  
                                       l3155 0254                                         l3147 0248  
                                       l3139 0239                                         l3083 013C  
                                       l3091 014C                                         l3075 0100  
                                       l3067 00F9                                         l3059 00F1  
                                       l3323 0FEB                                         l3315 0FC4  
                                       l3307 0F8D                                         l3251 0DD8  
                                       l3243 0D5A                                         l3227 0D09  
                                       l3219 0CF5                                         l4035 12FC  
                                       l4027 12AE                                         l4019 1270  
                                       l3411 0801                                         l3413 1A34  
                                       l3181 02B5                                         l3173 02A2  
                                       l3165 026B                                         l3157 0258  
                                       l3149 024D                                         l3093 0158  
                                       l3085 0140                                         l3077 0117  
                                       l3069 00FB                                         l3501 0AF8  
                                       l3421 0870                                         l4061 1BF5  
                                       l2621 1B18                                         l2701 1CFB  
                                       l3325 0FEF                                         l3317 0FD3  
                                       l3309 0FA6                                         l3261 0E37  
                                       l3253 0DE1                                         l3245 0D76  
                                       l3237 0D24                                         l3229 0D11  
                                       l3341 1BB9                                         l3333 1BA1  
                                       l4037 130D                                         l4029 12C3  
                                       l3405 1A7C                                         l3183 02B9  
                                       l3175 02A7                                         l3167 0279  
                                       l3159 025E                                         l3095 015D  
                                       l3087 0141                                         l3079 0133  
                                       l3511 0B08                                         l3503 0AFA  
                                       l3423 0873                                         l3415 085C  
                                       l4071 1C19                                         l4063 1C01  
                                       l2623 1B1F                                         l2703 1D01  
                                       l3327 0FF0                                         l3319 0FDD  
                                       l3271 0ECF                                         l3263 0E4E  
                                       l3255 0DEF                                         l3247 0DA0  
                                       l3239 0D32                                         l3191 0CBE  
                                       l3351 1B8A                                         l3343 1BBB  
                                       l3335 1BA6                                         l4039 131C  
                                       l2631 1A19                                         l2711 1AEB  
                                       l3407 1A8D                                         l2641 1BD5  
                                       l3185 02BB                                         l3177 02AF  
                                       l3169 027D                                         l3089 014A  
                                       l3601 0C1B                                         l3521 0B20  
                                       l3513 0B0D                                         l3505 0AFE  
                                       l3433 089E                                         l3425 0891  
                                       l3417 085F                                         l4065 1C08  
                                       l2625 1B26                                         l2617 1B09  
                                       l2705 1D04                                         l3329 0FF7  
                                       l3281 0F3D                                         l3273 0EF5  
                                       l3265 0E6B                                         l3257 0E0C  
                                       l3249 0DBC                                         l3193 0CC2  
                                       l3353 1B92                                         l3345 1BC1  
                                       l3337 1BAA                                         l2633 1A25  
                                       l3361 1D62                                         l2801 1A73  
                                       l2713 1AF5                                         l2721 1AD4  
                                       l4401 02E1                                         l2651 1BE8  
                                       l2643 1BD7                                         l2635 1BC9  
                                       l3187 02C2                                         l3179 02B4  
                                       l3099 0166                                         l3611 0C3C  
                                       l3603 0C1C                                         l3531 0B31  
                                       l3523 0B23                                         l3515 0B15  
                                       l3507 0B02                                         l3451 08E9  
                                       l3443 08B3                                         l3435 08A9  
                                       l3427 0896                                         l3419 0865  
                                       l4067 1C10                                         l4075 1C1B  
                                       l2619 1B0D                                         l2707 1D0B  
                                       l2811 102A                                         l3291 0F55  
                                       l3283 0F41                                         l3275 0F1D  
                                       l3267 0E96                                         l3259 0E1A  
                                       l3195 0CC4                                         l3347 1B78  
                                       l3339 1BB7                                         l2627 1A1D  
                                       l3355 1A5A                                         l3371 1D6A  
                                       l3363 1D67                                         l2803 1A7A  
                                       l2715 1AF9                                         l2723 1AD8  
                                       l4411 02FF                                         l4403 02E4  
                                       l2653 1BEB                                         l2645 1BD8  
                                       l3189 02C6                                         l3613 0C41  
                                       l3621 0C72                                         l3605 0C20  
                                       l3541 0B51                                         l3533 0B36  
                                       l3525 0B27                                         l3517 0B16  
                                       l3509 0B03                                         l2901 117E  
                                       l3461 091E                                         l3453 08EF  
                                       l3445 08BD                                         l3437 08AF  
                                       l3429 0897                                         l4077 1C20  
                                       l4069 1C16                                         l2709 1D0E  
                                       l2821 103C                                         l2813 102F  
                                       l2661 1B54                                         l3293 0F56  
                                       l3285 0F42                                         l3277 0F26  
                                       l3269 0EA4                                         l3197 0CC8  
                                       l3349 1B7D                                         l3701 1F22  
                                       l3357 1A64                                         l2629 0071  
                                       l3381 1D7F                                         l3373 1D6F  
                                       l2717 1B02                                         l2725 1AE1  
                                       l2741 1D33                                         l4501 050A  
                                       l4421 0329                                         l4413 0304  
                                       l4405 02E9                                         l2655 1BF3  
                                       l2647 1BDB                                         l3631 0CA8  
                                       l3623 0C7F                                         l3615 0C4F  
                                       l3607 0C34                                         l3551 0B6D  
                                       l3543 0B5D                                         l3535 0B3E  
                                       l3527 0B2B                                         l3519 0B18  
                                       l2903 11B8                                         l3471 0932  
                                       l3463 091F                                         l3455 08F7  
                                       l3447 08CE                                         l4079 1C24  
                                       l2831 1050                                         l2823 103E  
                                       l2815 1031                                         l2807 1025  
                                       l2663 1B5B                                         l3295 0F5A  
                                       l3287 0F4B                                         l3279 0F34  
                                       l3199 0CCC                                         l2911 1E65  
                                       l3711 1F52                                         l3703 1F28  
                                       l3391 1D9C                                         l3383 1D81  
                                       l3375 1D73                                         l3359 1D61  
                                       l2727 1AE6                                         l2719 1ACF  
                                       l2751 1D50                                         l2743 1D3A  
                                       l2735 1D1F                                         l4511 0542  
                                       l4503 050C                                         l4431 0357  
                                       l4423 0333                                         l4415 0309  
                                       l4407 02EE                                         l2649 1BE7  
                                       l2761 108D                                         l3633 0CAD  
                                       l3625 0C8D                                         l3617 0C53  
                                       l3561 0B98                                         l3545 0B5F  
                                       l3537 0B3F                                         l3529 0B2C  
                                       l2905 11BA                                         l3457 0900  
                                       l3449 08E2                                         l2841 1073  
                                       l2833 1054                                         l2825 1044  
                                       l2817 1035                                         l2809 1026  
                                       l3481 1C29                                         l2665 1B5F  
                                       l3297 0F6E                                         l3289 0F51  
                                       l2921 1E92                                         l2681 1018  
                                       l2673 1003                                         l3713 1F67  
                                       l3705 1F3D                                         l3393 1DA0  
                                       l3385 1D87                                         l3377 1D79  
                                       l3369 1D68                                         l2753 1D59  
                                       l2745 1D3C                                         l2737 1D25  
                                       l2729 1D1A                                         l3801 166E  
                                       l3721 1503                                         l4601 077F  
                                       l4521 057B                                         l4513 0547  
                                       l4505 0523                                         l4441 038F  
                                       l4433 0366                                         l4425 0337  
                                       l4417 0317                                         l4409 02F6  
                                       l2771 10FE                                         l2763 1092  
                                       l3635 0CB1                                         l3627 0C9C  
                                       l3619 0C6C                                         l3571 0BBD  
                                       l3563 0BA0                                         l3555 0B76  
                                       l3539 0B41                                         l3651 11E6  
                                       l3643 11BD                                         l3475 0938  
                                       l3467 0926                                         l3459 0915  
                                       l2691 1CDF                                         l2835 1065  
                                       l2827 1047                                         l2843 1079  
                                       l2819 103A                                         l2851 1E01  
                                       l2667 1B6E                                         l2659 1B52  
                                       l2931 1EA2                                         l2923 1E96  
                                       l2915 1E70                                         l3491 13BB  
                                       l3483 133E                                         l2683 101B  
                                       l2675 1006                                         l4371 1F79  
                                       l3707 1F46                                         l3395 1DA5  
                                       l3387 1D8C                                         l3379 1D7A  
                                       l2755 1D5E                                         l2747 1D42  
                                       l2739 1D2F                                         l3803 1678  
                                       l3715 1A8F                                         l3731 151E  
                                       l3723 1506                                         l4611 079E  
                                       l4603 0781                                         l4531 05A1  
                                       l4523 057F                                         l4515 0549  
                                       l4507 0527                                         l4451 03CF  
                                       l4443 03AA                                         l4435 036B  
                                       l4427 0340                                         l4419 031F  
                                       l2781 110E                                         l2765 1094  
                                       l3901 145F                                         l3637 0CB3  
                                       l3629 0CA0                                         l3581 0BE8  
                                       l3573 0BBE                                         l3565 0BA2  
                                       l3557 0B88                                         l3549 0B68  
                                       l3661 1206                                         l3645 11C2  
                                       l3477 0948                                         l3469 0929  
                                       l2693 1CE0                                         l2685 1CD7  
                                       l2845 107E                                         l2837 106B  
                                       l2829 104E                                         l2861 1E11  
                                       l2853 1E02                                         l2669 1B73  
                                       l2941 1ED1                                         l2925 1E9A  
                                       l2933 1EB6                                         l2917 1E87  
                                       l2909 1E58                                         l3493 13D1  
                                       l3485 1395                                         l2677 100C  
                                       l4381 1FD2                                         l4373 1F82  
                                       l3709 1F4C                                         l3397 1DAA  
                                       l3389 1D92                                         l2749 1D4C  
                                       l3717 1A95                                         l3741 1533  
                                       l3733 1524                                         l3725 1511  
                                       l4613 07AC                                         l4605 0786  
                                       l4541 05DA                                         l4533 05B8  
                                       l4525 0584                                         l4517 0560  
                                       l4509 053E                                         l4461 0411  
                                       l4453 03D6                                         l4445 03B9  
                                       l4437 0374                                         l4429 034E  
                                       l2767 109A                                         l2759 108B  
                                       l3911 147E                                         l3903 146A  
                                       l3591 0C03                                         l3567 0BA7  
                                       l3575 0BC7                                         l3583 0BEA  
                                       l3559 0B90                                         l3671 123D  
                                       l3663 1214                                         l3655 11F2  
                                       l3647 11C6                                         l3479 094E  
                                       l2695 1CEE                                         l2687 1CD9  
                                       l2847 1083                                         l2839 106C  
                                       l2871 1E28                                         l2863 1E16  
                                       l2855 1E06                                         l2943 1ED6  
                                       l2919 1E8A                                         l2951 1C9D  
                                       l3495 13F4                                         l3487 13AE  
                                       l2679 100F                                         l4383 1FED  
                                       l4375 1F9D                                         l3831 16B5  
                                       l3823 16A4                                         l3815 1698  
                                       l3807 1682                                         l3751 1547  
                                       l3743 1539                                         l3735 152A  
                                       l3727 1514                                         l3719 1503  
                                       l4615 07BB                                         l4607 0788  
                                       l4551 0600                                         l4543 05DE  
                                       l4535 05BC                                         l4527 0586  
                                       l4519 0564                                         l4471 0453  
                                       l4463 0418                                         l4455 03E1  
                                       l4447 03C3                                         l4439 0382  
                                       l4391 02DB                                         l2785 1110  
                                       l2777 1101                                         l2769 109C  
                                       l3921 148A                                         l3913 1483  
                                       l3905 146B                                         l3593 0C07  
                                       l3585 0BF0                                         l3577 0BD9  
                                       l3569 0BB9                                         l3681 1267  
                                       l3673 1247                                         l3665 1224  
                                       l3657 11FD                                         l3649 11D6  
                                       l2697 1CF1                                         l2689 1CDB  
                                       l2873 1E2C                                         l2865 1E1C  
                                       l2881 1E49                                         l2857 1E0B  
                                       l2961 1CC1                                         l2953 1CA4  
                                       l2945 1C92                                         l3497 13FA  
                                       l3489 13B4                                         l4385 1FF6  
                                       l4377 1FA6                                         l4369 1F71  
                                       l2793 1A6A                                         l3841 1710  
                                       l3833 16BE                                         l3809 1692  
                                       l3729 151B                                         l4609 078C  
                                       l4561 0666                                         l4553 0655  
                                       l4545 05F5                                         l4537 05C1  
                                       l4529 059D                                         l4481 048E  
                                       l4473 0469                                         l4465 0426  
                                       l4457 03FA                                         l4449 03CA  
                                       l4393 02DC                                         l2787 1112  
                                       l2779 110A                                         l3931 1496  
                                       l3923 148E                                         l3595 0C08  
                                       l3587 0BF8                                         l3579 0BDA  
                                       l3499 0AF4                                         l2891 112E  
                                       l3675 125D                                         l3667 122F  
                                       l3659 1204                                         l2699 1CF8  
                                       l2883 1E4E                                         l2875 1E36  
                                       l2867 1E1F                                         l2859 1E0D  
                                       l2939 1EBD                                         l2963 1CC2  
                                       l2955 1CA6                                         l2947 1C94  
                                       l2971 1C5A                                         l4379 1FC9  
                                       l3691 1EEC                                         l2795 1A6B  
                                       l3851 177E                                         l3843 1725  
                                       l3835 16CB                                         l3771 1570  
                                       l3763 1550                                         l3739 152C  
                                       l4571 06A8                                         l4563 067A  
                                       l4555 0659                                         l4547 05F9  
                                       l4539 05C3                                         l4491 04CF  
                                       l4483 0493                                         l4475 046E  
                                       l4467 0433                                         l4459 0408  
                                       l4395 02DC                                         l4387 02C8  
                                       l2789 1118                                         l3925 1494  
                                       l3909 146D                                         l3597 0C11  
                                       l3589 0BFA                                         l2893 114A  
                                       l3677 1262                                         l3669 1233  
                                       l2885 1E53                                         l2877 1E3C  
                                       l2869 1E26                                         l2965 1CC9  
                                       l2957 1CAA                                         l2949 1C9A  
                                       l2981 1C70                                         l2973 1C60  
                                       l3693 1EF5                                         l3685 1AA3  
                                       l2797 1A6F                                         l3861 17C6  
                                       l3853 1783                                         l3845 1743  
                                       l3837 16E9                                         l3781 1597  
                                       l3773 1576                                         l3765 1557  
                                       l3757 154A                                         l3749 1540  
                                       l4581 06C9                                         l4573 06AA  
                                       l4565 067E                                         l4557 065F  
                                       l4549 05FE                                         l4493 04E6  
                                       l4485 0498                                         l4477 0484  
                                       l4469 043A                                         l4397 02DD  
                                       l4389 02DA                                         l3935 14B8  
                                       l3919 1484                                         l3871 1411  
                                       l3599 0C17                                         l2895 1152  
                                       l3679 1266                                         l2879 1E43  
                                       l2959 1CBB                                         l2967 1CCF  
                                       l2983 1C7A                                         l2975 1C63  
                                       l3695 1EFB                                         l3687 1AAF  
                                       l2799 1A71                                         l3863 17D9  
                                       l3855 178E                                         l3847 174C  
                                       l3839 16F2                                         l3783 15B5  
                                       l3775 157C                                         l3767 155D  
                                       l4591 075B                                         l4583 071E  
                                       l4575 06BE                                         l4567 069F  
                                       l4559 0661                                         l4495 04EA  
                                       l4487 04B1                                         l4479 048C  
                                       l4399 02E0                                         l3953 14FB  
                                       l3945 14E1                                         l3937 14D4  
                                       l3881 141A                                         l3873 1416  
                                       l2993 0078                                         l2897 1156  
                                       l2889 111A                                         l2985 1C80  
                                       l2977 1C6A                                         l3697 1F0A  
                                       l3689 1EE4                                         l3865 17EB  
                                       l3857 17A1                                         l3849 176A  
                                       l3785 15B9                                         l3777 157E  
                                       l3769 156E                                         l4593 0760  
                                       l4585 0732                                         l4577 06C2  
                                       l4569 06A3                                         l4497 0501  
                                       l4489 04CC                                         l3955 1501  
                                       l3947 14F4                                         l3939 14DF  
                                       l3883 1420                                         l3875 1419  
                                       l2995 007C                                         l2899 117A  
                                       l3971 1DC9                                         l3963 1DAC  
                                       l2987 1C87                                         l2979 1C6C  
                                       l3699 1F13                                         l3859 17B4  
                                       l3787 1606                                         l3779 158A  
                                       l4595 0762                                         l4587 0736  
                                       l4579 06C7                                         l4499 0505  
                                       l3981 1B44                                         l3885 1424  
                                       l2997 007E                                         l3973 1DEF  
                                       l3965 1DB0                                         l2989 1C8D  
                                       l3797 1A4C                                         l3789 166C  
                                       l4597 0776                                         l4589 0757  
                                       l3983 1B47                                         l3895 143A  
                                       l3887 142B                                         l2999 0082  
                                       l3991 0960                                         l3959 1A40  
                                       l3975 1DFF                                         l3967 1DB2  
                                       l3799 1A51                                         l4599 077A  
                                       l3985 1B49                                         l3889 1436  
                                       l3993 0970                                         l3969 1DC3  
                                       l3987 1B4E                                         l3979 1B2A  
                                       l3899 144E                                         l3995 097E  
                                       l3989 0959                                         l3999 0984  
                                       STR_1 0064                                         STR_2 006E  
                                       STR_3 0066                                         STR_4 0062  
                                       STR_5 005D                                         STR_6 0057  
                                       STR_7 0050                                         STR_8 006A  
                                       STR_9 0029                                         u3000 10B9  
                                       u3010 10D0                              ?_SDA_ForzarBajo 0070  
                                       u3020 10E7                                         u3005 10B4  
                                       u3030 110E                                         u3110 1054  
                                       u3031 110D                                         u3015 10CB  
                                       u3111 1053                                         u3040 1118  
                                       u4000 02B9                                         u3041 1117  
                                       u3025 10E2                                         u4001 02B8  
                                       u3105 1048                                         u4010 02C6  
                                       u3130 1065                                         u3210 1E2C  
                                       u3050 1A6F                                         u4011 02C5  
                                       u3131 1064                                         u3211 1E2B  
                                       u3051 1A6E                                         u3300 117E  
                                       u3220 1E36                                         u4020 0CCC  
                                       u3060 1A7A                                         u3301 117D  
                                       u3125 1055                                         u3221 1E35  
                                       u3205 1E20                                         u4101 0D68  
                                       u4021 0CCB                                         u3061 1A79  
                                       u3150 1079                                         u3070 102A  
                                       u4102 0D6F                                         u4030 0CD2  
                                       u3311 118D                                         u3151 1078  
                                       u3135 1061                                         u3071 1029  
                                       u4111 0D84                                         u4103 0D76  
                                       u4031 0CD1                                         u3320 11B8  
                                       u3312 118E                                         u3160 107E  
                                       u3080 1035                                         u3240 1E49  
                                       u4112 0D8B                                         u4040 0CD7  
                                       u5000 155D                                         u3321 11B7  
                                       u3313 1193                                         u3161 107D  
                                       u3145 106D                                         u3081 1034  
                                       u3241 1E48                                         u3225 1E32  
                                       u4201 0EB3                                         u4121 0DAE  
                                       u4113 0D92                                         u4041 0CD6  
                                       u5001 155C                                         u3314 1194  
                                       u3090 1044                                         u3250 1E4E  
                                       u3170 1E06                                         u4210 0EDB  
                                       u4202 0EBA                                         u4122 0DB5  
                                       u4050 0CF4                                         u3410 1ED1  
                                       u3330 1E65                                         u3315 1199  
                                       u3091 1043                                         u3251 1E4D  
                                       u3235 1E3D                                         u3171 1E05  
                                       u4203 0EC1                                         u4131 0DCA  
                                       u4123 0DBC                                         u4051 0CF3  
                                       u3411 1ED0                                         u3331 1E64  
                                       u3316 119A                                         u3260 112E  
                                       u3180 1E11                                         u4300 0F5A  
                                       u4132 0DD1                                         u4060 0CFA  
                                       u3420 1ED6                                         u3340 1E80  
                                       u3500 1C60                                         u5100 16B4  
                                       u5020 156E                                         u3325 11B4  
                                       u3261 112D                                         u3181 1E10  
                                       u4301 0F59                                         u4221 0EE7  
                                       u4133 0DD8                                         u4061 0CF9  
                                       u3421 1ED5                                         u3405 1EC1  
                                       u3501 1C5F                                         u5101 16B3  
                                       u5021 156D                                         u3270 114A  
                                       u3190 1E1C                                         u4310 0F6E  
                                       u4230 0F03                                         u4222 0EEE  
                                       u4070 0CFF                                         u3350 1E9A  
                                       u3430 1C9A                                         u5110 178E  
                                       u5030 1576                                         u5014 1565  
                                       u3271 1149                                         u3191 1E1B  
                                       u4311 0F6D                                         u4223 0EF5  
                                       u4215 0ED6                                         u4151 0DFE  
                                       u4071 0CFE                                         u3351 1E99  
                                       u3431 1C99                                         u5111 178D  
                                       u5031 1575                                         u5015 1563  
                                       u5200 145F                                         u3600 00B7  
                                       u3280 1156                                         u4320 0F75  
                                       u4152 0E05                                         u4080 0D16  
                                       u3360 1EA1                                         u3520 1C70  
                                       u5120 17A1                                         u5040 1584  
                                       u5201 145E                                         u3601 00B6  
                                       u3281 1155                                         u4321 0F74  
                                       u4241 0F0F                                         u4161 0E29  
                                       u4153 0E0C                                         u4145 0DDA  
                                       u4081 0D15                                         u3361 1EA0  
                                       u3345 1E7B                                         u3521 1C6F  
                                       u5121 17A0                                         u5041 1583  
                                       u5210 146A                                         u3610 00BD  
                                       u4330 0F7B                                         u4242 0F16  
                                       u4162 0E30                                         u4090 0D1B  
                                       u3450 1CAA                                         u3530 1C7A  
                                       u4410 1B9F                                         u5130 17B4  
                                       u5050 1597                                         u5211 1469  
                                       u3611 00BC                                         u3291 1165  
                                       u4331 0F7A                                         u4243 0F1D  
                                       u4235 0EFE                                         u4163 0E37  
                                       u4091 0D1A                                         u3451 1CA9  
                                       u3531 1C79                                         u3515 1C64  
                                       u4411 1B9E                                         u5131 17B3  
                                       u5051 1596                                         u5220 1483  
                                       u3620 00C2                                         u3292 1166  
                                       u4500 091E                                         u4340 0F8D  
                                       u3380 1EB5                                         u4420 1D79  
                                       u5140 17C6                                         u5060 15B9  
                                       u5221 1482                                         u3621 00C1  
                                       u3293 116B                                         u4501 091D  
                                       u4341 0F8C                                         u4181 0E5D  
                                       u3381 1EB4                                         u3445 1C9E  
                                       u4405 1BB0                                         u4421 1D78  
                                       u5141 17C5                                         u5061 15B8  
                                       u5310 1B4E                                         u2910 1BF3  
                                       u5230 1494                                         u3710 0154  
                                       u3630 00DB                                         u3294 116C  
                                       u4510 0937                                         u4350 0F9C  
                                       u4270 0F41                                         u4182 0E64  
                                       u3390 1EBC                                         u3470 1CBB  
                                       u3550 1C8D                                         u4430 1D87  
                                       u5150 17D9                                         u5070 1678  
                                       u5311 1B4D                                         u2911 1BF2  
                                       u5231 1493                                         u3711 0153  
                                       u3631 00DA                                         u3295 1171  
                                       u4511 0936                                         u4271 0F40  
                                       u4255 0F1F                                         u4191 0E88  
                                       u4183 0E6B                                         u4175 0E39  
                                       u3391 1EBB                                         u3375 1EA3  
                                       u3471 1CBA                                         u3551 1C8C  
                                       u3535 1C76                                         u4431 1D86  
                                       u6007 1AF7                                         u5151 17D8  
                                       u5071 1677                                         u2904 1BD5  
                                       u5240 14B7                                         u3720 0158  
                                       u3640 00DF                                         u3560 0086  
                                       u4600 0B51                                         u3296 1172  
                                       u5320 0960                                         u4520 0947  
                                       u2920 1B5F                                         u4360 0FB9  
                                       u4192 0E8F                                         u4440 1D8C  
                                       u5160 17EB                                         u5080 1692  
                                       u5305 1B2F                                         u5241 14B6  
                                       u3801 01CC                                         u3721 0157  
                                       u3705 0143                                         u3641 00DE  
                                       u3561 0085                                         u4601 0B50  
                                       u5321 095F                                         u4521 0946  
                                       u2921 1B5E                                         u4361 0FB8  
                                       u4265 0F36                                         u4193 0E96  
                                       u3465 1CAB                                         u3545 1C81  
                                       u4441 1D8B                                         u6017 1B00  
                                       u5161 17EA                                         u5081 1691  
                                       u5250 14D4                                         u3810 01E0  
                                       u3802 01CD                                         u3730 015D  
                                       u3650 0117                                         u3570 008C  
                                       u4610 0B6D                                         u5410 0A9F  
                                       u5330 0983                                         u2850 1B0D  
                                       u4370 0FD3                                         u4290 0F55  
                                       u3490 1CCF                                         u4530 13AE  
                                       u5170 17FE                                         u5090 16A3  
                                       u5251 14D3                                         u3811 01E1  
                                       u3803 01D2                                         u3731 015C  
                                       u3651 0116                                         u3571 008B  
                                       u4611 0B6C                                         u5411 0A9E  
                                       u5331 0982                                         u2851 1B0C  
                                       u4371 0FD2                                         u4355 0F97  
                                       u4291 0F54                                         u3491 1CCE  
                                       u3475 1CB7                                         u4531 13AD  
                                       u6107 1F1D                                         u6027 1D71  
                                       u5171 17FD                                         u5091 16A2  
                                       u5260 14DF                                         u5180 142A  
                                       u3900 0258                                         u3820 01FD  
                                       u3812 01E6                                         u3804 01D3  
                                       u3660 0122                                         u3580 0091  
                                       u4620 0BA7                                         u4540 0B02  
                                       u4460 0896                                         u5420 1C01  
                                       u2860 1B18                                         u2940 1B73  
                                       u4380 0FEF                                         u5261 14DE  
                                       u5181 1429                                         u3901 0257  
                                       u3821 01FC                                         u3813 01E7  
                                       u3805 01D8                                         u3741 016F  
                                       u3661 0120                                         u3581 0090  
                                       u4621 0BA6                                         u4541 0B01  
                                       u5405 0A7E                                         u4461 0895  
                                       u5421 1C00                                         u2861 1B17  
                                       u2941 1B72                                         u4381 0FEE  
                                       u4365 0FB5                                         u4285 0F44  
                                       u3485 1CC3                                         u6117 1F2C  
                                       u6037 1D9E                                         u5270 14F4  
                                       u5190 144D                                         u3910 025E  
                                       u3830 0222                                         u3806 01D9  
                                       u3750 0181                                         u3742 0176  
                                       u3670 0123                                         u3590 00AE  
                                       u4710 0C07                                         u4550 0B08  
                                       u4470 08BD                                         u5430 1C08  
                                       u2870 1B1F                                         u4390 1BA6  
                                       u5271 14F3                                         u5191 144C  
                                       u3911 025D                                         u3831 0221  
                                       u3751 0180                                         u3743 017D  
                                       u3655 0113                                         u3591 00AD  
                                       u4711 0C06                                         u4551 0B07  
                                       u4471 08BC                                         u6207 1C0C  
                                       u5431 1C07                                         u2871 1B1E  
                                       u2935 1B66                                         u4375 0FCF  
                                       u4391 1BA5                                         u6127 1F41  
                                       u6047 1A55                                         u4455 1AC2  
                                       u3920 0265                                         u3840 0227  
                                       u3760 0185                                         u3680 0133  
                                       u4800 0C7F                                         u4560 0B0D  
                                       u5360 0A1E                                         u4480 08CE  
                                       u5280 1DC3                                         u5440 1C16  
                                       u2880 1B26                                         u2960 1D1F  
                                       u3921 0264                                         u3841 0226  
                                       u3761 0184                                         u3681 0132  
                                       u4801 0C7E                                         u4705 0BFC  
                                       u4561 0B0C                                         u5361 0A1D  
                                       u5345 099D                                         u4481 08CD  
                                       u6217 086B                                         u5281 1DC2  
                                       u5441 1C15                                         u2881 1B25  
                                       u6137 1F56                                         u6057 1A66  
                                       u2961 1D1E                                         u2890 1BD2  
                                       u3930 026B                                         u3770 0192  
                                       u3690 0140                                         u4810 0C9C  
                                       u4730 0C1B                                         u4650 0BBD  
                                       u4570 0B2B                                         u4490 0900  
                                       u5290 1DC9                                         u5450 1C20  
                                       u2970 1D42                                         u2891 1BCE  
                                       u3931 026A                                         u3771 0191  
                                       u3691 013F                                         u4811 0C9B  
                                       u4731 0C1A                                         u4651 0BBC  
                                       u4635 0BA9                                         u4571 0B2A  
                                       u5355 09EC                                         u4491 08FF  
                                       u4475 08B9                                         u6227 0879  
                                       u5291 1DC8                                         u5451 1C1F  
                                       u2955 1CE3                                         u6147 1F6B  
                                       u6067 1AB3                                         u2971 1D41  
                                       u2980 1092                                         u3940 027D  
                                       u3860 023D                                         u4820 0CB1  
                                       u4740 0C20                                         u4580 0B31  
                                       u5700 0333                                         u2981 1091  
                                       u3941 027C                                         u3861 023C  
                                       u4821 0CB0                                         u4805 0C7B  
                                       u4741 0C1F                                         u4725 0C0A  
                                       u4645 0BB2                                         u4581 0B30  
                                       u4485 08CA                                         u6237 08A4  
                                       u6157 1013                                         u6077 1EF0  
                                       u5701 0332                                         u2990 109A  
                                       u3950 028C                                         u3870 0242  
                                       u3790 01B5                                         u4750 0C34  
                                       u4670 0BD9                                         u4590 0B36  
                                       u4910 1233                                         u4830 11C2  
                                       u5390 0A77                                         u5710 03C3  
                                       u2991 1099                                         u3871 0241  
                                       u3855 0232                                         u3791 01B4  
                                       u4815 0C98                                         u4751 0C33  
                                       u4671 0BD8                                         u4591 0B35  
                                       u4911 1232                                         u4831 11C1  
                                       u5391 0A76                                         u5375 0A25  
                                       u6247 0954                                         u6167 101F  
                                       u6087 1EFF                                         u5711 03C2  
                                       u3960 029B                                         u3880 024D  
                                       u4760 0C3B                                         u4680 0BF0  
                                       u4920 1239                                         u4840 11C6  
                                       u5800 04B1                                         u5720 03D6  
                                       u6257 1431                                         u3961 029A  
                                       u3881 024C                                         u3793 01B1  
                                       u3785 0195                                         u4761 0C3A  
                                       u4681 0BEF                                         u4665 0BC0  
                                       u4921 1238                                         u4905 1228  
                                       u4841 11C5                                         u5385 0A59  
                                       u6177 1CF5                                         u6097 1F0E  
                                       u5801 04B0                                         u5721 03D5  
                                       u3970 02A2                                         u3890 0253  
                                       u4770 0C41                                         u4690 0BF8  
                                       u4930 123D                                         u4850 11E6  
                                       u5810 04CC                                         u5730 0418  
                                       u6267 14BE                                         u3971 02A1  
                                       u3955 0287                                         u3891 0252  
                                       u4771 0C40                                         u4691 0BF7  
                                       u4675 0BD5                                         u4931 123C  
                                       u4851 11E5                                         u6187 1D08  
                                       u5811 04CB                                         u5731 0417  
                                       u3980 02A7                                         u4780 0C53  
                                       u4940 1252                                         u5820 0659  
                                       u5740 043A                                         u3981 02A6  
                                       u4781 0C52                                         u6197 1D14  
                                       u5821 0658                                         u5741 0439  
                                       u3990 02B4                                         u4790 0C62  
                                       u4950 1262                                         u4870 1203  
                                       u5830 079E                                         u5750 046E  
                                       u3991 02B3                                         u4951 1261  
                                       u4871 1202                                         u5831 079D  
                                       u5751 046D                                         u4960 1266  
                                       u5760 0484                                         u4961 1265  
                                       u4945 124D                                         u4865 11F5  
                                       u5761 0483                                         u4890 1223  
                                       u4970 1524                                         u5770 048C  
                                       u5690 0329                                         u4795 0C5D  
                                       u4891 1222                                         u4971 1523  
                                       u5907 1518                                         u5771 048B  
                                       u5691 0328                                         u4980 1539  
                                       u5780 0493                                         u4885 1215  
                                       u4981 1538                                         u5917 1530  
                                       u5781 0492                                         u4990 1550  
                                       u5790 0498                                         u4991 154F  
                                       u5927 1544                                         u5791 0497  
                                       u5847 0311                                         u5937 1554  
                                       u5857 035F                                         u5947 1A9B  
                                       u5867 03B2                                         u5957 1D31  
                                       u5877 0402                                         u5967 1D4E  
                                       u5887 07B4                                         u5977 1AD6  
                                       u5897 150C                                         u5987 1ADF  
                                       u5997 1AE8                            ?_I2C_EscribirByte 0070  
                                       _main 02C8                    _Pantalla_ConfigurarPuerto 1B08  
                                       btemp 007E                                         start 0000  
                         ??_I2C_EscribirByte 0070                              ___fldiv@new_exp 0032  
                          ___bmul@multiplier 0072                 ??_Almacenamiento_Inicializar 0024  
                              ___fltol@sign1 00A0                              __end_of___fladd 02C8  
                                      ?_main 0070                              __end_of___fldiv 0CBE  
                            __end_of___awdiv 1088         Almacenamiento_EscribirDatos@longitud 002C  
                                      STR_10 0049                                        STR_11 0040  
                                      STR_12 0013                                        STR_13 0036  
                                      STR_15 0040                              __end_of___awmod 1E58  
                            __end_of___flmul 1000                              __end_of___fltol 1EE4  
                                      _ANSEL 0188                              ___awdiv@divisor 0070  
                            __end_of___lwdiv 1CD4                              __end_of___lwmod 1C92  
                            ___awdiv@counter 0074                      Pantalla_EnviarComando@a 0073  
                               _I2C_LeerByte 1D60                                 main@min_prev 00EE  
                                _AgregarTemp 1B2A                             _Pantalla_Limpiar 1AA3  
                ?_SensorHumedad_ObtenerDatos 0054                                        btemp0 007E  
                                      btemp1 007F                                        _stats 00DF  
                                      pclath 000A                                        status 0003  
                       I2C_EscribirByte@dato 0071                      __end_of_ImprimirDigito2 1C5A  
                                      wtemp0 007E                                 ?_SDA_Liberar 0070  
                            __initialization 07C2              Almacenamiento_EnviarComando@cmd 0023  
            Almacenamiento_EnviarComando@arg 0076              Almacenamiento_EnviarComando@crc 0020  
                               __end_of_main 07C2                           _Reloj_ConvertirBCD 1AB9  
                                     ??_main 00B4                                _CalcStats$464 00A0  
                              ?_ImprimirTemp 00A2                          ?_Reloj_ConvertirBCD 0070  
                               ?_SCL_Liberar 0070                             ImprimirDigito2@v 0027  
                           ___awdiv@dividend 0072                             I2C_LeerByte@dato 0072  
                                     _ANSELH 0189              Pantalla_EstablecerPosicion@temp 0079  
                           __end_of___xxtofl 1270                  ??_Pantalla_EscribirCaracter 0020  
                       ??_Reloj_ConvertirBCD 0073                                       ___flge 111A  
                                     ___bmul 1A69                                    ??___fladd 005C  
                                  ??___fldiv 0028                                    ??___awdiv 0074  
                                  ??___awmod 007C                                    ??___flmul 0042  
                                  ??___fltol 006C                                    ??___lwdiv 0074  
                                  ??___lwmod 007B                             ___awdiv@quotient 0076  
                            ___awmod@divisor 0078                      ?_Reloj_ObtenerFechaHora 007A  
                            ___awmod@counter 007C                    ?_SensorHumedad_Configurar 0070  
                             ??_ImprimirTemp 007E                                main@sensor_ok 00B8  
                   ?_Reloj_VerificarConexion 0070                               _SCL_ForzarBajo 1A25  
                                     ltemp0a 0080                            __end_of_CalcStats 0AF4  
SensorHumedad_ObtenerDatos@temperatura_cruda 0062                                       ttemp0a 007F  
                                     wtemp0a 007F                                   ___flge@ff1 0070  
                                 ___flge@ff2 0074                                 ___xxtofl@arg 007A  
                               ___xxtofl@exp 0079                                 ___xxtofl@val 0070  
                    __end_of__initialization 07FC                             ?_ImprimirDigito2 0070  
                          ?_LimpiarFechaHora 0070                                   ___fltol@f1 0068  
                         ??_LimpiarFechaHora 0072                          ___bmul@multiplicand 0070  
                 ?_Almacenamiento_IniciarSPI 0070           __end_of_Almacenamiento_Inicializar 1503  
                 _Almacenamiento_Inicializar 1411                               __pcstackCOMMON 0070  
               ?_GestorArchivos_GuardarLinea 0033                                 __pidataBANK1 1000  
                               __pidataBANK3 1A21                            __end_of_LeerBoton 1C26  
             __end_of_Reloj_ObtenerFechaHora 1800                       __end_of_SCL_ForzarBajo 1A2C  
                  _Pantalla_EscribirCaracter 1CD4                             ??_SDA_ForzarBajo 0070  
                   I2C_LeerByte@confirmacion 0071                  Almacenamiento_Inicializar@i 0027  
                Almacenamiento_Inicializar@r 0026                                   __pbssBANK1 00CF  
                                 __pbssBANK3 0190                            LimpiarFechaHora@t 0070  
                          __end_of__Umul8_16 1B78                                   __pmaintext 02C8  
              Pantalla_EscribirCaracter@temp 0022                Almacenamiento_TransferirSPI@i 0074  
          __end_of_Almacenamiento_IniciarSPI 1A40                                      ?___flge 0070  
                                    ?___bmul 0070                     __end_of_Pantalla_Limpiar 1AB9  
            __end_of_Reloj_VerificarConexion 1A8F                ??_GestorArchivos_GuardarLinea 007E  
                            ?_SCL_ForzarBajo 0070               ??_Almacenamiento_TransferirSPI 0070  
                   ??_Pantalla_EscribirTexto 007E                                    ?___xxtofl 0070  
                               ?_AgregarTemp 0070                                ?_MostrarStats 0070  
                                 __stringtab 0003                   ?_GestorArchivos_Configurar 0070  
                                 _idx_buffer 00ED               ??_Almacenamiento_EscribirDatos 002D  
                           _MostrarPrincipal 1270                         __end_of_ImprimirTemp 1411  
                        _Reloj_IniciarModulo 1A4C                               _I2C_IniciarBus 1A5A  
                   ??_Pantalla_EnviarComando 0071                                      ___fladd 0078  
                                    ___fldiv 0AF4                                      ___awdiv 1025  
                                    ___awmod 1E01                                      ___flmul 0CBE  
                                    ___fltol 1E58                                      ___lwdiv 1C92  
                                    ___lwmod 1C5A                      Reloj_ObtenerFechaHora@r 0020  
            Reloj_ObtenerFechaHora@fechahora 007A                                      __ptext1 1503  
                                    __ptext2 1A8F                                      __ptext3 166E  
                                    __ptext4 1A7C                                      __ptext5 1D19  
                                    __ptext6 1ACF                                      __ptext7 1AEB  
                                    __ptext8 1AB9                                      __ptext9 1A69  
                       ?_Reloj_IniciarModulo 0070                                   ??___xxtofl 0074  
                           ___awmod@dividend 007A               ??_Almacenamiento_EnviarComando 007A  
                             ??_MostrarStats 00A8                                      main@h10 00BA  
                                    main@t10 00BD                                      main@cnt 00B9  
                                    main@hum 00BF                                      clrloop0 1A2D  
                                    main@pos 00CE             Almacenamiento_TransferirSPI@dato 0073  
                       end_of_initialization 07FC                 I2C_EscribirByte@confirmacion 0072  
          __end_of_GestorArchivos_Configurar 1A4C                       __end_of_I2C_IniciarBus 1A69  
              Almacenamiento_EscribirDatos@i 0031             __end_of_SensorHumedad_Configurar 1AA3  
                               _buffer_datos 0198                                 _buffer_lleno 00EC  
                 Pantalla_EscribirCaracter@a 0024                   Pantalla_EscribirCaracter@y 0023  
                                  _PORTAbits 0005                                    _PORTBbits 0006  
                                  _PORTCbits 0007                                    _PORTDbits 0008  
        SensorHumedad_ObtenerDatos@resultado 005C                        ??_Reloj_IniciarModulo 0071  
                                ___fladd@grs 0067                                ___xxtofl@sign 0078  
               __end_of_Pantalla_Inicializar 1F71                                    _TRISAbits 0085  
                                  _TRISBbits 0086                                    _TRISCbits 0087  
                                  _TRISDbits 0088                                  ___fldiv@grs 0034  
                                ___fldiv@rem 002D                                    _CalcStats 0959  
                          I2C_EscribirByte@i 0073                                  ___flmul@grs 0048  
                        MostrarPrincipal@hum 00AE                              ?_I2C_IniciarBus 0070  
        GestorArchivos_GuardarLinea@longitud 0036                 ?_Pantalla_EstablecerPosicion 0074  
                               AgregarTemp@t 0070                  ??_Almacenamiento_IniciarSPI 0070  
                  Reloj_VerificarConexion@ok 0074                  ?_Almacenamiento_Inicializar 0070  
                 Pantalla_ConfigurarPuerto@a 0070                               __end_of___flge 11BC  
                             __end_of___bmul 1A7C                             _I2C_EscribirByte 1D19  
                                  _LeerBoton 1BF5                          start_initialization 07C2  
                                 ?_CalcStats 0070                       _Pantalla_EscribirTexto 1B78  
                SensorHumedad_ObtenerDatos@i 0064                  SensorHumedad_ObtenerDatos@j 0065  
                        _I2C_CondicionInicio 1AEB                             ??_SCL_ForzarBajo 0070  
                              CalcStats@suma 00A2                         __end_of_MostrarStats 2000  
                                   ??___flge 0078                                     ??___bmul 0071  
              ??_Pantalla_EstablecerPosicion 0075                     _SensorHumedad_Configurar 1A8F  
                                  __Umul8_16 1B51                                  __pdataBANK1 00EE  
                                __pdataBANK3 01BB                            ?_Pantalla_Limpiar 0070  
                         ??_Pantalla_Limpiar 0074                                   ?_LeerBoton 0070  
                                  ___fladd@a 0058                                    ___fladd@b 0054  
                   __end_of_MostrarPrincipal 133E                                    ___fldiv@a 0020  
                                  ___fldiv@b 0024                                ?_I2C_LeerByte 0070  
                               _ImprimirTemp 133E                                    ___flmul@a 003E  
                                  ___flmul@b 003A    GestorArchivos_GuardarLinea@nombre_archivo 0033  
                                  ___latbits 0002                    _Almacenamiento_IniciarSPI 1A34  
                       ?_I2C_CondicionInicio 0070                                __pcstackBANK0 0020  
                              __pcstackBANK1 00A0                       _Pantalla_EnviarComando 1002  
              Almacenamiento_EnviarComando@i 0022                Almacenamiento_EnviarComando@r 0021  
               ??_SensorHumedad_ObtenerDatos 0056                                I2C_LeerByte@i 0073  
                              _sector_actual 01BB                  ??_GestorArchivos_Configurar 0070  
                              ??_SDA_Liberar 0070                             ___lwdiv@dividend 0072  
                       _Pantalla_Inicializar 1EE4                                     ?___fladd 0054  
           GestorArchivos_GuardarLinea@linea 0034                                     ?___fldiv 0020  
                                   ?___awdiv 0070                                     ?___awmod 0078  
                                   ?___flmul 003A                                     ?___fltol 0068  
                                 ?__Umul8_16 0070                                     ?___lwdiv 0070  
               Pantalla_EstablecerPosicion@a 0076                 Pantalla_EstablecerPosicion@b 0074  
                                   ?___lwmod 0077                 Pantalla_EstablecerPosicion@y 0078  
               Pantalla_EstablecerPosicion@z 0077                                    __pstrings 0003  
                 ?_Pantalla_ConfigurarPuerto 0070                               ??_I2C_LeerByte 0070  
                      ??_I2C_CondicionInicio 0070                                ??_SCL_Liberar 0070  
                           ___lwdiv@quotient 0074                                  ??_CalcStats 0068  
                    _Reloj_VerificarConexion 1A7C        SensorHumedad_ObtenerDatos@temperatura 0054  
          SensorHumedad_ObtenerDatos@humedad 0055         __end_of_Almacenamiento_TransferirSPI 1BF5  
               _Almacenamiento_TransferirSPI 1BC8                                    clear_ram0 1A2C  
                   ??_Reloj_ObtenerFechaHora 007C                        ?_Pantalla_Inicializar 0070  
        __end_of_GestorArchivos_GuardarLinea 1E01                  _GestorArchivos_GuardarLinea 1DAC  
                                _buffer_temp 00CF        Almacenamiento_EscribirDatos@byte_dato 002F  
                        __end_of_SDA_Liberar 1A21                    _GestorArchivos_Configurar 1A40  
                           _LimpiarFechaHora 0801                                  ??_LeerBoton 0070  
                                __stringbase 0012         __end_of_Almacenamiento_EscribirDatos 0959  
               _Almacenamiento_EscribirDatos 085C                                    main@fecha 00C7  
                          ??_ImprimirDigito2 0025            __end_of_Pantalla_ConfigurarPuerto 1B2A  
                                  main@sd_ok 00B7           Almacenamiento_EscribirDatos@buffer 002A  
         Almacenamiento_EscribirDatos@sector 0024                             ??_I2C_IniciarBus 0070  
                              ImprimirTemp@f 00A2                                ImprimirTemp@v 00A6  
      Almacenamiento_EscribirDatos@respuesta 0030                          __end_of_SCL_Liberar 1A1D  
                   __end_of_I2C_EscribirByte 1D60         Almacenamiento_Inicializar@reintentos 0028  
              ?_Almacenamiento_TransferirSPI 0070         __end_of_Almacenamiento_EnviarComando 111A  
               _Almacenamiento_EnviarComando 1088        Almacenamiento_TransferirSPI@resultado 0075  
                                ??__Umul8_16 0072                  __end_of_Reloj_IniciarModulo 1A5A  
                         __end_of__stringtab 0013                                   CalcStats@i 00A7  
                                 CalcStats@n 00A6                ?_Almacenamiento_EscribirDatos 0024  
                                   ___xxtofl 11BC                              ___lwdiv@divisor 0070  
                  ??_Reloj_VerificarConexion 0074                              ___lwdiv@counter 0076  
                                   __ptext10 0801                                     __ptext11 1D60  
                                   __ptext20 1F71                                     __ptext12 0071  
                                   __ptext21 1270                                     __ptext13 1A25  
                                   __ptext30 1B51                                     __ptext22 1BA0  
                                   __ptext14 1A4C                                     __ptext31 1C26  
                                   __ptext23 1002                                     __ptext15 1A5A  
                                   __ptext40 0959                                     __ptext32 1E01  
                                   __ptext24 1B78                                     __ptext16 1A1D  
                                   __ptext41 11BC                                     __ptext33 1025  
                                   __ptext25 133E                                     __ptext17 1A19  
                                   __ptext42 111A                                     __ptext34 1CD4  
                                   __ptext26 1C5A                                     __ptext18 1AA3  
                                   __ptext43 0AF4                                     __ptext35 1B08  
                                   __ptext27 1C92                                     __ptext19 1EE4  
                                   __ptext44 0078                                     __ptext36 1BF5  
                                   __ptext28 1E58                                     __ptext45 1411  
                                   __ptext37 1DAC                                     __ptext29 0CBE  
                                   __ptext46 1A34                                     __ptext38 085C  
                                   __ptext47 1088                                     __ptext39 1A40  
                                   __ptext48 1BC8                                     __ptext49 1B2A  
                               _MostrarStats 1F71           __end_of_SensorHumedad_ObtenerDatos 166E  
                 _SensorHumedad_ObtenerDatos 1503                      ?_Pantalla_EscribirTexto 0025  
                 ??_SensorHumedad_Configurar 0070                   __end_of_Reloj_ConvertirBCD 1ACF  
                       __end_of_I2C_LeerByte 1DAC                       ??_Pantalla_Inicializar 0074  
                                _SDA_Liberar 1A1D                ?_Almacenamiento_EnviarComando 0076  
                        Reloj_ConvertirBCD@b 0075                            MostrarPrincipal@t 00A8  
                                   main@modo 00BC                                     main@temp 00C3  
                    ?_Pantalla_EnviarComando 0070               SensorHumedad_ObtenerDatos@bits 005D  
                          ?_MostrarPrincipal 00A8                                ??_AgregarTemp 0074  
                          _I2C_CondicionParo 1ACF                                  _SCL_Liberar 1A19  
                         ??_MostrarPrincipal 00B2                           ?_I2C_CondicionParo 0070  
             __end_of_Pantalla_EscribirTexto 1BA0                             ___lwmod@dividend 0079  
                             _SDA_ForzarBajo 0071                   ?_Pantalla_EscribirCaracter 0070  
                        ??_I2C_CondicionParo 0070                                    stringcode 000D  
                    Pantalla_EscribirTexto@a 0025                      Pantalla_EscribirTexto@i 0026  
             __end_of_Pantalla_EnviarComando 1025                       __Umul8_16@multiplicand 0070  
                ??_Pantalla_ConfigurarPuerto 0070                    __end_of_I2C_CondicionParo 1AEB  
                            ___lwmod@divisor 0077                       _Reloj_ObtenerFechaHora 166E  
                            ___lwmod@counter 007B                                     stringdir 000D  
                                   stringtab 0003                                LeerBoton@curr 0072  
                              ___fladd@signs 0064                                LeerBoton@prev 00EF  
 Almacenamiento_EscribirDatos@desplazamiento 0028                       __end_of_SDA_ForzarBajo 0078  
                        __end_of_AgregarTemp 1B51                                 ___fladd@aexp 0065  
                               ___fladd@bexp 0066                     __end_of_LimpiarFechaHora 085C  
                       __Umul8_16@multiplier 0078            __end_of_Pantalla_EscribirCaracter 1D19  
        __end_of_Pantalla_EstablecerPosicion 1BC8                  _Pantalla_EstablecerPosicion 1BA0  
                          __Umul8_16@product 0074                             _sistema_archivos 0190  
